BL51 BANKED LINKER/LOCATER V4.16a             02/05/2007  13:48:16  PAGE 1


BL51 BANKED LINKER/LOCATER V4.16a, INVOKED BY:
D:\PROGRAM FILES\CYGNAL\IDEFILES\C51\BIN\BL51.EXE D:\AMP\AMP29.OBJ TO D:\AMP\A
>> MP29 RS (256) PL (68) PW (78)


INPUT MODULES INCLUDED:
  D:\AMP\AMP29.OBJ (MAIN)


LINK MAP OF MODULE:  D:\AMP\AMP29 (MAIN)


            TYPE    BASE      LENGTH    RELOCATION   SEGMENT NAME
            -----------------------------------------------------

            * * * * * * *   D A T A   M E M O R Y   * * * * * * *
            REG     0000H     0008H     ABSOLUTE     "REG BANK 0"

            * * * * * * *   C O D E   M E M O R Y   * * * * * * *
            CODE    0000H     04C9H     ABSOLUTE     
            CODE    04C9H     28EBH     UNIT         MAIN



SYMBOL TABLE OF MODULE:  D:\AMP\AMP29 (MAIN)

  VALUE           TYPE          NAME
  ----------------------------------

  -------         MODULE        MAIN
  C:04C9H         SEGMENT       MAIN
  X:0100H         PUBLIC        MASS0
  B:00C0H.2       SYMBOL        AA
  C:0818H         SYMBOL        AAPAR
  D:004FH         SYMBOL        ABIN
  C:25EDH         SYMBOL        ABRET
  C:03F3H         SYMBOL        ABTOF
  B:00D0H.6       SYMBOL        AC
  D:00E0H         SYMBOL        ACC
  B:00E8H.4       SYMBOL        AD0BUSY
  B:00E8H.7       SYMBOL        AD0EN
  B:00E8H.5       SYMBOL        AD0INT
  B:00E8H.0       SYMBOL        AD0LJST
  B:00E8H.2       SYMBOL        AD0STM0
  B:00E8H.3       SYMBOL        AD0STM1
  B:00E8H.6       SYMBOL        AD0TM
  B:00E8H.1       SYMBOL        AD0WINT
  D:00BCH         SYMBOL        ADC0CF
  D:00E8H         SYMBOL        ADC0CN
  D:00C5H         SYMBOL        ADC0GTH
  D:00C4H         SYMBOL        ADC0GTL
  D:00BFH         SYMBOL        ADC0H
  D:00BEH         SYMBOL        ADC0L
  D:00C7H         SYMBOL        ADC0LTH
  D:00C6H         SYMBOL        ADC0LTL
  D:009CH         SYMBOL        ADC1
  D:00ABH         SYMBOL        ADC1CF
  D:00AAH         SYMBOL        ADC1CN
  C:2D8BH         SYMBOL        ADDX
  D:0053H         SYMBOL        ADEC
  C:2A73H         SYMBOL        ADRBLOK
  C:0B0FH         SYMBOL        AFTERK
  C:06C5H         SYMBOL        AGE2
  C:0CAAH         SYMBOL        AGE9
  C:06D3H         SYMBOL        AGEON
  C:0DDFH         SYMBOL        ALESS0
BL51 BANKED LINKER/LOCATER V4.16a           02/05/2007  13:48:16  PAGE 2


  C:07B6H         SYMBOL        ALLSUM
  C:2CD2H         SYMBOL        ALMUL
  C:0402H         SYMBOL        ALTOF
  C:041EH         SYMBOL        ALTOF1
  D:00BAH         SYMBOL        AMX0CF
  D:00BBH         SYMBOL        AMX0SL
  D:00ACH         SYMBOL        AMX1SL
  C:0A75H         SYMBOL        ANKOR
  C:1545H         SYMBOL        AN_T7
  C:1026H         SYMBOL        AUTOKA
  C:0C3CH         SYMBOL        AVPGO
  C:0AD1H         SYMBOL        AVTDEC1
  C:03FCH         SYMBOL        AWTOF
  D:00F0H         SYMBOL        B
  C:05C9H         SYMBOL        BEGIN
  C:29B0H         SYMBOL        BFORM
  B:0021H.5       SYMBOL        BIFL_KT
  C:2AEEH         SYMBOL        BIN30
  C:2AF2H         SYMBOL        BIN31
  C:2B02H         SYMBOL        BIN32
  C:2B13H         SYMBOL        BIN41
  C:2AE2H         SYMBOL        BINDEC
  B:0023H.2       SYMBOL        BITAKT
  B:0020H.5       SYMBOL        BITAVP
  B:0021H.2       SYMBOL        BITBON
  B:0021H.0       SYMBOL        BITBUF
  B:0022H.5       SYMBOL        BITEIZM
  B:0020H.4       SYMBOL        BITIZM
  B:0022H.2       SYMBOL        BITKLB
  B:0020H.1       SYMBOL        BITMAS
  B:0021H.3       SYMBOL        BITMEM
  B:0022H.1       SYMBOL        BITMENU
  B:0023H.1       SYMBOL        BITMIG
  B:0021H.7       SYMBOL        BITNUL
  B:0022H.7       SYMBOL        BITOLL
  B:0022H.6       SYMBOL        BITPAR
  B:0021H.1       SYMBOL        BITPRD
  B:0020H.3       SYMBOL        BITRS
  B:0022H.0       SYMBOL        BITT2
  B:0022H.3       SYMBOL        BITV19
  B:0020H.6       SYMBOL        BITVI11
  B:0022H.4       SYMBOL        BITVICH
  B:0020H.0       SYMBOL        BITZNAK
  B:0023H.3       SYMBOL        BITZNB
  B:0020H.7       SYMBOL        BITZUS
  C:1951H         SYMBOL        BLOKVV
  C:195BH         SYMBOL        BLOKVVC
  C:191FH         SYMBOL        BL_LI
  B:0021H.4       SYMBOL        BMEM11
  C:16FFH         SYMBOL        BOUT7
  C:2440H         SYMBOL        BRET
  C:0E11H         SYMBOL        BUFDEC
  D:0040H         SYMBOL        BUFIND
  C:2161H         SYMBOL        BUFMEA
  C:2254H         SYMBOL        BUFMIN
  C:116CH         SYMBOL        BUFON
  C:0D4FH         SYMBOL        BUFR
  C:0D31H         SYMBOL        BUFR2
  C:0D2AH         SYMBOL        BUFR3
  C:0D2DH         SYMBOL        BUFR30
  B:00D8H.0       SYMBOL        CCF0
  B:00D8H.1       SYMBOL        CCF1
  B:00D8H.2       SYMBOL        CCF2
  B:00D8H.3       SYMBOL        CCF3
  B:00D8H.4       SYMBOL        CCF4
BL51 BANKED LINKER/LOCATER V4.16a           02/05/2007  13:48:16  PAGE 3


  C:01F7H         SYMBOL        CDONE
  D:0020H         SYMBOL        CELLBIT
  D:0021H         SYMBOL        CELLBIT1
  D:0022H         SYMBOL        CELLBIT2
  D:0023H         SYMBOL        CELLBIT3
  C:01E2H         SYMBOL        CEXP
  B:00D8H.7       SYMBOL        CF
  C:24DDH         SYMBOL        CH0
  C:24FDH         SYMBOL        CH1
  C:24E1H         SYMBOL        CH10
  C:24F5H         SYMBOL        CH100
  C:24F1H         SYMBOL        CH10000
  C:253DH         SYMBOL        CH150H
  C:24F9H         SYMBOL        CH2
  C:26B4H         SYMBOL        CH20
  C:251DH         SYMBOL        CH2THO
  C:2539H         SYMBOL        CH320H
  C:24E9H         SYMBOL        CH4
  C:1B45H         SYMBOL        CH43
  C:1BD7H         SYMBOL        CH43_42
  C:24E5H         SYMBOL        CH5
  C:26B0H         SYMBOL        CH57
  C:24EDH         SYMBOL        CH954
  C:1803H         SYMBOL        CHAIBL
  C:1A9AH         SYMBOL        CHAIPR
  C:131CH         SYMBOL        CHANMA
  C:1303H         SYMBOL        CHANZ
  D:0081H         SYMBOL        CHAVT
  D:009BH         SYMBOL        CHBEFORE
  D:00D6H         SYMBOL        CHBLOK
  D:00CFH         SYMBOL        CHBUF
  C:23E3H         SYMBOL        CHCMP
  C:23F6H         SYMBOL        CHDEC
  D:0083H         SYMBOL        CHDEL
  C:100EH         SYMBOL        CHDELMO
  C:26F8H         SYMBOL        CHIF
  C:270CH         SYMBOL        CHIFB
  C:2711H         SYMBOL        CHIFB1
  D:00ACH         SYMBOL        CHIND
  D:0098H         SYMBOL        CHINKOR
  C:2535H         SYMBOL        CHK
  D:003DH         SYMBOL        CHKL
  D:006EH         SYMBOL        CHMAS
  D:003FH         SYMBOL        CHMASN
  C:2A58H         SYMBOL        CHMINUS
  C:238DH         SYMBOL        CHTADC
  C:2515H         SYMBOL        CHTHO
  C:25B8H         SYMBOL        CHTHOU
  C:24D9H         SYMBOL        CHZAP
  C:2505H         SYMBOL        CH_1
  C:252DH         SYMBOL        CH_10
  C:2529H         SYMBOL        CH_10TH
  C:2509H         SYMBOL        CH_2
  C:2525H         SYMBOL        CH_200
  C:2521H         SYMBOL        CH_220
  C:25F6H         SYMBOL        CH_22T
  C:2531H         SYMBOL        CH_250
  C:250DH         SYMBOL        CH_4
  C:25F2H         SYMBOL        CH_500
  C:2511H         SYMBOL        CH_953
  C:25EEH         SYMBOL        CH_B
  C:25FAH         SYMBOL        CH_FL
  C:2501H         SYMBOL        CH_MLN
  C:2986H         SYMBOL        CIKLWR
  D:008EH         SYMBOL        CKCON
BL51 BANKED LINKER/LOCATER V4.16a           02/05/2007  13:48:16  PAGE 4


  C:254FH         SYMBOL        CL4
  C:2555H         SYMBOL        CL4N
  C:1BC4H         SYMBOL        CLE20
  C:043EH         SYMBOL        CLE256
  C:2ADCH         SYMBOL        CLEAR
  C:254CH         SYMBOL        CLEAR4
  C:2554H         SYMBOL        CLEARN
  C:2976H         SYMBOL        CLMASSIX
  C:0C41H         SYMBOL        CLMASV
  C:297BH         SYMBOL        CLMAX
  C:2ADDH         SYMBOL        CLR11
  C:2AD6H         SYMBOL        CLRDEC
  C:2ADAH         SYMBOL        CLRNUM
  C:1674H         SYMBOL        CLRVICH
  N:0006H         SYMBOL        CNTR
  C:24C1H         SYMBOL        CO02S
  C:24CEH         SYMBOL        CO05S
  C:24B8H         SYMBOL        CO1S
  C:24B4H         SYMBOL        CO2S
  C:0CC6H         SYMBOL        COMPA1
  C:0CFCH         SYMBOL        COMPA2
  C:29EAH         SYMBOL        COND
  C:049FH         SYMBOL        COPY1
  C:0499H         SYMBOL        COPYPP
  D:00D7H         SYMBOL        COPY_HL
  C:2496H         SYMBOL        COUNT
  B:00C8H.0       SYMBOL        CPRL2
  D:009EH         SYMBOL        CPT0CN
  D:009FH         SYMBOL        CPT1CN
  B:00D8H.6       SYMBOL        CR
  C:249DH         SYMBOL        CT
  B:00C8H.1       SYMBOL        CT2
  B:00D0H.7       SYMBOL        CY
  D:00D4H         SYMBOL        DAC0CN
  D:00D3H         SYMBOL        DAC0H
  D:00D2H         SYMBOL        DAC0L
  D:00D7H         SYMBOL        DAC1CN
  D:00D6H         SYMBOL        DAC1H
  D:00D5H         SYMBOL        DAC1L
  C:29EFH         SYMBOL        DCOA
  C:29F6H         SYMBOL        DCOB
  C:2A01H         SYMBOL        DCOC
  C:2A0EH         SYMBOL        DCOD
  C:18DAH         SYMBOL        DDOUTF
  C:17E7H         SYMBOL        DDOUTFR
  C:2B2FH         SYMBOL        DEC30
  C:2B34H         SYMBOL        DEC31
  C:2B44H         SYMBOL        DEC32
  C:2B22H         SYMBOL        DECBIN
  N:000AH         SYMBOL        DECSIZE
  C:2B4DH         SYMBOL        DECT2
  C:2DA2H         SYMBOL        DEDPTR
  C:0133H         SYMBOL        DENORM
  C:1A27H         SYMBOL        DGOTO7
  D:00AEH         SYMBOL        DIAP
  C:118BH         SYMBOL        DIINC
  C:2688H         SYMBOL        DIKDN
  C:25A0H         SYMBOL        DIKDW
  C:25B6H         SYMBOL        DIKM
  C:25B4H         SYMBOL        DIPAR
  C:02DDH         SYMBOL        DIV1
  C:0320H         SYMBOL        DIV2
  C:030DH         SYMBOL        DIV3
  C:0336H         SYMBOL        DIV9
  C:2C0DH         SYMBOL        DIVIDE
BL51 BANKED LINKER/LOCATER V4.16a           02/05/2007  13:48:16  PAGE 5


  C:2B7CH         SYMBOL        DONE
  C:2B7AH         SYMBOL        DONE1
  C:2C96H         SYMBOL        DOSH
  C:2C84H         SYMBOL        DOSUB
  D:0083H         SYMBOL        DPH
  D:0082H         SYMBOL        DPL
  C:0EEFH         SYMBOL        DVIG0
  C:0EE4H         SYMBOL        DVIG1
  C:0ED9H         SYMBOL        DVIG2
  C:0ECDH         SYMBOL        DVIG3
  C:0EFBH         SYMBOL        DVIG4
  C:0F1DH         SYMBOL        DVIG6
  C:0F1BH         SYMBOL        DVM
  B:00A8H.7       SYMBOL        EA
  D:00E6H         SYMBOL        EIE1
  D:00E7H         SYMBOL        EIE2
  D:00F6H         SYMBOL        EIP1
  D:00F7H         SYMBOL        EIP2
  D:00A3H         SYMBOL        EMI0CF
  D:00AFH         SYMBOL        EMI0CN
  D:00A1H         SYMBOL        EMI0TC
  C:1F91H         SYMBOL        ENDKALIB
  C:0F21H         SYMBOL        ENDSDV
  C:0A03H         SYMBOL        ENDSUM
  B:00C0H.6       SYMBOL        ENSMB
  C:0CF7H         SYMBOL        EQU0
  C:0D15H         SYMBOL        EQU00
  C:1442H         SYMBOL        EQU1L
  C:193AH         SYMBOL        EQU2L
  C:279CH         SYMBOL        ERROR
  B:00A8H.4       SYMBOL        ES
  B:00A8H.1       SYMBOL        ET0
  B:00A8H.3       SYMBOL        ET1
  B:00A8H.5       SYMBOL        ET2
  B:00A8H.0       SYMBOL        EX0
  B:00A8H.2       SYMBOL        EX1
  B:00C8H.3       SYMBOL        EXEN2
  B:00C8H.6       SYMBOL        EXF2
  N:0000H         SYMBOL        EXP1
  N:0001H         SYMBOL        EXP2
  C:0675H         SYMBOL        EXTCLE
  B:00D0H.5       SYMBOL        F0
  B:00D0H.1       SYMBOL        F1
  C:2599H         SYMBOL        FINDEXT
  C:258AH         SYMBOL        FINDKOEF
  C:13A6H         SYMBOL        FINDMEM
  C:26E1H         SYMBOL        FINDR
  C:2CC1H         SYMBOL        FINIS
  D:00B7H         SYMBOL        FLACL
  C:0166H         SYMBOL        FLADD
  C:01D6H         SYMBOL        FLCMP
  C:02B7H         SYMBOL        FLDIV
  C:0203H         SYMBOL        FLMUL
  C:01E1H         SYMBOL        FLOUT
  D:00B6H         SYMBOL        FLSCL
  C:01D1H         SYMBOL        FLSUB
  C:01F8H         SYMBOL        FND
  C:29ADH         SYMBOL        FO1M
  C:29B6H         SYMBOL        FO2M
  C:29B7H         SYMBOL        FORM4
  C:125CH         SYMBOL        FT1IZM
  C:0343H         SYMBOL        FTOL
  C:037CH         SYMBOL        FTOL1
  C:039EH         SYMBOL        FTOL2
  C:03C4H         SYMBOL        FTOL22
BL51 BANKED LINKER/LOCATER V4.16a           02/05/2007  13:48:16  PAGE 6


  C:03A2H         SYMBOL        FTOL23
  C:03B5H         SYMBOL        FTOL24
  C:03C2H         SYMBOL        FTOL25
  C:03E4H         SYMBOL        FTOL26
  C:038AH         SYMBOL        FTOL3
  C:038EH         SYMBOL        FTOL33
  C:0371H         SYMBOL        FTOL4
  C:0381H         SYMBOL        FTOL9
  C:2000H         SYMBOL        FULKALIB
  C:060EH         SYMBOL        GENER
  C:189FH         SYMBOL        GO23NO
  C:1448H         SYMBOL        GO31L
  C:144DH         SYMBOL        GO41L
  C:0BF7H         SYMBOL        GOA2
  C:0C01H         SYMBOL        GOA3A2
  C:0FACH         SYMBOL        GOCIKLE
  C:18D2H         SYMBOL        GOFULL
  C:0C1FH         SYMBOL        GOKAA2
  C:115AH         SYMBOL        GOKLB
  C:183EH         SYMBOL        GOOFF1
  C:1856H         SYMBOL        GOOFF2
  C:186EH         SYMBOL        GOOFF3
  C:1886H         SYMBOL        GOOFF4
  C:0C11H         SYMBOL        GOONIN
  C:0DE8H         SYMBOL        GOONIND
  C:180FH         SYMBOL        GOONOFF
  C:0F72H         SYMBOL        GOONT
  C:1D71H         SYMBOL        GOPAROL
  C:1C87H         SYMBOL        GOPAROM
  C:0794H         SYMBOL        GOPART
  C:137EH         SYMBOL        GOSK19
  C:1545H         SYMBOL        GOTO7
  C:0A96H         SYMBOL        GOTOKD
  C:110FH         SYMBOL        GOUT6
  C:1ABEH         SYMBOL        GOVVLIST
  C:0746H         SYMBOL        GOZNAK
  C:167FH         SYMBOL        HNOR11
  C:1627H         SYMBOL        HNOR12
  C:16C8H         SYMBOL        HNOT1
  C:15F5H         SYMBOL        HNOT2
  C:161DH         SYMBOL        HR12
  C:1617H         SYMBOL        HVI1113
  D:00A8H         SYMBOL        IE
  B:0088H.1       SYMBOL        IE0
  B:0088H.3       SYMBOL        IE1
  C:15F1H         SYMBOL        INCT
  C:235BH         SYMBOL        IND
  C:0DAFH         SYMBOL        INDA3
  C:0D86H         SYMBOL        INDOLL
  C:25FEH         SYMBOL        INIACP
  C:1996H         SYMBOL        INNOT1_2
  C:1987H         SYMBOL        INNOT3
  C:197BH         SYMBOL        INNOT6
  D:00CDH         SYMBOL        INTERVA
  C:0F8AH         SYMBOL        INTMUL
  C:1A10H         SYMBOL        INTN
  D:00B8H         SYMBOL        IP
  B:0088H.0       SYMBOL        IT0
  B:0088H.2       SYMBOL        IT1
  C:16B0H         SYMBOL        IZCHI
  C:11DFH         SYMBOL        IZMAN
  C:11EEH         SYMBOL        IZMFUN
  C:11F2H         SYMBOL        IZMPAT
  C:1201H         SYMBOL        IZMT2
  C:120CH         SYMBOL        IZMT3
BL51 BANKED LINKER/LOCATER V4.16a           02/05/2007  13:48:16  PAGE 7


  C:2C28H         SYMBOL        JFINIS
  C:2519H         SYMBOL        KD
  C:10E8H         SYMBOL        KEYB1
  C:14DCH         SYMBOL        KEYB2
  C:18A9H         SYMBOL        KFULL
  C:17D6H         SYMBOL        KFULLR
  C:182BH         SYMBOL        KGO23
  C:17B0H         SYMBOL        KLEV1
  C:17B5H         SYMBOL        KLEV2
  C:17D9H         SYMBOL        KLEV21
  C:17BFH         SYMBOL        KLEV22
  C:17EAH         SYMBOL        KLEV23
  C:17BAH         SYMBOL        KLEV3
  C:0841H         SYMBOL        KLMAS
  C:1590H         SYMBOL        KNAVP
  B:0023H.0       SYMBOL        KNIZM
  C:11E9H         SYMBOL        KNIZMON
  C:14CDH         SYMBOL        KNKMP
  C:15A0H         SYMBOL        KNLEFT
  C:171DH         SYMBOL        KNMEM
  C:1567H         SYMBOL        KNMENU
  C:15BEH         SYMBOL        KNNUL
  C:1214H         SYMBOL        KNOPT
  C:1229H         SYMBOL        KNRAZR
  C:1181H         SYMBOL        KNRIGHT
  C:119DH         SYMBOL        KNVICH
  D:00A0H         SYMBOL        KOEFKD
  D:0094H         SYMBOL        KOEFKM
  D:0090H         SYMBOL        KOEFKP
  C:0BBFH         SYMBOL        KOMUL
  C:0BB9H         SYMBOL        KOMULPZ
  D:00BCH         SYMBOL        KONSTA
  D:00C0H         SYMBOL        KONSTB
  C:12E7H         SYMBOL        KON_B
  C:2454H         SYMBOL        KOR0US
  D:0084H         SYMBOL        KOR0_AN
  C:0AE7H         SYMBOL        KORDEC1
  C:0AC7H         SYMBOL        KORDEC10
  C:0FE1H         SYMBOL        KORNUL
  C:18C5H         SYMBOL        KVVOD0
  C:1AB5H         SYMBOL        LABEL43
  C:1B8AH         SYMBOL        LABEL7
  C:071BH         SYMBOL        LABELA
  C:0EC6H         SYMBOL        LABELB
  C:1229H         SYMBOL        LABELC
  C:11F2H         SYMBOL        LABELE
  C:1248H         SYMBOL        LABELF
  C:15E0H         SYMBOL        LABELH
  C:1E5AH         SYMBOL        LABELI
  C:1664H         SYMBOL        LABELI2
  C:1754H         SYMBOL        LABELK
  C:1403H         SYMBOL        LABELL
  C:1324H         SYMBOL        LABELL1
  C:1467H         SYMBOL        LABELN
  C:1A8BH         SYMBOL        LABELP
  C:1A56H         SYMBOL        LABELS
  C:1CE8H         SYMBOL        LABELS1
  C:1DE3H         SYMBOL        LABELS13
  C:1E6DH         SYMBOL        LABELS3
  C:1E48H         SYMBOL        LABELS4
  C:1429H         SYMBOL        LABL2
  C:1940H         SYMBOL        LABM
  C:2D69H         SYMBOL        LADD
  C:2D7AH         SYMBOL        LADDX
  C:042DH         SYMBOL        LBTOF
BL51 BANKED LINKER/LOCATER V4.16a           02/05/2007  13:48:16  PAGE 8


  C:2B67H         SYMBOL        LCMP
  C:2B7DH         SYMBOL        LDC_LONG
  C:2B9FH         SYMBOL        LDC_LTEMP
  C:2BC5H         SYMBOL        LDX_LONG
  C:2BEBH         SYMBOL        LDX_LTEMP
  C:19A5H         SYMBOL        LEFCUR
  C:15AAH         SYMBOL        LEFKL
  C:1762H         SYMBOL        LEFMEM11
  C:18F3H         SYMBOL        LEFT21
  C:1CE5H         SYMBOL        LEFT_S
  C:1DCAH         SYMBOL        LEFT_SK
  C:17C2H         SYMBOL        LEV220
  C:148DH         SYMBOL        LEV2GO
  D:00B0H         SYMBOL        LEVEL
  C:16BAH         SYMBOL        LI21
  C:1B24H         SYMBOL        LI42_43
  C:1B94H         SYMBOL        LIST_43
  C:11D8H         SYMBOL        LLDI2
  C:11CCH         SYMBOL        LLDI23
  C:11D3H         SYMBOL        LLDI3
  C:1452H         SYMBOL        LLEV2
  C:2CD2H         SYMBOL        LLMUL
  C:2D57H         SYMBOL        LLSUB
  C:0432H         SYMBOL        LLTOF
  C:2CD2H         SYMBOL        LMUL
  C:2AB2H         SYMBOL        LOA3_X
  C:264DH         SYMBOL        LOAB12
  D:00B7H         SYMBOL        LOAD
  C:16D9H         SYMBOL        LOADB
  C:1702H         SYMBOL        LOADB2
  C:1780H         SYMBOL        LOADCLE
  C:266AH         SYMBOL        LOADKD
  C:265CH         SYMBOL        LOADR2
  C:246FH         SYMBOL        LOADT
  C:240EH         SYMBOL        LOADUS
  C:2176H         SYMBOL        LOAHL_R2
  C:18FEH         SYMBOL        LOBLOK
  C:177BH         SYMBOL        LOCLE
  C:247EH         SYMBOL        LOD1
  C:248AH         SYMBOL        LODT
  C:162AH         SYMBOL        LOIZMK
  C:1C40H         SYMBOL        LOKAME1
  C:2471H         SYMBOL        LOLEVT
  C:176FH         SYMBOL        LOLIST
  C:1F45H         SYMBOL        LOME1
  C:1F3DH         SYMBOL        LOMENU
  C:23CAH         SYMBOL        LOOP
  C:2C2BH         SYMBOL        LOOPS
  C:2448H         SYMBOL        LOSPUS
  C:1797H         SYMBOL        LOSTAT
  C:2486H         SYMBOL        LOTEXT
  C:26C0H         SYMBOL        LOTP
  C:26B8H         SYMBOL        LOTPUS
  C:11DEH         SYMBOL        LOU
  C:11BBH         SYMBOL        LOUIZM
  C:1445H         SYMBOL        LOUTF
  C:1620H         SYMBOL        LOVICH
  C:1789H         SYMBOL        LOWR
  C:178EH         SYMBOL        LOWR1
  C:2D57H         SYMBOL        LSUB
  N:0008H         SYMBOL        LTEMP
  C:2988H         SYMBOL        LWR
  C:294CH         SYMBOL        LWRX
  C:042FH         SYMBOL        LWTOF
  D:006FH         SYMBOL        MABIN
BL51 BANKED LINKER/LOCATER V4.16a           02/05/2007  13:48:16  PAGE 9


  C:29A3H         SYMBOL        MAFORM
  N:0002H         SYMBOL        MANT1
  N:0008H         SYMBOL        MANT2
  C:12EEH         SYMBOL        MARK0_8
  D:00B2H         SYMBOL        MARKER
  C:2712H         SYMBOL        MARLE
  C:271FH         SYMBOL        MARRI
  C:0860H         SYMBOL        MAS10
  C:08E0H         SYMBOL        MAS20
  C:09D4H         SYMBOL        MAS4
  C:0A48H         SYMBOL        MAS5DIV
  C:0A0FH         SYMBOL        MASFULL
  X:0104H         SYMBOL        MASS1
  X:0128H         SYMBOL        MASS10
  X:012CH         SYMBOL        MASS11
  X:0130H         SYMBOL        MASS12
  X:0134H         SYMBOL        MASS13
  X:0138H         SYMBOL        MASS14
  X:013CH         SYMBOL        MASS15
  X:0140H         SYMBOL        MASS16
  X:0144H         SYMBOL        MASS17
  X:0148H         SYMBOL        MASS18
  X:014CH         SYMBOL        MASS19
  X:0108H         SYMBOL        MASS2
  X:010CH         SYMBOL        MASS3
  X:0110H         SYMBOL        MASS4
  X:0114H         SYMBOL        MASS5
  X:0118H         SYMBOL        MASS6
  X:011CH         SYMBOL        MASS7
  X:0120H         SYMBOL        MASS8
  X:0124H         SYMBOL        MASS9
  C:0A3EH         SYMBOL        MASX5
  C:229DH         SYMBOL        MAXG
  C:2307H         SYMBOL        MAXVIX
  C:1A50H         SYMBOL        ME11_15DE
  C:1C3FH         SYMBOL        ME11_15DEC
  C:140DH         SYMBOL        ME21_22
  C:1CA3H         SYMBOL        ME21_23
  C:1CBFH         SYMBOL        ME21_23DEC
  C:159BH         SYMBOL        MEAVP
  C:0662H         SYMBOL        MECLE
  C:0669H         SYMBOL        MEFF
  C:18C0H         SYMBOL        MEM12NO
  C:20C2H         SYMBOL        MENG
  C:1F49H         SYMBOL        MENU12
  C:1F51H         SYMBOL        MENU13
  C:1F59H         SYMBOL        MENU14
  C:1F61H         SYMBOL        MENU15
  C:1F69H         SYMBOL        MENU21
  C:1F71H         SYMBOL        MENU22
  C:1F79H         SYMBOL        MENU23
  C:1F81H         SYMBOL        MENU31
  C:1F89H         SYMBOL        MENU41
  C:157EH         SYMBOL        MENUOFF
  C:1A7DH         SYMBOL        MENUON
  C:1564H         SYMBOL        MERR
  C:17A2H         SYMBOL        ME_14
  C:1D34H         SYMBOL        ME_41
  C:2C5EH         SYMBOL        MIDL
  C:277EH         SYMBOL        MIGN
  C:2786H         SYMBOL        MIGNN
  C:2182H         SYMBOL        MIN4_HL
  C:21C4H         SYMBOL        MING
  C:222EH         SYMBOL        MINIVIX
  C:1923H         SYMBOL        MLABL2
BL51 BANKED LINKER/LOCATER V4.16a           02/05/2007  13:48:16  PAGE 10


  C:1ABBH         SYMBOL        MLABL2R
  C:0716H         SYMBOL        MMM
  C:0D7BH         SYMBOL        MO220
  C:0CEBH         SYMBOL        MO500I
  C:0CDFH         SYMBOL        MO500R
  B:00F8H.5       SYMBOL        MODF
  C:13A0H         SYMBOL        MOUTF
  C:1A53H         SYMBOL        MOUTKMEM
  C:2A10H         SYMBOL        MOVE28
  C:25BCH         SYMBOL        MOVE82
  C:0DE8H         SYMBOL        MOVEA3
  D:003AH         SYMBOL        MOVLEFT
  D:003BH         SYMBOL        MOVRIG
  B:00F8H.1       SYMBOL        MSTEN
  C:021AH         SYMBOL        MUP1
  C:0257H         SYMBOL        MUP11
  C:0297H         SYMBOL        MUP2
  C:026CH         SYMBOL        MUP3
  C:18F9H         SYMBOL        MVV11
  C:190BH         SYMBOL        MVV12
  C:10D5H         SYMBOL        N12DELCH
  C:1081H         SYMBOL        N4DELCH
  C:10C3H         SYMBOL        N8DELCH
  C:13A6H         SYMBOL        NBIMENU
  D:0038H         SYMBOL        NBLOK
  C:0358H         SYMBOL        NE05
  D:0037H         SYMBOL        NELEM
  C:2365H         SYMBOL        NEXIN
  C:22D2H         SYMBOL        NEXTMAX
  C:20F7H         SYMBOL        NEXTMEA
  C:21F9H         SYMBOL        NEXTMIN
  C:0B04H         SYMBOL        NMINUS
  C:0A68H         SYMBOL        NMINUS3
  C:1041H         SYMBOL        NNDELCH
  C:1499H         SYMBOL        NNMEMB
  C:0E5FH         SYMBOL        NNNUL
  C:2C46H         SYMBOL        NO
  C:0728H         SYMBOL        NO0KEY
  C:12A0H         SYMBOL        NO11V6
  C:12B3H         SYMBOL        NO12V6
  C:12C6H         SYMBOL        NO13V6
  C:1EDAH         SYMBOL        NO21P7
  C:136AH         SYMBOL        NO23RI
  C:0DD4H         SYMBOL        NO2PARN
  C:19C4H         SYMBOL        NO31N
  C:1389H         SYMBOL        NO31RI
  C:0DCAH         SYMBOL        NO3PARN
  C:1014H         SYMBOL        NO4DEL
  C:0AD6H         SYMBOL        NOAVK
  C:0BF7H         SYMBOL        NOAVP
  C:0E7EH         SYMBOL        NOBAVP
  C:07D1H         SYMBOL        NOBEF99
  C:0245H         SYMBOL        NOBIT
  C:0E87H         SYMBOL        NOBITIZM
  C:1416H         SYMBOL        NOBL21
  C:1420H         SYMBOL        NOBL22
  C:0EBCH         SYMBOL        NOBUF
  C:0FBCH         SYMBOL        NOBUF0
  C:0DABH         SYMBOL        NOCHI0
  C:0A2BH         SYMBOL        NOCHN10
  C:0A20H         SYMBOL        NOCHN2
  C:0A36H         SYMBOL        NOCHN20
  C:0D91H         SYMBOL        NODI2
  C:15ACH         SYMBOL        NODI6
  C:0E36H         SYMBOL        NODI8
BL51 BANKED LINKER/LOCATER V4.16a           02/05/2007  13:48:16  PAGE 11


  C:1D9EH         SYMBOL        NODI8K
  C:1B6AH         SYMBOL        NODI8_43
  C:0D96H         SYMBOL        NODI9
  C:1B75H         SYMBOL        NODI9_43
  C:0E45H         SYMBOL        NODIS9
  C:1DA6H         SYMBOL        NODISK9
  C:2AA7H         SYMBOL        NOENDLI
  C:147EH         SYMBOL        NOEQU1
  C:19BEH         SYMBOL        NOEQU2
  C:1282H         SYMBOL        NOFIZM
  C:125BH         SYMBOL        NOFT1
  C:0FB7H         SYMBOL        NOFZ
  C:163FH         SYMBOL        NOH37
  C:1712H         SYMBOL        NOHNOT1
  C:170AH         SYMBOL        NOHNOT2
  C:0EB6H         SYMBOL        NOKLB
  C:0A7EH         SYMBOL        NOKORR
  C:1601H         SYMBOL        NOLAH
  C:1BE8H         SYMBOL        NOLI_43
  C:199CH         SYMBOL        NOM31
  C:19FFH         SYMBOL        NOM32
  C:1A2DH         SYMBOL        NOM33
  C:1E82H         SYMBOL        NOMARL
  C:22EAH         SYMBOL        NOMAXI
  C:18B0H         SYMBOL        NOME11
  C:13C1H         SYMBOL        NOMEM11
  C:13D7H         SYMBOL        NOMEM12
  C:13EDH         SYMBOL        NOMEM13
  C:18ADH         SYMBOL        NOMEMK
  C:2211H         SYMBOL        NOMINI
  C:123AH         SYMBOL        NON1C
  C:0ABBH         SYMBOL        NONULAVT
  C:0FF6H         SYMBOL        NONULDEL
  C:0DAFH         SYMBOL        NOP3_0
  C:07D5H         SYMBOL        NOPART1
  C:07F5H         SYMBOL        NOPART2
  C:0815H         SYMBOL        NOPART3
  C:0835H         SYMBOL        NOPART4
  C:1316H         SYMBOL        NOPLUS
  C:1E99H         SYMBOL        NOPOIN7
  C:1E65H         SYMBOL        NOPOINT
  C:132AH         SYMBOL        NOR11
  C:00F6H         SYMBOL        NORDN
  C:0107H         SYMBOL        NORDN1
  C:145BH         SYMBOL        NORIG2
  C:1499H         SYMBOL        NORIM6
  C:1350H         SYMBOL        NORIME
  C:134AH         SYMBOL        NORIME1
  C:00F0H         SYMBOL        NORM1
  C:1657H         SYMBOL        NORR11
  C:1667H         SYMBOL        NORR12
  C:0119H         SYMBOL        NORUP
  C:011EH         SYMBOL        NORUP1
  C:0132H         SYMBOL        NORUP2
  C:0EBFH         SYMBOL        NORVICH
  C:2C81H         SYMBOL        NOSUB
  C:0FCCH         SYMBOL        NOT1IN
  C:1554H         SYMBOL        NOT1_7
  C:0FD4H         SYMBOL        NOT2IN
  C:155FH         SYMBOL        NOT2_7
  C:0FDCH         SYMBOL        NOT3IN
  C:0E91H         SYMBOL        NOTAKT
  C:0B7BH         SYMBOL        NOTE21
  C:0B96H         SYMBOL        NOTE22
  C:0BAEH         SYMBOL        NOTESTIZM
BL51 BANKED LINKER/LOCATER V4.16a           02/05/2007  13:48:16  PAGE 12


  C:0F94H         SYMBOL        NOTT1
  C:0F9FH         SYMBOL        NOTT2
  C:0FA4H         SYMBOL        NOTT5
  C:1241H         SYMBOL        NOT_1
  C:1241H         SYMBOL        NOT_10
  C:1332H         SYMBOL        NOVIR
  C:126CH         SYMBOL        NOVIR1
  C:2172H         SYMBOL        NOZMEA
  C:2265H         SYMBOL        NOZMIN
  C:0E26H         SYMBOL        NOZZMI
  C:1B5AH         SYMBOL        NOZZMI43
  C:0E68H         SYMBOL        NSEC01
  C:0E6FH         SYMBOL        NSEC1
  C:0E74H         SYMBOL        NSEC10
  D:0039H         SYMBOL        NUERR
  C:1026H         SYMBOL        NULAVT
  N:0004H         SYMBOL        NUMSIZE
  C:2BB7H         SYMBOL        OBOARD
  C:2BFFH         SYMBOL        OBOARD1
  C:0186H         SYMBOL        OK1
  C:01A0H         SYMBOL        OK2
  C:01C4H         SYMBOL        OK3
  C:2BDDH         SYMBOL        ONBOAR1
  C:2B91H         SYMBOL        ONBOARD
  C:172EH         SYMBOL        ONMEM11
  C:1CC6H         SYMBOL        ONMEM12
  C:1E45H         SYMBOL        ONMEM13
  C:2794H         SYMBOL        ONMIG
  C:11B3H         SYMBOL        ONVICH
  D:00B2H         SYMBOL        OSCICN
  D:00B1H         SYMBOL        OSCXCN
  C:1B81H         SYMBOL        OUT43
  C:1499H         SYMBOL        OUT6
  C:1F08H         SYMBOL        OUT7
  C:272CH         SYMBOL        OUTA
  C:2746H         SYMBOL        OUTA2
  C:274FH         SYMBOL        OUTB
  C:2775H         SYMBOL        OUTB2
  C:2760H         SYMBOL        OUTB3
  C:1262H         SYMBOL        OUTF
  C:1327H         SYMBOL        OUTFL
  C:173BH         SYMBOL        OUTKMEM
  C:1300H         SYMBOL        OUTMA
  C:22EFH         SYMBOL        OUTMAX
  C:2112H         SYMBOL        OUTMEA
  C:1C82H         SYMBOL        OUTMENU
  C:2216H         SYMBOL        OUTMIN
  C:0D42H         SYMBOL        OUTR
  C:0D5EH         SYMBOL        OUTR5
  C:1D27H         SYMBOL        OUTSKO
  C:1D24H         SYMBOL        OUTSKO1
  C:126FH         SYMBOL        OUTVICH
  C:1153H         SYMBOL        OUTVIR
  C:200DH         SYMBOL        OUT_KALI
  B:00D0H.2       SYMBOL        OV
  B:00D0H.0       SYMBOL        P
  D:0080H         SYMBOL        P0
  D:00A4H         SYMBOL        P0MDOUT
  D:0090H         SYMBOL        P1
  D:00BDH         SYMBOL        P1MDIN
  D:00A5H         SYMBOL        P1MDOUT
  D:00A0H         SYMBOL        P2
  D:00A6H         SYMBOL        P2MDOUT
  D:00B0H         SYMBOL        P3
  D:00ADH         SYMBOL        P3IF
BL51 BANKED LINKER/LOCATER V4.16a           02/05/2007  13:48:16  PAGE 13


  D:00A7H         SYMBOL        P3MDOUT
  D:0084H         SYMBOL        P4
  D:0085H         SYMBOL        P5
  D:0086H         SYMBOL        P6
  D:0096H         SYMBOL        P7
  D:00B5H         SYMBOL        P74OUT
  C:00DEH         SYMBOL        PACK1
  C:1DB3H         SYMBOL        PARERR
  D:00AFH         SYMBOL        PARN
  D:00A8H         SYMBOL        PAROL
  D:009AH         SYMBOL        PART
  D:00D8H         SYMBOL        PCA0CN
  D:00FAH         SYMBOL        PCA0CPH0
  D:00FBH         SYMBOL        PCA0CPH1
  D:00FCH         SYMBOL        PCA0CPH2
  D:00FDH         SYMBOL        PCA0CPH3
  D:00FEH         SYMBOL        PCA0CPH4
  D:00EAH         SYMBOL        PCA0CPL0
  D:00EBH         SYMBOL        PCA0CPL1
  D:00ECH         SYMBOL        PCA0CPL2
  D:00EDH         SYMBOL        PCA0CPL3
  D:00EEH         SYMBOL        PCA0CPL4
  D:00DAH         SYMBOL        PCA0CPM0
  D:00DBH         SYMBOL        PCA0CPM1
  D:00DCH         SYMBOL        PCA0CPM2
  D:00DDH         SYMBOL        PCA0CPM3
  D:00DEH         SYMBOL        PCA0CPM4
  D:00F9H         SYMBOL        PCA0H
  D:00E9H         SYMBOL        PCA0L
  D:00D9H         SYMBOL        PCA0MD
  D:0087H         SYMBOL        PCON
  C:1E98H         SYMBOL        POIN3
  C:1ED5H         SYMBOL        POINA
  C:1E7DH         SYMBOL        POINA1
  C:1E77H         SYMBOL        POINA2
  C:1EF8H         SYMBOL        POZB
  N:000CH         SYMBOL        PROD
  B:00B8H.4       SYMBOL        PS
  D:008FH         SYMBOL        PSCTL
  D:00D0H         SYMBOL        PSW
  B:00B8H.1       SYMBOL        PT0
  B:00B8H.3       SYMBOL        PT1
  B:00B8H.5       SYMBOL        PT2
  B:00B8H.0       SYMBOL        PX0
  B:00B8H.2       SYMBOL        PX1
  C:115DH         SYMBOL        PYSKST
  C:17E4H         SYMBOL        QUES
  C:0BF4H         SYMBOL        QU_AVP
  N:000AH         SYMBOL        R10
  N:000BH         SYMBOL        R11
  N:0008H         SYMBOL        R8
  N:0009H         SYMBOL        R9
  C:0A94H         SYMBOL        RAFTERK
  B:0098H.2       SYMBOL        RB8
  D:00CBH         SYMBOL        RCAP2H
  D:00CAH         SYMBOL        RCAP2L
  D:00E5H         SYMBOL        RCAP4H
  D:00E4H         SYMBOL        RCAP4L
  B:00C8H.5       SYMBOL        RCLK
  C:1828H         SYMBOL        RDDOUTF
  C:23D3H         SYMBOL        RE1
  C:0B3CH         SYMBOL        RE11_7
  C:0454H         SYMBOL        RE4BYTE
  C:2AC4H         SYMBOL        REA3_X
  D:0077H         SYMBOL        REACP
BL51 BANKED LINKER/LOCATER V4.16a           02/05/2007  13:48:16  PAGE 14


  C:23D1H         SYMBOL        READ
  C:078CH         SYMBOL        READYACP
  C:23B9H         SYMBOL        READ_X2
  C:06EFH         SYMBOL        REBYTE
  C:046CH         SYMBOL        REBYTE2
  D:00D1H         SYMBOL        REF0CN
  B:0098H.4       SYMBOL        REN
  C:158DH         SYMBOL        RENDKALIB
  C:2A1CH         SYMBOL        RESAR2
  C:29DAH         SYMBOL        RESAR8
  C:2AA8H         SYMBOL        RESA_HL
  D:008CH         SYMBOL        REZAM
  D:0088H         SYMBOL        REZAP
  C:0AECH         SYMBOL        REZMUL
  D:0062H         SYMBOL        REZ_A
  D:006AH         SYMBOL        REZ_A0
  D:0066H         SYMBOL        REZ_A1
  D:007BH         SYMBOL        REZ_A2
  D:009CH         SYMBOL        REZ_A3
  D:00A4H         SYMBOL        REZ_AK
  D:005EH         SYMBOL        REZ_AME
  D:00C5H         SYMBOL        REZ_DEL
  D:00C9H         SYMBOL        REZ_R
  C:1999H         SYMBOL        RGOTO7
  C:1631H         SYMBOL        RHNOR11
  C:15F8H         SYMBOL        RHNOT1
  B:0098H.0       SYMBOL        RI
  C:1353H         SYMBOL        RI21_23
  C:134DH         SYMBOL        RI6
  C:1423H         SYMBOL        RIGBLO
  C:1461H         SYMBOL        RIGBLOK
  C:1178H         SYMBOL        RIGHT2
  C:117CH         SYMBOL        RIGHT3
  C:12D8H         SYMBOL        RIKN
  C:10E5H         SYMBOL        RIZMAN
  C:136DH         SYMBOL        RI_31
  C:14D9H         SYMBOL        RKNLEFT
  C:14CAH         SYMBOL        RKNMEM
  C:14D6H         SYMBOL        RKNNUL
  C:10E2H         SYMBOL        RKNOPT
  C:10DFH         SYMBOL        RKNRAZR
  C:1778H         SYMBOL        RKVVOD0
  C:10DCH         SYMBOL        RLABELF
  C:14D3H         SYMBOL        RLABELH
  C:15FEH         SYMBOL        RLABELI
  C:15FBH         SYMBOL        RLABELK
  C:132FH         SYMBOL        RLABELL
  C:1496H         SYMBOL        RLABELL1
  C:139DH         SYMBOL        RLABELN
  C:1C26H         SYMBOL        RLABELP
  C:1D31H         SYMBOL        RLABELS13
  C:1D2EH         SYMBOL        RLABELS4
  C:17DEH         SYMBOL        RLABL2
  C:17E1H         SYMBOL        RLABM
  C:1A2AH         SYMBOL        RLEFCUR
  C:271EH         SYMBOL        RLER
  C:1AB8H         SYMBOL        RLIST_43
  C:08DDH         SYMBOL        RMAS4
  C:1A88H         SYMBOL        RME21_23
  C:0ACEH         SYMBOL        RMO220
  C:13A3H         SYMBOL        RNNMEMB
  C:0E43H         SYMBOL        RNO3PARN
  C:0C1CH         SYMBOL        RNOCHI0
  C:1655H         SYMBOL        RNOH37
  C:1738H         SYMBOL        RNOMEMK
BL51 BANKED LINKER/LOCATER V4.16a           02/05/2007  13:48:16  PAGE 15


  C:0E41H         SYMBOL        RNORVICH
  C:0F18H         SYMBOL        RNOT1IN
  C:0AE4H         SYMBOL        RNOTESTIZM
  C:10D9H         SYMBOL        ROUT6
  C:14D0H         SYMBOL        ROUT7
  C:1652H         SYMBOL        ROUTF
  N:0000H         SYMBOL        RR0
  N:0001H         SYMBOL        RR1
  N:0002H         SYMBOL        RR2
  N:0003H         SYMBOL        RR3
  N:0004H         SYMBOL        RR4
  N:0005H         SYMBOL        RR5
  N:0006H         SYMBOL        RR6
  N:0007H         SYMBOL        RR7
  C:272BH         SYMBOL        RRIR
  C:0C19H         SYMBOL        RRMO220
  B:00D0H.3       SYMBOL        RS0
  B:00D0H.4       SYMBOL        RS1
  C:0DDDH         SYMBOL        RSEEIND
  D:00EFH         SYMBOL        RSTSRC
  C:1245H         SYMBOL        RTIZMRI
  C:1633H         SYMBOL        RVVIZKO
  B:00F8H.4       SYMBOL        RXOVRN
  D:00A9H         SYMBOL        SADDR0
  D:00F3H         SYMBOL        SADDR1
  D:00B9H         SYMBOL        SADEN0
  D:00AEH         SYMBOL        SADEN1
  D:0036H         SYMBOL        SAUS
  D:003CH         SYMBOL        SAVBA
  C:295EH         SYMBOL        SAVEIR2
  C:04A7H         SYMBOL        SAVELTE
  D:00D3H         SYMBOL        SAVEN_BL
  C:296AH         SYMBOL        SAVER2
  C:2A91H         SYMBOL        SAVE_HL
  D:0099H         SYMBOL        SBUF0
  D:00F2H         SYMBOL        SBUF1
  D:0098H         SYMBOL        SCON0
  D:00F1H         SYMBOL        SCON1
  C:237BH         SYMBOL        SDV
  C:238FH         SYMBOL        SDV1
  C:076DH         SYMBOL        SDVIG0
  C:0762H         SYMBOL        SDVIG1
  C:0757H         SYMBOL        SDVIG2
  C:074BH         SYMBOL        SDVIG3
  C:077CH         SYMBOL        SDVIG4
  C:0786H         SYMBOL        SDVIG6
  C:0784H         SYMBOL        SDVM
  C:0E48H         SYMBOL        SEEGOON
  C:0E56H         SYMBOL        SEEIND
  C:1B78H         SYMBOL        SEE_L43
  B:00C0H.3       SYMBOL        SI
  N:0007H         SYMBOL        SIGN
  C:1C6BH         SYMBOL        SKOR19
  B:00F8H.2       SYMBOL        SLVSEL
  B:0098H.7       SYMBOL        SM0
  B:0098H.6       SYMBOL        SM1
  B:0098H.5       SYMBOL        SM2
  D:00C3H         SYMBOL        SMB0ADR
  D:00C0H         SYMBOL        SMB0CN
  D:00CFH         SYMBOL        SMB0CR
  D:00C2H         SYMBOL        SMB0DAT
  D:00C1H         SYMBOL        SMB0STA
  B:00C0H.1       SYMBOL        SMBFTE
  B:00C0H.0       SYMBOL        SMBTOE
  C:16C2H         SYMBOL        SOOTV
BL51 BANKED LINKER/LOCATER V4.16a           02/05/2007  13:48:16  PAGE 16


  D:0081H         SYMBOL        SP
  D:009AH         SYMBOL        SPI0CFG
  D:009DH         SYMBOL        SPI0CKR
  D:00F8H         SYMBOL        SPI0CN
  D:009BH         SYMBOL        SPI0DAT
  B:00F8H.0       SYMBOL        SPIEN
  B:00F8H.7       SYMBOL        SPIF
  C:1D09H         SYMBOL        SPWRI
  C:24ABH         SYMBOL        SS1
  B:00C0H.5       SYMBOL        STA
  B:00C0H.4       SYMBOL        STO
  D:00B3H         SYMBOL        SUMMA
  C:07D8H         SYMBOL        SUMT2
  D:00C8H         SYMBOL        T2CON
  D:00C9H         SYMBOL        T4CON
  C:263FH         SYMBOL        TABB1_2
  C:26D7H         SYMBOL        TABN
  C:2469H         SYMBOL        TABT11
  C:246DH         SYMBOL        TABT7
  C:246BH         SYMBOL        TABT9
  C:2455H         SYMBOL        TABUS
  C:0E96H         SYMBOL        TAKTIND
  B:0098H.3       SYMBOL        TB8
  B:00C8H.4       SYMBOL        TCLK
  D:0088H         SYMBOL        TCON
  C:26CAH         SYMBOL        TE22
  C:26D2H         SYMBOL        TE23
  C:27ECH         SYMBOL        TEAEQU0
  C:2828H         SYMBOL        TEAVK
  C:27F6H         SYMBOL        TEBEQU0
  C:28DCH         SYMBOL        TEBL
  C:28E6H         SYMBOL        TEBL0
  C:28F0H         SYMBOL        TECH
  C:28A1H         SYMBOL        TECLE
  C:2940H         SYMBOL        TEEND
  C:2936H         SYMBOL        TEERR
  C:28C8H         SYMBOL        TEFULL
  C:28D2H         SYMBOL        TEINT
  C:2883H         SYMBOL        TEIZMK
  C:2832H         SYMBOL        TEKALIB
  C:2879H         SYMBOL        TEKD
  C:28BDH         SYMBOL        TELIST
  C:290EH         SYMBOL        TEMAX
  C:28ABH         SYMBOL        TEMEM
  C:2800H         SYMBOL        TEMENU
  C:2918H         SYMBOL        TEMID
  C:2904H         SYMBOL        TEMIN
  C:0BCBH         SYMBOL        TEMUL
  C:2541H         SYMBOL        TENMIN
  C:2922H         SYMBOL        TEOLI
  C:2897H         SYMBOL        TEOLL
  C:292CH         SYMBOL        TEOLR
  C:288DH         SYMBOL        TEOUT
  C:286FH         SYMBOL        TEPAR
  C:2865H         SYMBOL        TES19_2
  C:285BH         SYMBOL        TES57_6
  C:281EH         SYMBOL        TESKOR
  C:2316H         SYMBOL        TEST01
  C:2345H         SYMBOL        TEST02
  C:2326H         SYMBOL        TEST04
  C:230CH         SYMBOL        TEST1
  C:233EH         SYMBOL        TEST2
  C:1CDEH         SYMBOL        TEST22
  C:1CE3H         SYMBOL        TEST23
  C:2330H         SYMBOL        TEST3
BL51 BANKED LINKER/LOCATER V4.16a           02/05/2007  13:48:16  PAGE 17


  C:231EH         SYMBOL        TEST4
  C:2348H         SYMBOL        TEST5
  C:0EAEH         SYMBOL        TEST7I
  C:0EA7H         SYMBOL        TEST9I
  C:28FAH         SYMBOL        TESTAT
  C:230AH         SYMBOL        TESTRS
  C:1CD2H         SYMBOL        TESTS
  C:283DH         SYMBOL        TETE11
  C:2851H         SYMBOL        TETE7
  C:2847H         SYMBOL        TETE9
  C:280AH         SYMBOL        TETESI
  C:2814H         SYMBOL        TETESR
  C:27E2H         SYMBOL        TEVICH
  C:28B3H         SYMBOL        TEWR
  C:27A6H         SYMBOL        TEXTT
  B:0088H.5       SYMBOL        TF0
  B:0088H.7       SYMBOL        TF1
  B:00C8H.7       SYMBOL        TF2
  D:008CH         SYMBOL        TH0
  D:008DH         SYMBOL        TH1
  D:00CDH         SYMBOL        TH2
  D:00F5H         SYMBOL        TH4
  B:0098H.1       SYMBOL        TI
  C:239FH         SYMBOL        TIM
  C:23A1H         SYMBOL        TIM1
  C:23A4H         SYMBOL        TIM2
  C:23A6H         SYMBOL        TIM3
  C:1171H         SYMBOL        TIZMRI
  D:008AH         SYMBOL        TL0
  D:008BH         SYMBOL        TL1
  D:00CCH         SYMBOL        TL2
  D:00F4H         SYMBOL        TL4
  C:16BFH         SYMBOL        TLABELI
  D:0089H         SYMBOL        TMOD
  D:00CBH         SYMBOL        TMR2RLH
  D:00CAH         SYMBOL        TMR2RLL
  D:0091H         SYMBOL        TMR3CN
  D:0095H         SYMBOL        TMR3H
  D:0094H         SYMBOL        TMR3L
  D:0093H         SYMBOL        TMR3RLH
  D:0092H         SYMBOL        TMR3RLL
  C:1C4FH         SYMBOL        TOME13
  C:1C76H         SYMBOL        TOME14
  C:1C8EH         SYMBOL        TOME15
  C:1C46H         SYMBOL        TOME21
  C:1DD8H         SYMBOL        TOSK19
  C:163CH         SYMBOL        TOUTF
  B:0088H.4       SYMBOL        TR0
  B:0088H.6       SYMBOL        TR1
  B:00C8H.2       SYMBOL        TR2
  B:00F8H.3       SYMBOL        TXBSY
  C:009EH         SYMBOL        UNPACK1
  C:00BAH         SYMBOL        UNPACK2
  C:0138H         SYMBOL        UP1
  C:014BH         SYMBOL        UP2
  C:0161H         SYMBOL        UP2A
  C:2570H         SYMBOL        UPA
  C:2580H         SYMBOL        UPA1
  C:2560H         SYMBOL        UPA2
  C:2A69H         SYMBOL        UPAA
  C:25CBH         SYMBOL        UPAA4
  C:25DBH         SYMBOL        UPAB
  C:256AH         SYMBOL        UPAK
  C:2A43H         SYMBOL        UPAK1
  C:255AH         SYMBOL        UPAK2
BL51 BANKED LINKER/LOCATER V4.16a           02/05/2007  13:48:16  PAGE 18


  C:257AH         SYMBOL        UPAK3
  C:2A63H         SYMBOL        UPAK4
  C:25C5H         SYMBOL        UPAKA
  C:25D5H         SYMBOL        UPAKB
  C:1D50H         SYMBOL        UPAV1
  C:1E07H         SYMBOL        UPAV2
  C:2A55H         SYMBOL        UPK1
  C:2A56H         SYMBOL        UPK2
  C:2269H         SYMBOL        VICHMAX
  C:20ADH         SYMBOL        VICHMEAN
  C:2190H         SYMBOL        VICHMIN
  D:00B1H         SYMBOL        VICHR
  C:0F04H         SYMBOL        VIG0
  C:0F12H         SYMBOL        VIG4
  C:121FH         SYMBOL        VIOUT
  C:1635H         SYMBOL        VIOUTF
  C:1A4DH         SYMBOL        VODM11_15
  D:00D5H         SYMBOL        VOLUME
  C:1CC9H         SYMBOL        VV21_23
  C:26F9H         SYMBOL        VVCHIBL
  C:26FBH         SYMBOL        VVCHIBL4
  C:26E9H         SYMBOL        VVCHIF
  C:19C4H         SYMBOL        VVINTE
  C:168CH         SYMBOL        VVIZKO
  C:1DFAH         SYMBOL        VVKALI52
  C:1DB0H         SYMBOL        VVMENU
  C:1BA7H         SYMBOL        VVOD43
  C:1C29H         SYMBOL        VVODM11_15
  C:1C04H         SYMBOL        VVOSTA
  C:1C18H         SYMBOL        VVOSTAD
  C:1298H         SYMBOL        VVRR6
  B:00F8H.6       SYMBOL        WCOL
  D:00FFH         SYMBOL        WDTCN
  D:00B8H         SYMBOL        WORK
  C:2A30H         SYMBOL        WR1
  C:2A2DH         SYMBOL        WRITE
  C:23AAH         SYMBOL        WRITED_X1
  C:23A9H         SYMBOL        WRITE_X1
  C:0480H         SYMBOL        WRPAGE
  C:0483H         SYMBOL        WW5
  D:00E1H         SYMBOL        XBR0
  D:00E2H         SYMBOL        XBR1
  D:00E3H         SYMBOL        XBR2
  C:294AH         SYMBOL        XCIKLWR
  N:000CH         SYMBOL        XTEMP
  C:15D0H         SYMBOL        YBNUL
  C:2C64H         SYMBOL        YES
  C:0C26H         SYMBOL        YESAVP
  C:0F5BH         SYMBOL        YESBUF
  C:0EB0H         SYMBOL        YESIND
  C:0F59H         SYMBOL        YESPRD
  C:2444H         SYMBOL        YESTEST
  C:0FBAH         SYMBOL        YESTT5
  C:0C55H         SYMBOL        YESVICH
  C:2016H         SYMBOL        YESVI_KM
  C:1F8EH         SYMBOL        YESVI_KR
  C:0659H         SYMBOL        YST1
  C:0651H         SYMBOL        YST19
  C:24C3H         SYMBOL        Z01S
  C:24D0H         SYMBOL        Z05S
  C:2494H         SYMBOL        Z100
  C:24A2H         SYMBOL        Z15
  C:24B6H         SYMBOL        Z1S
  C:2379H         SYMBOL        ZAPADC
  C:29CCH         SYMBOL        ZCMP
BL51 BANKED LINKER/LOCATER V4.16a           02/05/2007  13:48:16  PAGE 19


  C:2999H         SYMBOL        ZDIV
  C:00B3H         SYMBOL        ZER1
  C:00D4H         SYMBOL        ZER2
  C:298FH         SYMBOL        ZMUL
  B:0020H.2       SYMBOL        ZNMAT
  C:073EH         SYMBOL        ZNPLUS
  C:24A4H         SYMBOL        ZZ
  C:24BFH         SYMBOL        Z_01S
  C:24CCH         SYMBOL        Z_05S
  C:2492H         SYMBOL        Z_100
  C:24A0H         SYMBOL        Z_15
  C:24A9H         SYMBOL        Z_1MS
  C:24B2H         SYMBOL        Z_1S
  C:249BH         SYMBOL        Z_5
  C:2A28H         SYMBOL        Z_9
  C:0000H         LINE#         15
  C:0003H         LINE#         18
  C:000BH         LINE#         20
  C:0013H         LINE#         22
  C:001BH         LINE#         24
  C:0023H         LINE#         26
  C:002BH         LINE#         28
  C:0033H         LINE#         30
  C:003BH         LINE#         32
  C:0043H         LINE#         34
  C:004BH         LINE#         36
  C:0053H         LINE#         38
  C:005BH         LINE#         41
  C:0063H         LINE#         43
  C:006BH         LINE#         45
  C:0073H         LINE#         47
  C:0093H         LINE#         49
  C:009BH         LINE#         52
  C:05C9H         LINE#         219
  C:05CCH         LINE#         220
  C:05CFH         LINE#         221
  C:05D2H         LINE#         222
  C:05D5H         LINE#         223
  C:05D8H         LINE#         224
  C:05DBH         LINE#         226
  C:05DEH         LINE#         227
  C:05E1H         LINE#         228
  C:05E4H         LINE#         230
  C:05E7H         LINE#         231
  C:05EAH         LINE#         232
  C:05EDH         LINE#         233
  C:05F0H         LINE#         234
  C:05F3H         LINE#         235
  C:05F6H         LINE#         236
  C:05F9H         LINE#         237
  C:05FCH         LINE#         238
  C:05FFH         LINE#         239
  C:0602H         LINE#         240
  C:0605H         LINE#         242
  C:0608H         LINE#         243
  C:060BH         LINE#         244
  C:060EH         LINE#         248
  C:0610H         LINE#         249
  C:0613H         LINE#         251
  C:0616H         LINE#         252
  C:0619H         LINE#         253
  C:061CH         LINE#         255
  C:061EH         LINE#         256
  C:0620H         LINE#         258
  C:0623H         LINE#         261
BL51 BANKED LINKER/LOCATER V4.16a           02/05/2007  13:48:16  PAGE 20


  C:0626H         LINE#         262
  C:0629H         LINE#         263
  C:062CH         LINE#         264
  C:062FH         LINE#         266
  C:0632H         LINE#         267
  C:0635H         LINE#         268
  C:0638H         LINE#         269
  C:063BH         LINE#         270
  C:063EH         LINE#         271
  C:0640H         LINE#         272
  C:0642H         LINE#         273
  C:0645H         LINE#         274
  C:0647H         LINE#         275
  C:064AH         LINE#         276
  C:064CH         LINE#         277
  C:064FH         LINE#         278
  C:0651H         LINE#         279
  C:0654H         LINE#         280
  C:0656H         LINE#         281
  C:0659H         LINE#         283
  C:065CH         LINE#         284
  C:065FH         LINE#         286
  C:0660H         LINE#         287
  C:0662H         LINE#         288
  C:0663H         LINE#         289
  C:0664H         LINE#         290
  C:0667H         LINE#         291
  C:0669H         LINE#         292
  C:066AH         LINE#         293
  C:066BH         LINE#         294
  C:066CH         LINE#         295
  C:066FH         LINE#         296
  C:0672H         LINE#         298
  C:0675H         LINE#         299
  C:0676H         LINE#         300
  C:0677H         LINE#         301
  C:0678H         LINE#         302
  C:067AH         LINE#         303
  C:067DH         LINE#         305
  C:067FH         LINE#         306
  C:0681H         LINE#         307
  C:0682H         LINE#         308
  C:0684H         LINE#         310
  C:0686H         LINE#         311
  C:0688H         LINE#         312
  C:0689H         LINE#         313
  C:068BH         LINE#         315
  C:068DH         LINE#         316
  C:068FH         LINE#         320
  C:0691H         LINE#         321
  C:0693H         LINE#         322
  C:0695H         LINE#         323
  C:0697H         LINE#         324
  C:0699H         LINE#         325
  C:069BH         LINE#         326
  C:069DH         LINE#         327
  C:069FH         LINE#         328
  C:06A1H         LINE#         329
  C:06A3H         LINE#         330
  C:06A5H         LINE#         332
  C:06A7H         LINE#         333
  C:06A9H         LINE#         335
  C:06ACH         LINE#         336
  C:06AFH         LINE#         337
  C:06B1H         LINE#         338
BL51 BANKED LINKER/LOCATER V4.16a           02/05/2007  13:48:16  PAGE 21


  C:06B4H         LINE#         339
  C:06B6H         LINE#         340
  C:06B9H         LINE#         341
  C:06BBH         LINE#         342
  C:06BEH         LINE#         343
  C:06C0H         LINE#         344
  C:06C3H         LINE#         351
  C:06C5H         LINE#         353
  C:06C7H         LINE#         354
  C:06C8H         LINE#         355
  C:06CBH         LINE#         356
  C:06CEH         LINE#         357
  C:06D1H         LINE#         360
  C:06D3H         LINE#         361
  C:06D5H         LINE#         362
  C:06D6H         LINE#         363
  C:06D9H         LINE#         364
  C:06DCH         LINE#         365
  C:06DFH         LINE#         368
  C:06E2H         LINE#         369
  C:06E5H         LINE#         371
  C:06E7H         LINE#         372
  C:06E9H         LINE#         373
  C:06ECH         LINE#         374
  C:06EFH         LINE#         376
  C:06F1H         LINE#         377
  C:06F4H         LINE#         378
  C:06F7H         LINE#         388
  C:06F9H         LINE#         389
  C:06FCH         LINE#         391
  C:06FFH         LINE#         392
  C:0701H         LINE#         393
  C:0704H         LINE#         394
  C:0706H         LINE#         395
  C:0709H         LINE#         396
  C:070BH         LINE#         398
  C:070DH         LINE#         399
  C:070EH         LINE#         400
  C:0711H         LINE#         401
  C:0713H         LINE#         402
  C:0715H         LINE#         403
  C:0716H         LINE#         405
  C:0717H         LINE#         406
  C:0719H         LINE#         407
  C:071BH         LINE#         410
  C:071EH         LINE#         411
  C:0721H         LINE#         412
  C:0723H         LINE#         413
  C:0726H         LINE#         414
  C:0728H         LINE#         419
  C:072AH         LINE#         420
  C:072DH         LINE#         421
  C:0730H         LINE#         424
  C:0733H         LINE#         425
  C:0736H         LINE#         426
  C:0739H         LINE#         427
  C:073CH         LINE#         428
  C:073EH         LINE#         430
  C:0740H         LINE#         431
  C:0742H         LINE#         432
  C:0743H         LINE#         433
  C:0744H         LINE#         434
  C:0746H         LINE#         438
  C:0748H         LINE#         439
  C:0749H         LINE#         440
BL51 BANKED LINKER/LOCATER V4.16a           02/05/2007  13:48:16  PAGE 22


  C:074BH         LINE#         441
  C:074CH         LINE#         442
  C:074DH         LINE#         443
  C:074FH         LINE#         444
  C:0750H         LINE#         445
  C:0751H         LINE#         446
  C:0752H         LINE#         447
  C:0754H         LINE#         448
  C:0755H         LINE#         449
  C:0757H         LINE#         450
  C:0758H         LINE#         451
  C:0759H         LINE#         452
  C:075BH         LINE#         453
  C:075CH         LINE#         454
  C:075EH         LINE#         455
  C:0760H         LINE#         457
  C:0762H         LINE#         458
  C:0763H         LINE#         459
  C:0764H         LINE#         460
  C:0766H         LINE#         461
  C:0767H         LINE#         462
  C:0769H         LINE#         463
  C:076BH         LINE#         465
  C:076DH         LINE#         466
  C:076EH         LINE#         467
  C:076FH         LINE#         468
  C:0771H         LINE#         469
  C:0772H         LINE#         470
  C:0774H         LINE#         471
  C:0776H         LINE#         473
  C:0779H         LINE#         474
  C:077AH         LINE#         475
  C:077CH         LINE#         476
  C:077DH         LINE#         477
  C:077EH         LINE#         478
  C:0780H         LINE#         479
  C:0782H         LINE#         480
  C:0784H         LINE#         482
  C:0786H         LINE#         483
  C:0787H         LINE#         484
  C:0788H         LINE#         485
  C:078AH         LINE#         486
  C:078CH         LINE#         491
  C:078EH         LINE#         492
  C:078FH         LINE#         493
  C:0792H         LINE#         494
  C:0794H         LINE#         497
  C:0796H         LINE#         498
  C:0798H         LINE#         499
  C:079BH         LINE#         501
  C:079DH         LINE#         502
  C:07A0H         LINE#         503
  C:07A2H         LINE#         504
  C:07A5H         LINE#         505
  C:07A7H         LINE#         506
  C:07AAH         LINE#         507
  C:07ACH         LINE#         508
  C:07AEH         LINE#         509
  C:07B0H         LINE#         510
  C:07B3H         LINE#         512
  C:07B6H         LINE#         513
  C:07B9H         LINE#         514
  C:07BCH         LINE#         515
  C:07BEH         LINE#         516
  C:07C1H         LINE#         517
BL51 BANKED LINKER/LOCATER V4.16a           02/05/2007  13:48:16  PAGE 23


  C:07C3H         LINE#         518
  C:07C6H         LINE#         520
  C:07C8H         LINE#         521
  C:07CBH         LINE#         523
  C:07CDH         LINE#         524
  C:07CFH         LINE#         525
  C:07D1H         LINE#         526
  C:07D2H         LINE#         527
  C:07D5H         LINE#         533
  C:07D8H         LINE#         536
  C:07DAH         LINE#         537
  C:07DDH         LINE#         538
  C:07DFH         LINE#         539
  C:07E2H         LINE#         540
  C:07E4H         LINE#         541
  C:07E7H         LINE#         542
  C:07E9H         LINE#         543
  C:07EBH         LINE#         544
  C:07EDH         LINE#         545
  C:07F0H         LINE#         547
  C:07F3H         LINE#         548
  C:07F5H         LINE#         552
  C:07F8H         LINE#         554
  C:07FAH         LINE#         555
  C:07FDH         LINE#         556
  C:07FFH         LINE#         557
  C:0802H         LINE#         558
  C:0804H         LINE#         559
  C:0807H         LINE#         560
  C:0809H         LINE#         561
  C:080BH         LINE#         562
  C:080DH         LINE#         563
  C:0810H         LINE#         565
  C:0813H         LINE#         566
  C:0815H         LINE#         568
  C:0818H         LINE#         570
  C:081AH         LINE#         571
  C:081DH         LINE#         572
  C:081FH         LINE#         573
  C:0822H         LINE#         574
  C:0824H         LINE#         575
  C:0827H         LINE#         576
  C:0829H         LINE#         577
  C:082BH         LINE#         578
  C:082DH         LINE#         579
  C:0830H         LINE#         581
  C:0833H         LINE#         582
  C:0835H         LINE#         585
  C:0837H         LINE#         586
  C:0839H         LINE#         587
  C:083CH         LINE#         588
  C:083EH         LINE#         589
  C:0841H         LINE#         593
  C:0843H         LINE#         594
  C:0846H         LINE#         595
  C:0849H         LINE#         596
  C:084CH         LINE#         598
  C:084EH         LINE#         599
  C:0851H         LINE#         600
  C:0854H         LINE#         601
  C:0857H         LINE#         603
  C:085AH         LINE#         604
  C:085DH         LINE#         605
  C:0860H         LINE#         607
  C:0863H         LINE#         608
BL51 BANKED LINKER/LOCATER V4.16a           02/05/2007  13:48:16  PAGE 24


  C:0866H         LINE#         609
  C:0869H         LINE#         610
  C:086CH         LINE#         611
  C:086FH         LINE#         612
  C:0872H         LINE#         613
  C:0875H         LINE#         614
  C:0878H         LINE#         616
  C:087BH         LINE#         617
  C:087EH         LINE#         619
  C:0881H         LINE#         620
  C:0884H         LINE#         622
  C:0887H         LINE#         623
  C:088AH         LINE#         625
  C:088DH         LINE#         626
  C:0890H         LINE#         628
  C:0893H         LINE#         629
  C:0896H         LINE#         631
  C:0899H         LINE#         634
  C:089BH         LINE#         635
  C:089EH         LINE#         637
  C:08A1H         LINE#         638
  C:08A4H         LINE#         640
  C:08A7H         LINE#         641
  C:08AAH         LINE#         642
  C:08ADH         LINE#         643
  C:08B0H         LINE#         644
  C:08B3H         LINE#         645
  C:08B6H         LINE#         646
  C:08B9H         LINE#         647
  C:08BCH         LINE#         648
  C:08BFH         LINE#         649
  C:08C2H         LINE#         650
  C:08C5H         LINE#         651
  C:08C8H         LINE#         652
  C:08CBH         LINE#         653
  C:08CEH         LINE#         654
  C:08D1H         LINE#         655
  C:08D4H         LINE#         656
  C:08D7H         LINE#         657
  C:08DAH         LINE#         658
  C:08DDH         LINE#         660
  C:08E0H         LINE#         662
  C:08E3H         LINE#         663
  C:08E6H         LINE#         664
  C:08E9H         LINE#         665
  C:08ECH         LINE#         666
  C:08EFH         LINE#         667
  C:08F2H         LINE#         668
  C:08F5H         LINE#         669
  C:08F8H         LINE#         671
  C:08FBH         LINE#         672
  C:08FEH         LINE#         674
  C:0901H         LINE#         675
  C:0904H         LINE#         677
  C:0907H         LINE#         678
  C:090AH         LINE#         680
  C:090DH         LINE#         681
  C:0910H         LINE#         683
  C:0913H         LINE#         684
  C:0916H         LINE#         686
  C:0919H         LINE#         687
  C:091CH         LINE#         688
  C:091FH         LINE#         690
  C:0922H         LINE#         691
  C:0925H         LINE#         692
BL51 BANKED LINKER/LOCATER V4.16a           02/05/2007  13:48:16  PAGE 25


  C:0928H         LINE#         693
  C:092BH         LINE#         694
  C:092EH         LINE#         695
  C:0931H         LINE#         696
  C:0934H         LINE#         698
  C:0937H         LINE#         699
  C:093AH         LINE#         701
  C:093DH         LINE#         702
  C:0940H         LINE#         704
  C:0943H         LINE#         705
  C:0946H         LINE#         707
  C:0949H         LINE#         708
  C:094CH         LINE#         710
  C:094FH         LINE#         711
  C:0952H         LINE#         713
  C:0955H         LINE#         716
  C:0957H         LINE#         717
  C:095AH         LINE#         719
  C:095DH         LINE#         720
  C:0960H         LINE#         722
  C:0963H         LINE#         723
  C:0966H         LINE#         724
  C:0969H         LINE#         725
  C:096CH         LINE#         726
  C:096FH         LINE#         727
  C:0972H         LINE#         728
  C:0975H         LINE#         729
  C:0978H         LINE#         730
  C:097BH         LINE#         731
  C:097EH         LINE#         732
  C:0981H         LINE#         733
  C:0984H         LINE#         734
  C:0987H         LINE#         735
  C:098AH         LINE#         736
  C:098DH         LINE#         737
  C:0990H         LINE#         738
  C:0993H         LINE#         739
  C:0996H         LINE#         741
  C:0999H         LINE#         742
  C:099CH         LINE#         743
  C:099FH         LINE#         744
  C:09A2H         LINE#         745
  C:09A5H         LINE#         746
  C:09A8H         LINE#         747
  C:09ABH         LINE#         748
  C:09AEH         LINE#         749
  C:09B1H         LINE#         750
  C:09B4H         LINE#         751
  C:09B7H         LINE#         752
  C:09BAH         LINE#         753
  C:09BDH         LINE#         754
  C:09C0H         LINE#         755
  C:09C3H         LINE#         756
  C:09C6H         LINE#         757
  C:09C9H         LINE#         758
  C:09CCH         LINE#         759
  C:09CFH         LINE#         760
  C:09D2H         LINE#         761
  C:09D4H         LINE#         764
  C:09D7H         LINE#         765
  C:09DAH         LINE#         766
  C:09DDH         LINE#         767
  C:09E0H         LINE#         768
  C:09E3H         LINE#         769
  C:09E6H         LINE#         772
BL51 BANKED LINKER/LOCATER V4.16a           02/05/2007  13:48:16  PAGE 26


  C:09E8H         LINE#         773
  C:09EBH         LINE#         775
  C:09EEH         LINE#         776
  C:09F1H         LINE#         778
  C:09F4H         LINE#         779
  C:09F7H         LINE#         780
  C:09FAH         LINE#         781
  C:09FDH         LINE#         782
  C:0A00H         LINE#         783
  C:0A03H         LINE#         787
  C:0A05H         LINE#         788
  C:0A06H         LINE#         789
  C:0A07H         LINE#         790
  C:0A0AH         LINE#         792
  C:0A0DH         LINE#         793
  C:0A0FH         LINE#         794
  C:0A12H         LINE#         795
  C:0A14H         LINE#         796
  C:0A15H         LINE#         798
  C:0A18H         LINE#         799
  C:0A1BH         LINE#         800
  C:0A1EH         LINE#         801
  C:0A20H         LINE#         803
  C:0A23H         LINE#         804
  C:0A26H         LINE#         805
  C:0A29H         LINE#         806
  C:0A2BH         LINE#         808
  C:0A2EH         LINE#         809
  C:0A31H         LINE#         810
  C:0A34H         LINE#         811
  C:0A36H         LINE#         813
  C:0A39H         LINE#         814
  C:0A3CH         LINE#         815
  C:0A3EH         LINE#         817
  C:0A41H         LINE#         818
  C:0A42H         LINE#         819
  C:0A44H         LINE#         820
  C:0A46H         LINE#         821
  C:0A48H         LINE#         824
  C:0A4BH         LINE#         831
  C:0A4DH         LINE#         832
  C:0A50H         LINE#         836
  C:0A51H         LINE#         837
  C:0A53H         LINE#         838
  C:0A55H         LINE#         839
  C:0A56H         LINE#         840
  C:0A58H         LINE#         842
  C:0A5BH         LINE#         843
  C:0A5DH         LINE#         844
  C:0A60H         LINE#         846
  C:0A62H         LINE#         847
  C:0A63H         LINE#         848
  C:0A66H         LINE#         849
  C:0A68H         LINE#         850
  C:0A6BH         LINE#         851
  C:0A6EH         LINE#         852
  C:0A70H         LINE#         853
  C:0A73H         LINE#         854
  C:0A75H         LINE#         857
  C:0A77H         LINE#         858
  C:0A78H         LINE#         859
  C:0A7BH         LINE#         861
  C:0A7EH         LINE#         865
  C:0A80H         LINE#         866
  C:0A81H         LINE#         867
BL51 BANKED LINKER/LOCATER V4.16a           02/05/2007  13:48:16  PAGE 27


  C:0A84H         LINE#         868
  C:0A87H         LINE#         869
  C:0A8AH         LINE#         870
  C:0A8CH         LINE#         871
  C:0A8FH         LINE#         872
  C:0A91H         LINE#         874
  C:0A94H         LINE#         876
  C:0A96H         LINE#         878
  C:0A97H         LINE#         879
  C:0A99H         LINE#         880
  C:0A9BH         LINE#         881
  C:0A9CH         LINE#         882
  C:0A9EH         LINE#         893
  C:0AA0H         LINE#         894
  C:0AA3H         LINE#         896
  C:0AA6H         LINE#         897
  C:0AA8H         LINE#         898
  C:0AABH         LINE#         899
  C:0AADH         LINE#         900
  C:0AB0H         LINE#         901
  C:0AB3H         LINE#         902
  C:0AB5H         LINE#         903
  C:0AB8H         LINE#         904
  C:0ABBH         LINE#         906
  C:0ABDH         LINE#         907
  C:0ABEH         LINE#         908
  C:0AC0H         LINE#         909
  C:0AC2H         LINE#         910
  C:0AC4H         LINE#         911
  C:0AC7H         LINE#         912
  C:0AC9H         LINE#         913
  C:0ACCH         LINE#         914
  C:0ACEH         LINE#         916
  C:0AD1H         LINE#         918
  C:0AD3H         LINE#         919
  C:0AD6H         LINE#         921
  C:0AD8H         LINE#         922
  C:0AD9H         LINE#         923
  C:0ADBH         LINE#         924
  C:0ADDH         LINE#         926
  C:0ADFH         LINE#         927
  C:0AE2H         LINE#         928
  C:0AE4H         LINE#         930
  C:0AE7H         LINE#         931
  C:0AE9H         LINE#         932
  C:0AECH         LINE#         938
  C:0AEEH         LINE#         939
  C:0AF1H         LINE#         940
  C:0AF4H         LINE#         941
  C:0AF6H         LINE#         942
  C:0AF9H         LINE#         943
  C:0AFCH         LINE#         944
  C:0AFEH         LINE#         945
  C:0AFFH         LINE#         946
  C:0B02H         LINE#         949
  C:0B04H         LINE#         950
  C:0B07H         LINE#         951
  C:0B0AH         LINE#         952
  C:0B0CH         LINE#         953
  C:0B0FH         LINE#         957
  C:0B10H         LINE#         958
  C:0B12H         LINE#         959
  C:0B13H         LINE#         960
  C:0B16H         LINE#         961
  C:0B19H         LINE#         962
BL51 BANKED LINKER/LOCATER V4.16a           02/05/2007  13:48:16  PAGE 28


  C:0B1CH         LINE#         963
  C:0B1EH         LINE#         965
  C:0B21H         LINE#         966
  C:0B23H         LINE#         967
  C:0B26H         LINE#         968
  C:0B28H         LINE#         969
  C:0B2AH         LINE#         970
  C:0B2DH         LINE#         971
  C:0B30H         LINE#         972
  C:0B32H         LINE#         973
  C:0B34H         LINE#         974
  C:0B36H         LINE#         975
  C:0B38H         LINE#         976
  C:0B3AH         LINE#         977
  C:0B3CH         LINE#         978
  C:0B3FH         LINE#         979
  C:0B42H         LINE#         980
  C:0B45H         LINE#         981
  C:0B47H         LINE#         982
  C:0B49H         LINE#         983
  C:0B4BH         LINE#         984
  C:0B4DH         LINE#         985
  C:0B50H         LINE#         990
  C:0B52H         LINE#         991
  C:0B54H         LINE#         992
  C:0B56H         LINE#         993
  C:0B58H         LINE#         994
  C:0B5AH         LINE#         995
  C:0B5CH         LINE#         996
  C:0B5FH         LINE#         997
  C:0B62H         LINE#         998
  C:0B65H         LINE#         999
  C:0B67H         LINE#         1000
  C:0B69H         LINE#         1001
  C:0B6BH         LINE#         1002
  C:0B6DH         LINE#         1003
  C:0B70H         LINE#         1004
  C:0B73H         LINE#         1005
  C:0B76H         LINE#         1006
  C:0B79H         LINE#         1008
  C:0B7BH         LINE#         1009
  C:0B7EH         LINE#         1010
  C:0B80H         LINE#         1011
  C:0B82H         LINE#         1012
  C:0B85H         LINE#         1013
  C:0B88H         LINE#         1014
  C:0B8AH         LINE#         1015
  C:0B8CH         LINE#         1016
  C:0B8EH         LINE#         1017
  C:0B90H         LINE#         1018
  C:0B92H         LINE#         1019
  C:0B94H         LINE#         1020
  C:0B96H         LINE#         1021
  C:0B98H         LINE#         1022
  C:0B9AH         LINE#         1023
  C:0B9DH         LINE#         1024
  C:0BA0H         LINE#         1025
  C:0BA2H         LINE#         1026
  C:0BA4H         LINE#         1027
  C:0BA6H         LINE#         1028
  C:0BA8H         LINE#         1029
  C:0BAAH         LINE#         1030
  C:0BACH         LINE#         1031
  C:0BAEH         LINE#         1034
  C:0BB1H         LINE#         1035
BL51 BANKED LINKER/LOCATER V4.16a           02/05/2007  13:48:16  PAGE 29


  C:0BB4H         LINE#         1036
  C:0BB7H         LINE#         1037
  C:0BB9H         LINE#         1038
  C:0BBCH         LINE#         1039
  C:0BBFH         LINE#         1041
  C:0BC2H         LINE#         1042
  C:0BC5H         LINE#         1043
  C:0BC8H         LINE#         1044
  C:0BCBH         LINE#         1045
  C:0BCEH         LINE#         1046
  C:0BD0H         LINE#         1047
  C:0BD3H         LINE#         1049
  C:0BD6H         LINE#         1051
  C:0BD9H         LINE#         1052
  C:0BDBH         LINE#         1053
  C:0BDEH         LINE#         1054
  C:0BE1H         LINE#         1055
  C:0BE4H         LINE#         1056
  C:0BE7H         LINE#         1057
  C:0BEAH         LINE#         1058
  C:0BECH         LINE#         1061
  C:0BEFH         LINE#         1062
  C:0BF2H         LINE#         1063
  C:0BF4H         LINE#         1064
  C:0BF7H         LINE#         1067
  C:0BF9H         LINE#         1068
  C:0BFCH         LINE#         1069
  C:0BFEH         LINE#         1070
  C:0C01H         LINE#         1072
  C:0C03H         LINE#         1073
  C:0C06H         LINE#         1074
  C:0C09H         LINE#         1075
  C:0C0BH         LINE#         1076
  C:0C0EH         LINE#         1078
  C:0C11H         LINE#         1080
  C:0C13H         LINE#         1081
  C:0C16H         LINE#         1082
  C:0C19H         LINE#         1084
  C:0C1CH         LINE#         1085
  C:0C1FH         LINE#         1086
  C:0C21H         LINE#         1087
  C:0C24H         LINE#         1088
  C:0C26H         LINE#         1090
  C:0C27H         LINE#         1091
  C:0C29H         LINE#         1092
  C:0C2AH         LINE#         1093
  C:0C2DH         LINE#         1094
  C:0C30H         LINE#         1095
  C:0C33H         LINE#         1096
  C:0C35H         LINE#         1097
  C:0C37H         LINE#         1098
  C:0C3AH         LINE#         1099
  C:0C3CH         LINE#         1101
  C:0C3DH         LINE#         1102
  C:0C40H         LINE#         1103
  C:0C41H         LINE#         1105
  C:0C44H         LINE#         1107
  C:0C47H         LINE#         1108
  C:0C49H         LINE#         1109
  C:0C4CH         LINE#         1110
  C:0C4EH         LINE#         1111
  C:0C51H         LINE#         1112
  C:0C53H         LINE#         1113
  C:0C55H         LINE#         1119
  C:0C57H         LINE#         1120
BL51 BANKED LINKER/LOCATER V4.16a           02/05/2007  13:48:16  PAGE 30


  C:0C5AH         LINE#         1122
  C:0C5DH         LINE#         1123
  C:0C5EH         LINE#         1124
  C:0C60H         LINE#         1125
  C:0C61H         LINE#         1128
  C:0C64H         LINE#         1129
  C:0C67H         LINE#         1130
  C:0C6AH         LINE#         1131
  C:0C6CH         LINE#         1132
  C:0C6FH         LINE#         1133
  C:0C72H         LINE#         1134
  C:0C75H         LINE#         1135
  C:0C77H         LINE#         1137
  C:0C7AH         LINE#         1138
  C:0C7CH         LINE#         1139
  C:0C7EH         LINE#         1140
  C:0C80H         LINE#         1141
  C:0C82H         LINE#         1142
  C:0C84H         LINE#         1143
  C:0C87H         LINE#         1144
  C:0C8AH         LINE#         1145
  C:0C8DH         LINE#         1146
  C:0C90H         LINE#         1147
  C:0C92H         LINE#         1148
  C:0C94H         LINE#         1149
  C:0C96H         LINE#         1150
  C:0C98H         LINE#         1151
  C:0C9BH         LINE#         1152
  C:0C9DH         LINE#         1153
  C:0CA0H         LINE#         1154
  C:0CA3H         LINE#         1156
  C:0CA5H         LINE#         1157
  C:0CA8H         LINE#         1159
  C:0CAAH         LINE#         1161
  C:0CACH         LINE#         1162
  C:0CADH         LINE#         1163
  C:0CB0H         LINE#         1165
  C:0CB2H         LINE#         1166
  C:0CB5H         LINE#         1168
  C:0CB8H         LINE#         1169
  C:0CBBH         LINE#         1170
  C:0CBEH         LINE#         1172
  C:0CC0H         LINE#         1173
  C:0CC2H         LINE#         1174
  C:0CC4H         LINE#         1175
  C:0CC6H         LINE#         1176
  C:0CC9H         LINE#         1177
  C:0CCCH         LINE#         1178
  C:0CCFH         LINE#         1179
  C:0CD1H         LINE#         1180
  C:0CD3H         LINE#         1181
  C:0CD4H         LINE#         1182
  C:0CD7H         LINE#         1183
  C:0CDAH         LINE#         1184
  C:0CDDH         LINE#         1185
  C:0CDFH         LINE#         1187
  C:0CE2H         LINE#         1188
  C:0CE5H         LINE#         1189
  C:0CE8H         LINE#         1190
  C:0CEBH         LINE#         1191
  C:0CEEH         LINE#         1192
  C:0CF1H         LINE#         1193
  C:0CF4H         LINE#         1194
  C:0CF7H         LINE#         1196
  C:0CF9H         LINE#         1197
BL51 BANKED LINKER/LOCATER V4.16a           02/05/2007  13:48:16  PAGE 31


  C:0CFCH         LINE#         1199
  C:0CFFH         LINE#         1200
  C:0D02H         LINE#         1201
  C:0D05H         LINE#         1202
  C:0D07H         LINE#         1203
  C:0D09H         LINE#         1204
  C:0D0AH         LINE#         1205
  C:0D0DH         LINE#         1206
  C:0D10H         LINE#         1207
  C:0D13H         LINE#         1208
  C:0D15H         LINE#         1212
  C:0D17H         LINE#         1213
  C:0D19H         LINE#         1214
  C:0D1CH         LINE#         1219
  C:0D1EH         LINE#         1220
  C:0D21H         LINE#         1221
  C:0D22H         LINE#         1222
  C:0D25H         LINE#         1223
  C:0D26H         LINE#         1224
  C:0D28H         LINE#         1225
  C:0D2AH         LINE#         1227
  C:0D2BH         LINE#         1228
  C:0D2DH         LINE#         1229
  C:0D2FH         LINE#         1230
  C:0D31H         LINE#         1231
  C:0D32H         LINE#         1232
  C:0D34H         LINE#         1233
  C:0D35H         LINE#         1234
  C:0D36H         LINE#         1235
  C:0D37H         LINE#         1236
  C:0D39H         LINE#         1238
  C:0D3BH         LINE#         1239
  C:0D3EH         LINE#         1240
  C:0D40H         LINE#         1241
  C:0D42H         LINE#         1243
  C:0D44H         LINE#         1244
  C:0D45H         LINE#         1245
  C:0D47H         LINE#         1246
  C:0D48H         LINE#         1247
  C:0D49H         LINE#         1248
  C:0D4AH         LINE#         1249
  C:0D4BH         LINE#         1250
  C:0D4DH         LINE#         1251
  C:0D4FH         LINE#         1252
  C:0D50H         LINE#         1253
  C:0D52H         LINE#         1254
  C:0D53H         LINE#         1255
  C:0D54H         LINE#         1256
  C:0D55H         LINE#         1257
  C:0D57H         LINE#         1259
  C:0D59H         LINE#         1260
  C:0D5CH         LINE#         1261
  C:0D5EH         LINE#         1262
  C:0D5FH         LINE#         1263
  C:0D61H         LINE#         1265
  C:0D64H         LINE#         1266
  C:0D66H         LINE#         1267
  C:0D68H         LINE#         1268
  C:0D6AH         LINE#         1269
  C:0D6CH         LINE#         1270
  C:0D6FH         LINE#         1271
  C:0D72H         LINE#         1272
  C:0D75H         LINE#         1273
  C:0D78H         LINE#         1274
  C:0D7BH         LINE#         1279
BL51 BANKED LINKER/LOCATER V4.16a           02/05/2007  13:48:16  PAGE 32


  C:0D7EH         LINE#         1280
  C:0D81H         LINE#         1281
  C:0D83H         LINE#         1282
  C:0D86H         LINE#         1284
  C:0D89H         LINE#         1285
  C:0D8CH         LINE#         1286
  C:0D8EH         LINE#         1287
  C:0D91H         LINE#         1289
  C:0D92H         LINE#         1291
  C:0D95H         LINE#         1292
  C:0D96H         LINE#         1294
  C:0D99H         LINE#         1297
  C:0D9CH         LINE#         1298
  C:0D9EH         LINE#         1299
  C:0DA1H         LINE#         1300
  C:0DA3H         LINE#         1301
  C:0DA6H         LINE#         1302
  C:0DA8H         LINE#         1303
  C:0DABH         LINE#         1305
  C:0DACH         LINE#         1306
  C:0DAFH         LINE#         1318
  C:0DB1H         LINE#         1319
  C:0DB4H         LINE#         1320
  C:0DB7H         LINE#         1321
  C:0DBAH         LINE#         1322
  C:0DBDH         LINE#         1324
  C:0DBEH         LINE#         1325
  C:0DC1H         LINE#         1326
  C:0DC3H         LINE#         1327
  C:0DC5H         LINE#         1329
  C:0DC6H         LINE#         1330
  C:0DC8H         LINE#         1331
  C:0DCAH         LINE#         1333
  C:0DCDH         LINE#         1335
  C:0DCFH         LINE#         1336
  C:0DD1H         LINE#         1337
  C:0DD4H         LINE#         1340
  C:0DD6H         LINE#         1341
  C:0DD8H         LINE#         1342
  C:0DD9H         LINE#         1343
  C:0DDBH         LINE#         1344
  C:0DDDH         LINE#         1345
  C:0DDFH         LINE#         1346
  C:0DE0H         LINE#         1347
  C:0DE2H         LINE#         1348
  C:0DE4H         LINE#         1350
  C:0DE5H         LINE#         1351
  C:0DE6H         LINE#         1352
  C:0DE8H         LINE#         1361
  C:0DEBH         LINE#         1362
  C:0DEEH         LINE#         1363
  C:0DF1H         LINE#         1365
  C:0DF4H         LINE#         1366
  C:0DF7H         LINE#         1372
  C:0DF9H         LINE#         1373
  C:0DFCH         LINE#         1375
  C:0DFFH         LINE#         1376
  C:0E01H         LINE#         1377
  C:0E04H         LINE#         1380
  C:0E06H         LINE#         1381
  C:0E08H         LINE#         1382
  C:0E0BH         LINE#         1384
  C:0E0DH         LINE#         1385
  C:0E0FH         LINE#         1386
  C:0E11H         LINE#         1387
BL51 BANKED LINKER/LOCATER V4.16a           02/05/2007  13:48:16  PAGE 33


  C:0E12H         LINE#         1388
  C:0E14H         LINE#         1389
  C:0E15H         LINE#         1390
  C:0E16H         LINE#         1391
  C:0E17H         LINE#         1392
  C:0E19H         LINE#         1393
  C:0E1BH         LINE#         1394
  C:0E1DH         LINE#         1395
  C:0E1FH         LINE#         1396
  C:0E21H         LINE#         1397
  C:0E24H         LINE#         1398
  C:0E26H         LINE#         1399
  C:0E28H         LINE#         1400
  C:0E2AH         LINE#         1401
  C:0E2BH         LINE#         1402
  C:0E2EH         LINE#         1403
  C:0E30H         LINE#         1404
  C:0E31H         LINE#         1405
  C:0E33H         LINE#         1406
  C:0E34H         LINE#         1407
  C:0E36H         LINE#         1408
  C:0E39H         LINE#         1410
  C:0E3BH         LINE#         1411
  C:0E3CH         LINE#         1412
  C:0E3EH         LINE#         1414
  C:0E3FH         LINE#         1415
  C:0E41H         LINE#         1417
  C:0E43H         LINE#         1418
  C:0E45H         LINE#         1420
  C:0E47H         LINE#         1421
  C:0E48H         LINE#         1422
  C:0E49H         LINE#         1423
  C:0E4BH         LINE#         1424
  C:0E4CH         LINE#         1425
  C:0E4EH         LINE#         1426
  C:0E4FH         LINE#         1427
  C:0E51H         LINE#         1431
  C:0E53H         LINE#         1432
  C:0E56H         LINE#         1435
  C:0E58H         LINE#         1436
  C:0E59H         LINE#         1437
  C:0E5CH         LINE#         1438
  C:0E5EH         LINE#         1439
  C:0E5FH         LINE#         1440
  C:0E61H         LINE#         1441
  C:0E64H         LINE#         1442
  C:0E66H         LINE#         1443
  C:0E68H         LINE#         1444
  C:0E6BH         LINE#         1445
  C:0E6DH         LINE#         1446
  C:0E6FH         LINE#         1447
  C:0E72H         LINE#         1448
  C:0E74H         LINE#         1451
  C:0E76H         LINE#         1452
  C:0E77H         LINE#         1453
  C:0E7AH         LINE#         1454
  C:0E7CH         LINE#         1455
  C:0E7DH         LINE#         1456
  C:0E7EH         LINE#         1457
  C:0E80H         LINE#         1458
  C:0E81H         LINE#         1459
  C:0E84H         LINE#         1460
  C:0E86H         LINE#         1461
  C:0E87H         LINE#         1463
  C:0E8AH         LINE#         1464
BL51 BANKED LINKER/LOCATER V4.16a           02/05/2007  13:48:16  PAGE 34


  C:0E8CH         LINE#         1465
  C:0E8FH         LINE#         1466
  C:0E91H         LINE#         1467
  C:0E93H         LINE#         1468
  C:0E96H         LINE#         1471
  C:0E99H         LINE#         1472
  C:0E9BH         LINE#         1473
  C:0E9DH         LINE#         1474
  C:0E9FH         LINE#         1475
  C:0EA0H         LINE#         1476
  C:0EA3H         LINE#         1477
  C:0EA5H         LINE#         1480
  C:0EA7H         LINE#         1481
  C:0EAAH         LINE#         1482
  C:0EACH         LINE#         1483
  C:0EAEH         LINE#         1484
  C:0EB0H         LINE#         1487
  C:0EB3H         LINE#         1488
  C:0EB6H         LINE#         1489
  C:0EB9H         LINE#         1490
  C:0EBCH         LINE#         1491
  C:0EBFH         LINE#         1493
  C:0EC1H         LINE#         1494
  C:0EC3H         LINE#         1495
  C:0EC6H         LINE#         1498
  C:0EC8H         LINE#         1500
  C:0ECAH         LINE#         1501
  C:0ECBH         LINE#         1502
  C:0ECDH         LINE#         1503
  C:0ECEH         LINE#         1504
  C:0ECFH         LINE#         1505
  C:0ED1H         LINE#         1506
  C:0ED2H         LINE#         1507
  C:0ED3H         LINE#         1508
  C:0ED4H         LINE#         1509
  C:0ED6H         LINE#         1510
  C:0ED7H         LINE#         1511
  C:0ED9H         LINE#         1512
  C:0EDAH         LINE#         1513
  C:0EDBH         LINE#         1514
  C:0EDDH         LINE#         1515
  C:0EDEH         LINE#         1516
  C:0EDFH         LINE#         1517
  C:0EE0H         LINE#         1518
  C:0EE2H         LINE#         1520
  C:0EE4H         LINE#         1521
  C:0EE5H         LINE#         1522
  C:0EE6H         LINE#         1523
  C:0EE8H         LINE#         1524
  C:0EE9H         LINE#         1525
  C:0EEAH         LINE#         1526
  C:0EEBH         LINE#         1527
  C:0EEDH         LINE#         1529
  C:0EEFH         LINE#         1530
  C:0EF0H         LINE#         1531
  C:0EF1H         LINE#         1532
  C:0EF3H         LINE#         1533
  C:0EF4H         LINE#         1534
  C:0EF5H         LINE#         1535
  C:0EF6H         LINE#         1536
  C:0EF8H         LINE#         1539
  C:0EF9H         LINE#         1540
  C:0EFBH         LINE#         1541
  C:0EFCH         LINE#         1542
  C:0EFDH         LINE#         1543
BL51 BANKED LINKER/LOCATER V4.16a           02/05/2007  13:48:16  PAGE 35


  C:0EFFH         LINE#         1544
  C:0F00H         LINE#         1545
  C:0F01H         LINE#         1546
  C:0F02H         LINE#         1548
  C:0F04H         LINE#         1549
  C:0F05H         LINE#         1550
  C:0F06H         LINE#         1551
  C:0F08H         LINE#         1552
  C:0F09H         LINE#         1553
  C:0F0AH         LINE#         1554
  C:0F0BH         LINE#         1555
  C:0F0CH         LINE#         1557
  C:0F0FH         LINE#         1558
  C:0F10H         LINE#         1559
  C:0F12H         LINE#         1560
  C:0F13H         LINE#         1561
  C:0F14H         LINE#         1562
  C:0F16H         LINE#         1563
  C:0F18H         LINE#         1565
  C:0F1BH         LINE#         1568
  C:0F1DH         LINE#         1569
  C:0F1EH         LINE#         1570
  C:0F1FH         LINE#         1571
  C:0F21H         LINE#         1572
  C:0F22H         LINE#         1576
  C:0F25H         LINE#         1577
  C:0F28H         LINE#         1578
  C:0F2AH         LINE#         1579
  C:0F2DH         LINE#         1580
  C:0F2EH         LINE#         1581
  C:0F30H         LINE#         1583
  C:0F31H         LINE#         1584
  C:0F33H         LINE#         1587
  C:0F35H         LINE#         1588
  C:0F38H         LINE#         1589
  C:0F3BH         LINE#         1590
  C:0F3EH         LINE#         1591
  C:0F41H         LINE#         1592
  C:0F43H         LINE#         1593
  C:0F46H         LINE#         1594
  C:0F49H         LINE#         1595
  C:0F4CH         LINE#         1596
  C:0F4FH         LINE#         1600
  C:0F51H         LINE#         1601
  C:0F54H         LINE#         1602
  C:0F57H         LINE#         1603
  C:0F59H         LINE#         1606
  C:0F5BH         LINE#         1608
  C:0F5EH         LINE#         1609
  C:0F61H         LINE#         1611
  C:0F64H         LINE#         1613
  C:0F66H         LINE#         1614
  C:0F68H         LINE#         1615
  C:0F6AH         LINE#         1616
  C:0F6BH         LINE#         1617
  C:0F6CH         LINE#         1619
  C:0F6EH         LINE#         1620
  C:0F70H         LINE#         1621
  C:0F72H         LINE#         1622
  C:0F74H         LINE#         1623
  C:0F75H         LINE#         1624
  C:0F76H         LINE#         1625
  C:0F77H         LINE#         1626
  C:0F78H         LINE#         1627
  C:0F79H         LINE#         1628
BL51 BANKED LINKER/LOCATER V4.16a           02/05/2007  13:48:16  PAGE 36


  C:0F7AH         LINE#         1629
  C:0F7BH         LINE#         1630
  C:0F7CH         LINE#         1631
  C:0F7FH         LINE#         1633
  C:0F81H         LINE#         1634
  C:0F84H         LINE#         1636
  C:0F87H         LINE#         1637
  C:0F8AH         LINE#         1638
  C:0F8DH         LINE#         1639
  C:0F8FH         LINE#         1640
  C:0F92H         LINE#         1641
  C:0F94H         LINE#         1643
  C:0F97H         LINE#         1644
  C:0F9AH         LINE#         1645
  C:0F9DH         LINE#         1646
  C:0F9FH         LINE#         1648
  C:0FA2H         LINE#         1650
  C:0FA4H         LINE#         1652
  C:0FA5H         LINE#         1653
  C:0FA7H         LINE#         1654
  C:0FA9H         LINE#         1655
  C:0FAAH         LINE#         1656
  C:0FACH         LINE#         1657
  C:0FAFH         LINE#         1658
  C:0FB2H         LINE#         1659
  C:0FB5H         LINE#         1660
  C:0FB7H         LINE#         1661
  C:0FBAH         LINE#         1664
  C:0FBCH         LINE#         1666
  C:0FBEH         LINE#         1667
  C:0FC1H         LINE#         1668
  C:0FC4H         LINE#         1669
  C:0FC7H         LINE#         1670
  C:0FCAH         LINE#         1671
  C:0FCCH         LINE#         1674
  C:0FCFH         LINE#         1675
  C:0FD1H         LINE#         1676
  C:0FD4H         LINE#         1678
  C:0FD7H         LINE#         1679
  C:0FD9H         LINE#         1680
  C:0FDCH         LINE#         1681
  C:0FDEH         LINE#         1682
  C:0FE1H         LINE#         1688
  C:0FE3H         LINE#         1689
  C:0FE6H         LINE#         1691
  C:0FE8H         LINE#         1692
  C:0FEAH         LINE#         1693
  C:0FECH         LINE#         1694
  C:0FEEH         LINE#         1696
  C:0FF1H         LINE#         1697
  C:0FF4H         LINE#         1698
  C:0FF6H         LINE#         1701
  C:0FF9H         LINE#         1703
  C:0FFBH         LINE#         1704
  C:0FFEH         LINE#         1707
  C:1001H         LINE#         1708
  C:1003H         LINE#         1709
  C:1006H         LINE#         1711
  C:1008H         LINE#         1712
  C:100AH         LINE#         1713
  C:100CH         LINE#         1714
  C:100EH         LINE#         1715
  C:1010H         LINE#         1716
  C:1011H         LINE#         1717
  C:1014H         LINE#         1720
BL51 BANKED LINKER/LOCATER V4.16a           02/05/2007  13:48:16  PAGE 37


  C:1017H         LINE#         1721
  C:1019H         LINE#         1722
  C:101BH         LINE#         1723
  C:101DH         LINE#         1724
  C:101EH         LINE#         1725
  C:1020H         LINE#         1726
  C:1023H         LINE#         1727
  C:1026H         LINE#         1737
  C:1028H         LINE#         1738
  C:102BH         LINE#         1739
  C:102DH         LINE#         1740
  C:102FH         LINE#         1741
  C:1031H         LINE#         1742
  C:1033H         LINE#         1744
  C:1035H         LINE#         1745
  C:1037H         LINE#         1746
  C:1038H         LINE#         1747
  C:1039H         LINE#         1748
  C:103BH         LINE#         1749
  C:103DH         LINE#         1750
  C:103EH         LINE#         1751
  C:1041H         LINE#         1753
  C:1044H         LINE#         1758
  C:1046H         LINE#         1759
  C:1047H         LINE#         1760
  C:1049H         LINE#         1761
  C:104AH         LINE#         1762
  C:104CH         LINE#         1763
  C:104DH         LINE#         1764
  C:104FH         LINE#         1765
  C:1050H         LINE#         1767
  C:1053H         LINE#         1768
  C:1055H         LINE#         1769
  C:1058H         LINE#         1770
  C:105AH         LINE#         1771
  C:105DH         LINE#         1772
  C:1060H         LINE#         1773
  C:1063H         LINE#         1774
  C:1066H         LINE#         1775
  C:1069H         LINE#         1776
  C:106CH         LINE#         1777
  C:106DH         LINE#         1778
  C:106FH         LINE#         1779
  C:1070H         LINE#         1780
  C:1072H         LINE#         1781
  C:1075H         LINE#         1784
  C:1077H         LINE#         1785
  C:1079H         LINE#         1786
  C:107BH         LINE#         1787
  C:107DH         LINE#         1788
  C:107EH         LINE#         1789
  C:1081H         LINE#         1791
  C:1084H         LINE#         1796
  C:1086H         LINE#         1797
  C:1087H         LINE#         1798
  C:1089H         LINE#         1799
  C:108AH         LINE#         1800
  C:108CH         LINE#         1801
  C:108DH         LINE#         1802
  C:108FH         LINE#         1803
  C:1090H         LINE#         1805
  C:1093H         LINE#         1806
  C:1095H         LINE#         1807
  C:1098H         LINE#         1808
  C:109AH         LINE#         1809
BL51 BANKED LINKER/LOCATER V4.16a           02/05/2007  13:48:16  PAGE 38


  C:109DH         LINE#         1810
  C:10A0H         LINE#         1811
  C:10A3H         LINE#         1812
  C:10A6H         LINE#         1813
  C:10A9H         LINE#         1814
  C:10ACH         LINE#         1815
  C:10ADH         LINE#         1816
  C:10AFH         LINE#         1817
  C:10B0H         LINE#         1818
  C:10B2H         LINE#         1819
  C:10B5H         LINE#         1821
  C:10B7H         LINE#         1822
  C:10B9H         LINE#         1823
  C:10BBH         LINE#         1824
  C:10BDH         LINE#         1825
  C:10BFH         LINE#         1826
  C:10C0H         LINE#         1827
  C:10C3H         LINE#         1829
  C:10C6H         LINE#         1830
  C:10C8H         LINE#         1831
  C:10CAH         LINE#         1832
  C:10CCH         LINE#         1833
  C:10CDH         LINE#         1834
  C:10CFH         LINE#         1835
  C:10D2H         LINE#         1836
  C:10D5H         LINE#         1837
  C:10D6H         LINE#         1838
  C:10D9H         LINE#         1843
  C:10DCH         LINE#         1844
  C:10DFH         LINE#         1845
  C:10E2H         LINE#         1846
  C:10E5H         LINE#         1847
  C:10E8H         LINE#         1849
  C:10EBH         LINE#         1851
  C:10EDH         LINE#         1852
  C:10EFH         LINE#         1853
  C:10F1H         LINE#         1854
  C:10F3H         LINE#         1855
  C:10F5H         LINE#         1856
  C:10F7H         LINE#         1857
  C:10F9H         LINE#         1858
  C:10FBH         LINE#         1859
  C:10FDH         LINE#         1860
  C:10FFH         LINE#         1863
  C:1102H         LINE#         1866
  C:1104H         LINE#         1867
  C:1106H         LINE#         1868
  C:1107H         LINE#         1869
  C:1108H         LINE#         1870
  C:110AH         LINE#         1872
  C:110CH         LINE#         1873
  C:110FH         LINE#         1874
  C:1111H         LINE#         1875
  C:1113H         LINE#         1876
  C:1115H         LINE#         1877
  C:1117H         LINE#         1878
  C:111AH         LINE#         1879
  C:111DH         LINE#         1880
  C:1120H         LINE#         1881
  C:1122H         LINE#         1882
  C:1125H         LINE#         1884
  C:1128H         LINE#         1885
  C:112BH         LINE#         1886
  C:112DH         LINE#         1887
  C:1130H         LINE#         1888
BL51 BANKED LINKER/LOCATER V4.16a           02/05/2007  13:48:16  PAGE 39


  C:1133H         LINE#         1889
  C:1135H         LINE#         1890
  C:1138H         LINE#         1891
  C:113BH         LINE#         1892
  C:113DH         LINE#         1893
  C:1140H         LINE#         1894
  C:1143H         LINE#         1895
  C:1145H         LINE#         1896
  C:1148H         LINE#         1897
  C:114BH         LINE#         1898
  C:114DH         LINE#         1899
  C:1150H         LINE#         1900
  C:1153H         LINE#         1902
  C:1156H         LINE#         1903
  C:1158H         LINE#         1904
  C:115AH         LINE#         1906
  C:115DH         LINE#         1908
  C:1160H         LINE#         1909
  C:1162H         LINE#         1910
  C:1164H         LINE#         1911
  C:1166H         LINE#         1912
  C:1167H         LINE#         1913
  C:1169H         LINE#         1914
  C:116CH         LINE#         1915
  C:116EH         LINE#         1916
  C:1171H         LINE#         1918
  C:1173H         LINE#         1919
  C:1176H         LINE#         1921
  C:1178H         LINE#         1923
  C:1179H         LINE#         1924
  C:117CH         LINE#         1926
  C:117FH         LINE#         1927
  C:1181H         LINE#         1933
  C:1183H         LINE#         1935
  C:1184H         LINE#         1936
  C:1187H         LINE#         1937
  C:1189H         LINE#         1938
  C:118BH         LINE#         1939
  C:118EH         LINE#         1940
  C:1190H         LINE#         1941
  C:1193H         LINE#         1942
  C:1195H         LINE#         1943
  C:1198H         LINE#         1944
  C:119BH         LINE#         1945
  C:119DH         LINE#         1947
  C:11A0H         LINE#         1948
  C:11A2H         LINE#         1949
  C:11A4H         LINE#         1951
  C:11A6H         LINE#         1952
  C:11A8H         LINE#         1954
  C:11ABH         LINE#         1955
  C:11AEH         LINE#         1956
  C:11B1H         LINE#         1957
  C:11B3H         LINE#         1959
  C:11B5H         LINE#         1960
  C:11B7H         LINE#         1961
  C:11B9H         LINE#         1962
  C:11BBH         LINE#         1964
  C:11BEH         LINE#         1965
  C:11C0H         LINE#         1966
  C:11C1H         LINE#         1967
  C:11C3H         LINE#         1968
  C:11C4H         LINE#         1969
  C:11C6H         LINE#         1971
  C:11C8H         LINE#         1972
BL51 BANKED LINKER/LOCATER V4.16a           02/05/2007  13:48:16  PAGE 40


  C:11CAH         LINE#         1973
  C:11CCH         LINE#         1974
  C:11CDH         LINE#         1975
  C:11CFH         LINE#         1976
  C:11D1H         LINE#         1977
  C:11D3H         LINE#         1978
  C:11D4H         LINE#         1979
  C:11D6H         LINE#         1980
  C:11D8H         LINE#         1981
  C:11DAH         LINE#         1982
  C:11DCH         LINE#         1983
  C:11DEH         LINE#         1984
  C:11DFH         LINE#         1986
  C:11E2H         LINE#         1987
  C:11E4H         LINE#         1989
  C:11E7H         LINE#         1990
  C:11E9H         LINE#         1991
  C:11EBH         LINE#         1992
  C:11EEH         LINE#         1994
  C:11F0H         LINE#         1995
  C:11F2H         LINE#         2011
  C:11F4H         LINE#         2012
  C:11F6H         LINE#         2013
  C:11F9H         LINE#         2014
  C:11FBH         LINE#         2015
  C:11FCH         LINE#         2016
  C:11FEH         LINE#         2017
  C:1201H         LINE#         2018
  C:1204H         LINE#         2019
  C:1206H         LINE#         2020
  C:1207H         LINE#         2021
  C:1209H         LINE#         2022
  C:120CH         LINE#         2024
  C:120EH         LINE#         2025
  C:120FH         LINE#         2026
  C:1211H         LINE#         2027
  C:1214H         LINE#         2033
  C:1216H         LINE#         2034
  C:1218H         LINE#         2035
  C:121AH         LINE#         2036
  C:121CH         LINE#         2037
  C:121FH         LINE#         2040
  C:1221H         LINE#         2041
  C:1223H         LINE#         2042
  C:1224H         LINE#         2043
  C:1226H         LINE#         2044
  C:1229H         LINE#         2047
  C:122AH         LINE#         2048
  C:122CH         LINE#         2049
  C:122EH         LINE#         2050
  C:1230H         LINE#         2051
  C:1231H         LINE#         2052
  C:1233H         LINE#         2053
  C:1236H         LINE#         2054
  C:1238H         LINE#         2055
  C:123AH         LINE#         2057
  C:123DH         LINE#         2058
  C:123FH         LINE#         2059
  C:1241H         LINE#         2062
  C:1243H         LINE#         2063
  C:1245H         LINE#         2065
  C:1248H         LINE#         2067
  C:124BH         LINE#         2068
  C:124EH         LINE#         2069
  C:1250H         LINE#         2070
BL51 BANKED LINKER/LOCATER V4.16a           02/05/2007  13:48:16  PAGE 41


  C:1253H         LINE#         2071
  C:1255H         LINE#         2072
  C:1258H         LINE#         2074
  C:125BH         LINE#         2076
  C:125CH         LINE#         2077
  C:125FH         LINE#         2079
  C:1262H         LINE#         2082
  C:1264H         LINE#         2083
  C:1266H         LINE#         2084
  C:1267H         LINE#         2085
  C:1269H         LINE#         2086
  C:126CH         LINE#         2088
  C:126FH         LINE#         2089
  C:1271H         LINE#         2090
  C:1273H         LINE#         2091
  C:1275H         LINE#         2092
  C:1277H         LINE#         2093
  C:1279H         LINE#         2094
  C:127BH         LINE#         2095
  C:127DH         LINE#         2096
  C:127FH         LINE#         2097
  C:1282H         LINE#         2099
  C:1285H         LINE#         2100
  C:1288H         LINE#         2101
  C:128BH         LINE#         2102
  C:128DH         LINE#         2103
  C:1290H         LINE#         2104
  C:1293H         LINE#         2105
  C:1296H         LINE#         2106
  C:1298H         LINE#         2107
  C:129BH         LINE#         2108
  C:129EH         LINE#         2109
  C:12A0H         LINE#         2111
  C:12A3H         LINE#         2112
  C:12A6H         LINE#         2113
  C:12A9H         LINE#         2114
  C:12ABH         LINE#         2115
  C:12AEH         LINE#         2116
  C:12B1H         LINE#         2117
  C:12B3H         LINE#         2119
  C:12B6H         LINE#         2120
  C:12B9H         LINE#         2121
  C:12BCH         LINE#         2122
  C:12BEH         LINE#         2123
  C:12C1H         LINE#         2124
  C:12C4H         LINE#         2125
  C:12C6H         LINE#         2129
  C:12C9H         LINE#         2130
  C:12CBH         LINE#         2131
  C:12CEH         LINE#         2132
  C:12D0H         LINE#         2133
  C:12D3H         LINE#         2134
  C:12D5H         LINE#         2135
  C:12D8H         LINE#         2136
  C:12DAH         LINE#         2137
  C:12DBH         LINE#         2144
  C:12DDH         LINE#         2145
  C:12DFH         LINE#         2146
  C:12E0H         LINE#         2147
  C:12E1H         LINE#         2148
  C:12E2H         LINE#         2149
  C:12E4H         LINE#         2150
  C:12E7H         LINE#         2152
  C:12E9H         LINE#         2153
  C:12ECH         LINE#         2154
BL51 BANKED LINKER/LOCATER V4.16a           02/05/2007  13:48:16  PAGE 42


  C:12EEH         LINE#         2162
  C:12F0H         LINE#         2163
  C:12F2H         LINE#         2164
  C:12F3H         LINE#         2165
  C:12F4H         LINE#         2166
  C:12F5H         LINE#         2167
  C:12F7H         LINE#         2168
  C:12F9H         LINE#         2169
  C:12FAH         LINE#         2170
  C:12FCH         LINE#         2171
  C:12FFH         LINE#         2172
  C:1300H         LINE#         2173
  C:1303H         LINE#         2175
  C:1306H         LINE#         2176
  C:1308H         LINE#         2177
  C:130BH         LINE#         2179
  C:130DH         LINE#         2180
  C:1310H         LINE#         2181
  C:1313H         LINE#         2182
  C:1316H         LINE#         2184
  C:1319H         LINE#         2185
  C:131CH         LINE#         2186
  C:131FH         LINE#         2187
  C:1321H         LINE#         2188
  C:1324H         LINE#         2190
  C:1327H         LINE#         2192
  C:132AH         LINE#         2195
  C:132CH         LINE#         2196
  C:132FH         LINE#         2205
  C:1332H         LINE#         2207
  C:1335H         LINE#         2209
  C:1337H         LINE#         2210
  C:1339H         LINE#         2211
  C:133AH         LINE#         2212
  C:133BH         LINE#         2213
  C:133DH         LINE#         2215
  C:1340H         LINE#         2216
  C:1343H         LINE#         2217
  C:1345H         LINE#         2218
  C:1348H         LINE#         2219
  C:134AH         LINE#         2220
  C:134DH         LINE#         2221
  C:1350H         LINE#         2222
  C:1351H         LINE#         2223
  C:1353H         LINE#         2225
  C:1355H         LINE#         2226
  C:1356H         LINE#         2227
  C:1357H         LINE#         2228
  C:1359H         LINE#         2229
  C:135CH         LINE#         2230
  C:135FH         LINE#         2231
  C:1362H         LINE#         2232
  C:1364H         LINE#         2233
  C:1367H         LINE#         2234
  C:136AH         LINE#         2235
  C:136BH         LINE#         2236
  C:136DH         LINE#         2237
  C:1370H         LINE#         2238
  C:1373H         LINE#         2239
  C:1376H         LINE#         2240
  C:1379H         LINE#         2241
  C:137BH         LINE#         2242
  C:137EH         LINE#         2243
  C:1381H         LINE#         2244
  C:1384H         LINE#         2245
BL51 BANKED LINKER/LOCATER V4.16a           02/05/2007  13:48:16  PAGE 43


  C:1386H         LINE#         2246
  C:1389H         LINE#         2252
  C:138BH         LINE#         2253
  C:138CH         LINE#         2254
  C:138DH         LINE#         2255
  C:138FH         LINE#         2256
  C:1392H         LINE#         2257
  C:1395H         LINE#         2258
  C:1398H         LINE#         2259
  C:139BH         LINE#         2260
  C:139DH         LINE#         2261
  C:13A0H         LINE#         2262
  C:13A3H         LINE#         2264
  C:13A6H         LINE#         2267
  C:13A9H         LINE#         2268
  C:13ABH         LINE#         2269
  C:13AEH         LINE#         2271
  C:13B1H         LINE#         2272
  C:13B3H         LINE#         2273
  C:13B6H         LINE#         2274
  C:13B8H         LINE#         2275
  C:13BBH         LINE#         2276
  C:13BEH         LINE#         2277
  C:13C1H         LINE#         2279
  C:13C4H         LINE#         2280
  C:13C7H         LINE#         2281
  C:13C9H         LINE#         2282
  C:13CCH         LINE#         2283
  C:13CEH         LINE#         2284
  C:13D1H         LINE#         2285
  C:13D4H         LINE#         2286
  C:13D7H         LINE#         2287
  C:13DAH         LINE#         2288
  C:13DDH         LINE#         2289
  C:13DFH         LINE#         2290
  C:13E2H         LINE#         2291
  C:13E4H         LINE#         2292
  C:13E7H         LINE#         2293
  C:13EAH         LINE#         2294
  C:13EDH         LINE#         2296
  C:13F0H         LINE#         2297
  C:13F3H         LINE#         2298
  C:13F5H         LINE#         2299
  C:13F8H         LINE#         2300
  C:13FAH         LINE#         2301
  C:13FDH         LINE#         2302
  C:1400H         LINE#         2303
  C:1403H         LINE#         2306
  C:1405H         LINE#         2307
  C:1408H         LINE#         2308
  C:140AH         LINE#         2309
  C:140DH         LINE#         2310
  C:1410H         LINE#         2311
  C:1413H         LINE#         2312
  C:1416H         LINE#         2314
  C:1419H         LINE#         2315
  C:141CH         LINE#         2316
  C:141EH         LINE#         2318
  C:1420H         LINE#         2334
  C:1423H         LINE#         2335
  C:1426H         LINE#         2336
  C:1429H         LINE#         2344
  C:142BH         LINE#         2345
  C:142DH         LINE#         2346
  C:142EH         LINE#         2347
BL51 BANKED LINKER/LOCATER V4.16a           02/05/2007  13:48:16  PAGE 44


  C:142FH         LINE#         2348
  C:1430H         LINE#         2349
  C:1432H         LINE#         2350
  C:1434H         LINE#         2352
  C:1436H         LINE#         2353
  C:1438H         LINE#         2354
  C:1439H         LINE#         2355
  C:143AH         LINE#         2356
  C:143CH         LINE#         2357
  C:143EH         LINE#         2358
  C:143FH         LINE#         2359
  C:1442H         LINE#         2360
  C:1444H         LINE#         2361
  C:1445H         LINE#         2362
  C:1448H         LINE#         2365
  C:144BH         LINE#         2366
  C:144DH         LINE#         2367
  C:1450H         LINE#         2368
  C:1452H         LINE#         2370
  C:1455H         LINE#         2371
  C:1458H         LINE#         2372
  C:145BH         LINE#         2375
  C:145CH         LINE#         2376
  C:145EH         LINE#         2377
  C:145FH         LINE#         2378
  C:1461H         LINE#         2379
  C:1464H         LINE#         2380
  C:1467H         LINE#         2388
  C:1469H         LINE#         2389
  C:146BH         LINE#         2390
  C:146CH         LINE#         2391
  C:146DH         LINE#         2392
  C:146EH         LINE#         2393
  C:1470H         LINE#         2395
  C:1472H         LINE#         2396
  C:1474H         LINE#         2397
  C:1475H         LINE#         2398
  C:1476H         LINE#         2399
  C:1478H         LINE#         2400
  C:147AH         LINE#         2401
  C:147BH         LINE#         2402
  C:147EH         LINE#         2407
  C:1480H         LINE#         2408
  C:1482H         LINE#         2409
  C:1483H         LINE#         2410
  C:1484H         LINE#         2412
  C:1485H         LINE#         2413
  C:1487H         LINE#         2415
  C:148AH         LINE#         2416
  C:148DH         LINE#         2417
  C:1490H         LINE#         2418
  C:1493H         LINE#         2419
  C:1496H         LINE#         2421
  C:1499H         LINE#         2429
  C:149BH         LINE#         2430
  C:149DH         LINE#         2431
  C:149FH         LINE#         2432
  C:14A1H         LINE#         2433
  C:14A3H         LINE#         2434
  C:14A5H         LINE#         2435
  C:14A7H         LINE#         2436
  C:14A9H         LINE#         2437
  C:14ABH         LINE#         2438
  C:14ADH         LINE#         2440
  C:14B0H         LINE#         2441
BL51 BANKED LINKER/LOCATER V4.16a           02/05/2007  13:48:16  PAGE 45


  C:14B2H         LINE#         2442
  C:14B4H         LINE#         2443
  C:14B6H         LINE#         2444
  C:14B9H         LINE#         2445
  C:14BBH         LINE#         2446
  C:14BDH         LINE#         2447
  C:14BFH         LINE#         2448
  C:14C1H         LINE#         2449
  C:14C2H         LINE#         2450
  C:14C3H         LINE#         2452
  C:14C5H         LINE#         2453
  C:14C7H         LINE#         2454
  C:14C9H         LINE#         2455
  C:14CAH         LINE#         2457
  C:14CDH         LINE#         2458
  C:14D0H         LINE#         2459
  C:14D3H         LINE#         2460
  C:14D6H         LINE#         2461
  C:14D9H         LINE#         2462
  C:14DCH         LINE#         2464
  C:14DFH         LINE#         2465
  C:14E1H         LINE#         2466
  C:14E3H         LINE#         2467
  C:14E5H         LINE#         2468
  C:14E7H         LINE#         2469
  C:14E9H         LINE#         2470
  C:14EBH         LINE#         2471
  C:14EDH         LINE#         2472
  C:14EFH         LINE#         2473
  C:14F1H         LINE#         2474
  C:14F3H         LINE#         2475
  C:14F5H         LINE#         2476
  C:14F7H         LINE#         2479
  C:14FAH         LINE#         2482
  C:14FCH         LINE#         2483
  C:14FEH         LINE#         2484
  C:14FFH         LINE#         2485
  C:1500H         LINE#         2486
  C:1502H         LINE#         2489
  C:1504H         LINE#         2490
  C:1507H         LINE#         2491
  C:1509H         LINE#         2492
  C:150BH         LINE#         2493
  C:150DH         LINE#         2494
  C:150FH         LINE#         2495
  C:1512H         LINE#         2496
  C:1515H         LINE#         2497
  C:1518H         LINE#         2498
  C:151AH         LINE#         2499
  C:151DH         LINE#         2500
  C:1520H         LINE#         2501
  C:1522H         LINE#         2502
  C:1525H         LINE#         2503
  C:1528H         LINE#         2504
  C:152AH         LINE#         2505
  C:152DH         LINE#         2506
  C:1530H         LINE#         2507
  C:1532H         LINE#         2508
  C:1535H         LINE#         2509
  C:1538H         LINE#         2510
  C:153AH         LINE#         2511
  C:153DH         LINE#         2512
  C:1540H         LINE#         2513
  C:1542H         LINE#         2514
  C:1545H         LINE#         2528
BL51 BANKED LINKER/LOCATER V4.16a           02/05/2007  13:48:16  PAGE 46


  C:1547H         LINE#         2529
  C:1549H         LINE#         2530
  C:154CH         LINE#         2531
  C:154EH         LINE#         2532
  C:154FH         LINE#         2533
  C:1551H         LINE#         2534
  C:1554H         LINE#         2537
  C:1557H         LINE#         2538
  C:1559H         LINE#         2539
  C:155AH         LINE#         2540
  C:155CH         LINE#         2541
  C:155FH         LINE#         2542
  C:1561H         LINE#         2543
  C:1562H         LINE#         2544
  C:1564H         LINE#         2545
  C:1567H         LINE#         2548
  C:156AH         LINE#         2549
  C:156DH         LINE#         2550
  C:156FH         LINE#         2551
  C:1571H         LINE#         2552
  C:1574H         LINE#         2553
  C:1577H         LINE#         2555
  C:1579H         LINE#         2556
  C:157BH         LINE#         2557
  C:157EH         LINE#         2559
  C:1580H         LINE#         2560
  C:1582H         LINE#         2561
  C:1584H         LINE#         2562
  C:1587H         LINE#         2563
  C:158AH         LINE#         2564
  C:158DH         LINE#         2567
  C:1590H         LINE#         2569
  C:1593H         LINE#         2570
  C:1596H         LINE#         2571
  C:1598H         LINE#         2572
  C:159BH         LINE#         2573
  C:159DH         LINE#         2574
  C:15A0H         LINE#         2576
  C:15A3H         LINE#         2578
  C:15A5H         LINE#         2579
  C:15A6H         LINE#         2580
  C:15A9H         LINE#         2581
  C:15AAH         LINE#         2582
  C:15ACH         LINE#         2585
  C:15AFH         LINE#         2586
  C:15B1H         LINE#         2587
  C:15B4H         LINE#         2588
  C:15B6H         LINE#         2589
  C:15B9H         LINE#         2590
  C:15BCH         LINE#         2591
  C:15BEH         LINE#         2593
  C:15C1H         LINE#         2594
  C:15C3H         LINE#         2595
  C:15C5H         LINE#         2596
  C:15C8H         LINE#         2597
  C:15CAH         LINE#         2598
  C:15CDH         LINE#         2599
  C:15D0H         LINE#         2601
  C:15D2H         LINE#         2602
  C:15D5H         LINE#         2603
  C:15D8H         LINE#         2604
  C:15DAH         LINE#         2605
  C:15DDH         LINE#         2606
  C:15E0H         LINE#         2608
  C:15E3H         LINE#         2609
BL51 BANKED LINKER/LOCATER V4.16a           02/05/2007  13:48:16  PAGE 47


  C:15E6H         LINE#         2610
  C:15E8H         LINE#         2611
  C:15EBH         LINE#         2612
  C:15EEH         LINE#         2613
  C:15F1H         LINE#         2614
  C:15F2H         LINE#         2616
  C:15F5H         LINE#         2618
  C:15F8H         LINE#         2620
  C:15FBH         LINE#         2622
  C:15FEH         LINE#         2623
  C:1601H         LINE#         2625
  C:1604H         LINE#         2635
  C:1606H         LINE#         2636
  C:1609H         LINE#         2637
  C:160CH         LINE#         2638
  C:160FH         LINE#         2639
  C:1612H         LINE#         2640
  C:1614H         LINE#         2641
  C:1617H         LINE#         2642
  C:161AH         LINE#         2643
  C:161DH         LINE#         2644
  C:1620H         LINE#         2645
  C:1622H         LINE#         2646
  C:1625H         LINE#         2647
  C:1627H         LINE#         2648
  C:162AH         LINE#         2649
  C:162CH         LINE#         2650
  C:162FH         LINE#         2652
  C:1631H         LINE#         2654
  C:1633H         LINE#         2656
  C:1635H         LINE#         2657
  C:1637H         LINE#         2658
  C:1639H         LINE#         2659
  C:163CH         LINE#         2660
  C:163FH         LINE#         2662
  C:1642H         LINE#         2663
  C:1645H         LINE#         2664
  C:1648H         LINE#         2665
  C:164AH         LINE#         2666
  C:164CH         LINE#         2667
  C:164FH         LINE#         2668
  C:1652H         LINE#         2669
  C:1655H         LINE#         2673
  C:1657H         LINE#         2675
  C:165AH         LINE#         2676
  C:165DH         LINE#         2677
  C:1660H         LINE#         2678
  C:1662H         LINE#         2679
  C:1664H         LINE#         2681
  C:1667H         LINE#         2682
  C:166AH         LINE#         2683
  C:166DH         LINE#         2684
  C:1670H         LINE#         2685
  C:1672H         LINE#         2686
  C:1674H         LINE#         2688
  C:1676H         LINE#         2689
  C:1678H         LINE#         2690
  C:167AH         LINE#         2691
  C:167CH         LINE#         2692
  C:167FH         LINE#         2696
  C:1682H         LINE#         2697
  C:1685H         LINE#         2698
  C:1688H         LINE#         2699
  C:168AH         LINE#         2700
  C:168CH         LINE#         2702
BL51 BANKED LINKER/LOCATER V4.16a           02/05/2007  13:48:16  PAGE 48


  C:168EH         LINE#         2703
  C:168FH         LINE#         2705
  C:1692H         LINE#         2706
  C:1694H         LINE#         2707
  C:1696H         LINE#         2708
  C:1698H         LINE#         2709
  C:169BH         LINE#         2710
  C:169EH         LINE#         2711
  C:16A1H         LINE#         2712
  C:16A4H         LINE#         2714
  C:16A7H         LINE#         2715
  C:16AAH         LINE#         2719
  C:16ADH         LINE#         2721
  C:16B0H         LINE#         2723
  C:16B3H         LINE#         2728
  C:16B5H         LINE#         2729
  C:16B6H         LINE#         2730
  C:16B9H         LINE#         2731
  C:16BAH         LINE#         2732
  C:16BCH         LINE#         2733
  C:16BFH         LINE#         2735
  C:16C8H         LINE#         2742
  C:16CBH         LINE#         2743
  C:16CEH         LINE#         2744
  C:16D1H         LINE#         2745
  C:16D3H         LINE#         2746
  C:16D4H         LINE#         2747
  C:16D6H         LINE#         2748
  C:16D7H         LINE#         2749
  C:16D9H         LINE#         2752
  C:16DBH         LINE#         2753
  C:16DEH         LINE#         2754
  C:16E0H         LINE#         2755
  C:16E1H         LINE#         2756
  C:16E2H         LINE#         2757
  C:16E3H         LINE#         2758
  C:16E6H         LINE#         2760
  C:16E9H         LINE#         2761
  C:16ECH         LINE#         2762
  C:16EFH         LINE#         2763
  C:16F1H         LINE#         2764
  C:16F3H         LINE#         2765
  C:16F4H         LINE#         2766
  C:16F6H         LINE#         2767
  C:16F8H         LINE#         2768
  C:16FAH         LINE#         2769
  C:16FBH         LINE#         2770
  C:16FDH         LINE#         2771
  C:16FFH         LINE#         2772
  C:1702H         LINE#         2774
  C:1705H         LINE#         2775
  C:1707H         LINE#         2776
  C:170AH         LINE#         2778
  C:170CH         LINE#         2779
  C:170DH         LINE#         2780
  C:170FH         LINE#         2781
  C:1710H         LINE#         2782
  C:1712H         LINE#         2783
  C:1715H         LINE#         2784
  C:1717H         LINE#         2785
  C:1718H         LINE#         2786
  C:171AH         LINE#         2787
  C:171BH         LINE#         2788
  C:171DH         LINE#         2791
  C:171FH         LINE#         2792
BL51 BANKED LINKER/LOCATER V4.16a           02/05/2007  13:48:16  PAGE 49


  C:1722H         LINE#         2793
  C:1725H         LINE#         2794
  C:1727H         LINE#         2795
  C:172AH         LINE#         2796
  C:172CH         LINE#         2797
  C:172EH         LINE#         2798
  C:1730H         LINE#         2799
  C:1732H         LINE#         2800
  C:1733H         LINE#         2801
  C:1735H         LINE#         2802
  C:1738H         LINE#         2804
  C:173BH         LINE#         2806
  C:173DH         LINE#         2807
  C:173FH         LINE#         2808
  C:1741H         LINE#         2809
  C:1743H         LINE#         2810
  C:1745H         LINE#         2811
  C:1747H         LINE#         2812
  C:1749H         LINE#         2813
  C:174BH         LINE#         2814
  C:174DH         LINE#         2815
  C:174FH         LINE#         2816
  C:1751H         LINE#         2817
  C:1754H         LINE#         2821
  C:1757H         LINE#         2822
  C:175AH         LINE#         2823
  C:175DH         LINE#         2824
  C:175FH         LINE#         2825
  C:1762H         LINE#         2826
  C:1765H         LINE#         2827
  C:1767H         LINE#         2828
  C:176AH         LINE#         2829
  C:176DH         LINE#         2830
  C:176FH         LINE#         2831
  C:1772H         LINE#         2832
  C:1775H         LINE#         2833
  C:1778H         LINE#         2835
  C:177BH         LINE#         2838
  C:177EH         LINE#         2839
  C:1780H         LINE#         2840
  C:1783H         LINE#         2841
  C:1786H         LINE#         2842
  C:1789H         LINE#         2844
  C:178CH         LINE#         2845
  C:178EH         LINE#         2846
  C:1791H         LINE#         2847
  C:1794H         LINE#         2848
  C:1797H         LINE#         2850
  C:1799H         LINE#         2851
  C:179CH         LINE#         2852
  C:179FH         LINE#         2853
  C:17A2H         LINE#         2855
  C:17A5H         LINE#         2856
  C:17A7H         LINE#         2857
  C:17AAH         LINE#         2858
  C:17ADH         LINE#         2859
  C:17B0H         LINE#         2860
  C:17B3H         LINE#         2861
  C:17B5H         LINE#         2862
  C:17B8H         LINE#         2863
  C:17BAH         LINE#         2864
  C:17BDH         LINE#         2865
  C:17BFH         LINE#         2867
  C:17C2H         LINE#         2868
  C:17C5H         LINE#         2869
BL51 BANKED LINKER/LOCATER V4.16a           02/05/2007  13:48:16  PAGE 50


  C:17C8H         LINE#         2870
  C:17CBH         LINE#         2871
  C:17CDH         LINE#         2872
  C:17D0H         LINE#         2873
  C:17D3H         LINE#         2874
  C:17D6H         LINE#         2875
  C:17D9H         LINE#         2876
  C:17DCH         LINE#         2877
  C:17DEH         LINE#         2879
  C:17E1H         LINE#         2880
  C:17E4H         LINE#         2881
  C:17E7H         LINE#         2882
  C:17EAH         LINE#         2884
  C:17EDH         LINE#         2885
  C:17F0H         LINE#         2886
  C:17F3H         LINE#         2887
  C:17F6H         LINE#         2888
  C:17F9H         LINE#         2890
  C:17FAH         LINE#         2891
  C:17FCH         LINE#         2892
  C:17FEH         LINE#         2893
  C:1801H         LINE#         2894
  C:1803H         LINE#         2895
  C:1805H         LINE#         2899
  C:1808H         LINE#         2901
  C:180AH         LINE#         2902
  C:180CH         LINE#         2903
  C:180DH         LINE#         2904
  C:180FH         LINE#         2907
  C:1810H         LINE#         2908
  C:1811H         LINE#         2909
  C:1812H         LINE#         2911
  C:1814H         LINE#         2912
  C:1817H         LINE#         2913
  C:1819H         LINE#         2914
  C:181AH         LINE#         2915
  C:181DH         LINE#         2917
  C:181FH         LINE#         2918
  C:1821H         LINE#         2919
  C:1823H         LINE#         2920
  C:1825H         LINE#         2921
  C:1828H         LINE#         2923
  C:182BH         LINE#         2926
  C:182EH         LINE#         2927
  C:1831H         LINE#         2928
  C:1834H         LINE#         2931
  C:1837H         LINE#         2932
  C:1839H         LINE#         2933
  C:183BH         LINE#         2934
  C:183CH         LINE#         2935
  C:183EH         LINE#         2938
  C:183FH         LINE#         2939
  C:1840H         LINE#         2940
  C:1841H         LINE#         2942
  C:1843H         LINE#         2943
  C:1846H         LINE#         2944
  C:1848H         LINE#         2945
  C:1849H         LINE#         2946
  C:184CH         LINE#         2948
  C:184FH         LINE#         2949
  C:1851H         LINE#         2950
  C:1853H         LINE#         2951
  C:1854H         LINE#         2952
  C:1856H         LINE#         2955
  C:1857H         LINE#         2956
BL51 BANKED LINKER/LOCATER V4.16a           02/05/2007  13:48:16  PAGE 51


  C:1858H         LINE#         2957
  C:1859H         LINE#         2959
  C:185BH         LINE#         2960
  C:185EH         LINE#         2961
  C:1860H         LINE#         2962
  C:1861H         LINE#         2963
  C:1864H         LINE#         2966
  C:1867H         LINE#         2967
  C:1869H         LINE#         2968
  C:186BH         LINE#         2969
  C:186CH         LINE#         2970
  C:186EH         LINE#         2973
  C:186FH         LINE#         2974
  C:1870H         LINE#         2975
  C:1871H         LINE#         2977
  C:1873H         LINE#         2978
  C:1876H         LINE#         2979
  C:1878H         LINE#         2980
  C:1879H         LINE#         2981
  C:187CH         LINE#         2983
  C:187FH         LINE#         2984
  C:1881H         LINE#         2985
  C:1883H         LINE#         2986
  C:1884H         LINE#         2987
  C:1886H         LINE#         2990
  C:1887H         LINE#         2991
  C:1888H         LINE#         2992
  C:1889H         LINE#         2994
  C:188BH         LINE#         2995
  C:188EH         LINE#         2996
  C:1890H         LINE#         2997
  C:1891H         LINE#         2998
  C:1894H         LINE#         2999
  C:1896H         LINE#         3000
  C:1898H         LINE#         3001
  C:189AH         LINE#         3002
  C:189CH         LINE#         3003
  C:189FH         LINE#         3005
  C:18A1H         LINE#         3006
  C:18A4H         LINE#         3007
  C:18A7H         LINE#         3008
  C:18A9H         LINE#         3010
  C:18ABH         LINE#         3011
  C:18ADH         LINE#         3014
  C:18B0H         LINE#         3016
  C:18B3H         LINE#         3017
  C:18B5H         LINE#         3018
  C:18B8H         LINE#         3019
  C:18BBH         LINE#         3020
  C:18BDH         LINE#         3021
  C:18C0H         LINE#         3024
  C:18C2H         LINE#         3025
  C:18C5H         LINE#         3027
  C:18C8H         LINE#         3028
  C:18CBH         LINE#         3029
  C:18CDH         LINE#         3030
  C:18D0H         LINE#         3031
  C:18D2H         LINE#         3032
  C:18D5H         LINE#         3033
  C:18D8H         LINE#         3034
  C:18DAH         LINE#         3041
  C:18DCH         LINE#         3042
  C:18DEH         LINE#         3043
  C:18DFH         LINE#         3044
  C:18E0H         LINE#         3045
BL51 BANKED LINKER/LOCATER V4.16a           02/05/2007  13:48:16  PAGE 52


  C:18E1H         LINE#         3046
  C:18E3H         LINE#         3047
  C:18E5H         LINE#         3049
  C:18E7H         LINE#         3050
  C:18E9H         LINE#         3051
  C:18EAH         LINE#         3052
  C:18EBH         LINE#         3053
  C:18EDH         LINE#         3054
  C:18EFH         LINE#         3055
  C:18F0H         LINE#         3057
  C:18F3H         LINE#         3058
  C:18F5H         LINE#         3059
  C:18F6H         LINE#         3060
  C:18F9H         LINE#         3063
  C:18FCH         LINE#         3064
  C:18FEH         LINE#         3065
  C:1901H         LINE#         3066
  C:1904H         LINE#         3067
  C:1906H         LINE#         3068
  C:1908H         LINE#         3071
  C:190BH         LINE#         3072
  C:190EH         LINE#         3073
  C:1910H         LINE#         3074
  C:1913H         LINE#         3075
  C:1916H         LINE#         3076
  C:1919H         LINE#         3077
  C:191CH         LINE#         3078
  C:191FH         LINE#         3080
  C:1921H         LINE#         3081
  C:1923H         LINE#         3093
  C:1925H         LINE#         3094
  C:1927H         LINE#         3095
  C:1928H         LINE#         3096
  C:1929H         LINE#         3097
  C:192AH         LINE#         3098
  C:192CH         LINE#         3100
  C:192EH         LINE#         3101
  C:1930H         LINE#         3102
  C:1931H         LINE#         3103
  C:1932H         LINE#         3104
  C:1934H         LINE#         3105
  C:1936H         LINE#         3106
  C:1937H         LINE#         3108
  C:193AH         LINE#         3109
  C:193CH         LINE#         3110
  C:193DH         LINE#         3111
  C:1940H         LINE#         3114
  C:1943H         LINE#         3115
  C:1946H         LINE#         3116
  C:1949H         LINE#         3117
  C:194CH         LINE#         3118
  C:194FH         LINE#         3120
  C:1951H         LINE#         3122
  C:1952H         LINE#         3123
  C:1954H         LINE#         3124
  C:1956H         LINE#         3125
  C:1959H         LINE#         3126
  C:195BH         LINE#         3128
  C:195DH         LINE#         3129
  C:1960H         LINE#         3130
  C:1963H         LINE#         3132
  C:1965H         LINE#         3133
  C:1967H         LINE#         3134
  C:196AH         LINE#         3135
  C:196DH         LINE#         3136
BL51 BANKED LINKER/LOCATER V4.16a           02/05/2007  13:48:16  PAGE 53


  C:196FH         LINE#         3137
  C:1972H         LINE#         3138
  C:1975H         LINE#         3139
  C:1978H         LINE#         3140
  C:197BH         LINE#         3141
  C:197EH         LINE#         3142
  C:1981H         LINE#         3143
  C:1984H         LINE#         3145
  C:1987H         LINE#         3146
  C:1988H         LINE#         3147
  C:198AH         LINE#         3148
  C:198BH         LINE#         3149
  C:198DH         LINE#         3150
  C:1990H         LINE#         3151
  C:1993H         LINE#         3152
  C:1996H         LINE#         3155
  C:1999H         LINE#         3157
  C:199CH         LINE#         3159
  C:199FH         LINE#         3160
  C:19A2H         LINE#         3161
  C:19A5H         LINE#         3168
  C:19A7H         LINE#         3169
  C:19A9H         LINE#         3170
  C:19ABH         LINE#         3171
  C:19ACH         LINE#         3172
  C:19ADH         LINE#         3173
  C:19AEH         LINE#         3174
  C:19B0H         LINE#         3176
  C:19B2H         LINE#         3177
  C:19B4H         LINE#         3178
  C:19B5H         LINE#         3179
  C:19B6H         LINE#         3180
  C:19B8H         LINE#         3181
  C:19BAH         LINE#         3182
  C:19BBH         LINE#         3183
  C:19BEH         LINE#         3184
  C:19C1H         LINE#         3185
  C:19C4H         LINE#         3190
  C:19C7H         LINE#         3191
  C:19CAH         LINE#         3192
  C:19CCH         LINE#         3194
  C:19CEH         LINE#         3195
  C:19D0H         LINE#         3196
  C:19D3H         LINE#         3197
  C:19D6H         LINE#         3198
  C:19D8H         LINE#         3199
  C:19DAH         LINE#         3200
  C:19DDH         LINE#         3201
  C:19DFH         LINE#         3202
  C:19E1H         LINE#         3203
  C:19E2H         LINE#         3204
  C:19E3H         LINE#         3205
  C:19E4H         LINE#         3206
  C:19E5H         LINE#         3207
  C:19E6H         LINE#         3208
  C:19E7H         LINE#         3210
  C:19E9H         LINE#         3211
  C:19EBH         LINE#         3212
  C:19ECH         LINE#         3213
  C:19EEH         LINE#         3214
  C:19F1H         LINE#         3215
  C:19F4H         LINE#         3216
  C:19F6H         LINE#         3217
  C:19F8H         LINE#         3218
  C:19FAH         LINE#         3219
BL51 BANKED LINKER/LOCATER V4.16a           02/05/2007  13:48:16  PAGE 54


  C:19FCH         LINE#         3220
  C:19FFH         LINE#         3223
  C:1A02H         LINE#         3224
  C:1A05H         LINE#         3225
  C:1A08H         LINE#         3226
  C:1A0BH         LINE#         3227
  C:1A0EH         LINE#         3229
  C:1A10H         LINE#         3230
  C:1A12H         LINE#         3231
  C:1A14H         LINE#         3232
  C:1A17H         LINE#         3233
  C:1A1AH         LINE#         3234
  C:1A1CH         LINE#         3235
  C:1A1EH         LINE#         3236
  C:1A21H         LINE#         3237
  C:1A24H         LINE#         3238
  C:1A27H         LINE#         3239
  C:1A2AH         LINE#         3241
  C:1A2DH         LINE#         3243
  C:1A30H         LINE#         3244
  C:1A33H         LINE#         3245
  C:1A36H         LINE#         3246
  C:1A39H         LINE#         3247
  C:1A3CH         LINE#         3248
  C:1A3EH         LINE#         3249
  C:1A40H         LINE#         3250
  C:1A42H         LINE#         3253
  C:1A44H         LINE#         3254
  C:1A46H         LINE#         3255
  C:1A48H         LINE#         3256
  C:1A4AH         LINE#         3257
  C:1A4DH         LINE#         3258
  C:1A50H         LINE#         3259
  C:1A53H         LINE#         3260
  C:1A56H         LINE#         3263
  C:1A59H         LINE#         3264
  C:1A5CH         LINE#         3265
  C:1A5FH         LINE#         3266
  C:1A61H         LINE#         3267
  C:1A63H         LINE#         3268
  C:1A64H         LINE#         3269
  C:1A65H         LINE#         3270
  C:1A67H         LINE#         3272
  C:1A6AH         LINE#         3273
  C:1A6DH         LINE#         3274
  C:1A6FH         LINE#         3275
  C:1A72H         LINE#         3276
  C:1A74H         LINE#         3277
  C:1A77H         LINE#         3278
  C:1A7AH         LINE#         3279
  C:1A7DH         LINE#         3280
  C:1A7FH         LINE#         3281
  C:1A81H         LINE#         3283
  C:1A83H         LINE#         3284
  C:1A85H         LINE#         3285
  C:1A88H         LINE#         3289
  C:1A8BH         LINE#         3292
  C:1A8EH         LINE#         3293
  C:1A90H         LINE#         3295
  C:1A91H         LINE#         3296
  C:1A93H         LINE#         3297
  C:1A95H         LINE#         3298
  C:1A98H         LINE#         3299
  C:1A9AH         LINE#         3300
  C:1A9CH         LINE#         3301
BL51 BANKED LINKER/LOCATER V4.16a           02/05/2007  13:48:16  PAGE 55


  C:1A9FH         LINE#         3302
  C:1AA2H         LINE#         3303
  C:1AA5H         LINE#         3304
  C:1AA7H         LINE#         3305
  C:1AA9H         LINE#         3306
  C:1AACH         LINE#         3307
  C:1AAFH         LINE#         3308
  C:1AB2H         LINE#         3309
  C:1AB5H         LINE#         3310
  C:1AB8H         LINE#         3312
  C:1ABBH         LINE#         3313
  C:1ABEH         LINE#         3314
  C:1AC1H         LINE#         3315
  C:1AC4H         LINE#         3316
  C:1AC7H         LINE#         3317
  C:1ACAH         LINE#         3318
  C:1ACDH         LINE#         3319
  C:1ACFH         LINE#         3320
  C:1AD1H         LINE#         3321
  C:1AD3H         LINE#         3322
  C:1AD5H         LINE#         3323
  C:1AD7H         LINE#         3324
  C:1ADAH         LINE#         3325
  C:1ADDH         LINE#         3326
  C:1ADFH         LINE#         3327
  C:1AE1H         LINE#         3328
  C:1AE4H         LINE#         3329
  C:1AE7H         LINE#         3330
  C:1AE8H         LINE#         3331
  C:1AEAH         LINE#         3332
  C:1AEDH         LINE#         3333
  C:1AF0H         LINE#         3334
  C:1AF3H         LINE#         3335
  C:1AF6H         LINE#         3336
  C:1AF9H         LINE#         3337
  C:1AFCH         LINE#         3338
  C:1AFFH         LINE#         3339
  C:1B02H         LINE#         3340
  C:1B04H         LINE#         3341
  C:1B06H         LINE#         3342
  C:1B08H         LINE#         3343
  C:1B0AH         LINE#         3344
  C:1B0DH         LINE#         3345
  C:1B0FH         LINE#         3346
  C:1B11H         LINE#         3347
  C:1B13H         LINE#         3348
  C:1B15H         LINE#         3349
  C:1B17H         LINE#         3350
  C:1B19H         LINE#         3351
  C:1B1AH         LINE#         3352
  C:1B1CH         LINE#         3353
  C:1B1DH         LINE#         3354
  C:1B1FH         LINE#         3355
  C:1B20H         LINE#         3356
  C:1B22H         LINE#         3357
  C:1B23H         LINE#         3358
  C:1B24H         LINE#         3361
  C:1B27H         LINE#         3362
  C:1B2AH         LINE#         3363
  C:1B2DH         LINE#         3364
  C:1B30H         LINE#         3366
  C:1B33H         LINE#         3370
  C:1B35H         LINE#         3371
  C:1B38H         LINE#         3372
  C:1B3AH         LINE#         3373
BL51 BANKED LINKER/LOCATER V4.16a           02/05/2007  13:48:16  PAGE 56


  C:1B3CH         LINE#         3374
  C:1B3FH         LINE#         3376
  C:1B41H         LINE#         3377
  C:1B43H         LINE#         3378
  C:1B45H         LINE#         3379
  C:1B46H         LINE#         3380
  C:1B48H         LINE#         3381
  C:1B49H         LINE#         3382
  C:1B4AH         LINE#         3383
  C:1B4BH         LINE#         3384
  C:1B4DH         LINE#         3385
  C:1B4FH         LINE#         3386
  C:1B51H         LINE#         3387
  C:1B53H         LINE#         3388
  C:1B55H         LINE#         3389
  C:1B58H         LINE#         3390
  C:1B5AH         LINE#         3391
  C:1B5CH         LINE#         3392
  C:1B5EH         LINE#         3393
  C:1B5FH         LINE#         3394
  C:1B62H         LINE#         3395
  C:1B64H         LINE#         3396
  C:1B65H         LINE#         3397
  C:1B67H         LINE#         3398
  C:1B68H         LINE#         3399
  C:1B6AH         LINE#         3400
  C:1B6DH         LINE#         3402
  C:1B6FH         LINE#         3403
  C:1B70H         LINE#         3404
  C:1B72H         LINE#         3406
  C:1B73H         LINE#         3407
  C:1B75H         LINE#         3408
  C:1B77H         LINE#         3409
  C:1B78H         LINE#         3410
  C:1B79H         LINE#         3411
  C:1B7BH         LINE#         3412
  C:1B7CH         LINE#         3413
  C:1B7EH         LINE#         3414
  C:1B7FH         LINE#         3415
  C:1B81H         LINE#         3416
  C:1B84H         LINE#         3417
  C:1B87H         LINE#         3418
  C:1B8AH         LINE#         3421
  C:1B8CH         LINE#         3422
  C:1B8EH         LINE#         3423
  C:1B8FH         LINE#         3424
  C:1B91H         LINE#         3425
  C:1B94H         LINE#         3426
  C:1B97H         LINE#         3427
  C:1B9AH         LINE#         3428
  C:1B9DH         LINE#         3429
  C:1B9FH         LINE#         3430
  C:1BA1H         LINE#         3431
  C:1BA3H         LINE#         3432
  C:1BA5H         LINE#         3433
  C:1BA7H         LINE#         3435
  C:1BA9H         LINE#         3436
  C:1BABH         LINE#         3437
  C:1BADH         LINE#         3438
  C:1BAEH         LINE#         3439
  C:1BB0H         LINE#         3440
  C:1BB1H         LINE#         3441
  C:1BB3H         LINE#         3442
  C:1BB5H         LINE#         3443
  C:1BB7H         LINE#         3445
BL51 BANKED LINKER/LOCATER V4.16a           02/05/2007  13:48:16  PAGE 57


  C:1BB9H         LINE#         3446
  C:1BBBH         LINE#         3447
  C:1BBEH         LINE#         3448
  C:1BC0H         LINE#         3449
  C:1BC2H         LINE#         3450
  C:1BC4H         LINE#         3451
  C:1BC5H         LINE#         3452
  C:1BC6H         LINE#         3453
  C:1BC8H         LINE#         3455
  C:1BCBH         LINE#         3456
  C:1BCEH         LINE#         3457
  C:1BD1H         LINE#         3458
  C:1BD3H         LINE#         3459
  C:1BD5H         LINE#         3460
  C:1BD7H         LINE#         3461
  C:1BD8H         LINE#         3462
  C:1BDAH         LINE#         3463
  C:1BDBH         LINE#         3464
  C:1BDCH         LINE#         3465
  C:1BDDH         LINE#         3466
  C:1BDFH         LINE#         3467
  C:1BE2H         LINE#         3468
  C:1BE5H         LINE#         3469
  C:1BE8H         LINE#         3470
  C:1BEBH         LINE#         3471
  C:1BEDH         LINE#         3472
  C:1BEFH         LINE#         3473
  C:1BF0H         LINE#         3474
  C:1BF2H         LINE#         3475
  C:1BF3H         LINE#         3476
  C:1BF4H         LINE#         3477
  C:1BF6H         LINE#         3478
  C:1BF7H         LINE#         3479
  C:1BF8H         LINE#         3480
  C:1BF9H         LINE#         3481
  C:1BFAH         LINE#         3482
  C:1BFCH         LINE#         3483
  C:1BFDH         LINE#         3484
  C:1BFEH         LINE#         3485
  C:1C00H         LINE#         3486
  C:1C01H         LINE#         3487
  C:1C04H         LINE#         3489
  C:1C07H         LINE#         3490
  C:1C09H         LINE#         3491
  C:1C0CH         LINE#         3492
  C:1C0FH         LINE#         3493
  C:1C12H         LINE#         3494
  C:1C15H         LINE#         3495
  C:1C18H         LINE#         3498
  C:1C1AH         LINE#         3499
  C:1C1DH         LINE#         3500
  C:1C20H         LINE#         3501
  C:1C23H         LINE#         3502
  C:1C26H         LINE#         3504
  C:1C29H         LINE#         3505
  C:1C2BH         LINE#         3506
  C:1C2EH         LINE#         3507
  C:1C31H         LINE#         3510
  C:1C34H         LINE#         3511
  C:1C36H         LINE#         3512
  C:1C39H         LINE#         3513
  C:1C3CH         LINE#         3514
  C:1C3FH         LINE#         3516
  C:1C40H         LINE#         3517
  C:1C43H         LINE#         3518
BL51 BANKED LINKER/LOCATER V4.16a           02/05/2007  13:48:16  PAGE 58


  C:1C46H         LINE#         3520
  C:1C49H         LINE#         3522
  C:1C4CH         LINE#         3523
  C:1C4FH         LINE#         3525
  C:1C52H         LINE#         3526
  C:1C54H         LINE#         3528
  C:1C56H         LINE#         3529
  C:1C58H         LINE#         3530
  C:1C5BH         LINE#         3531
  C:1C5DH         LINE#         3532
  C:1C60H         LINE#         3533
  C:1C63H         LINE#         3534
  C:1C66H         LINE#         3535
  C:1C68H         LINE#         3537
  C:1C6BH         LINE#         3538
  C:1C6EH         LINE#         3539
  C:1C71H         LINE#         3540
  C:1C73H         LINE#         3542
  C:1C76H         LINE#         3545
  C:1C79H         LINE#         3546
  C:1C7BH         LINE#         3547
  C:1C7DH         LINE#         3548
  C:1C7FH         LINE#         3549
  C:1C80H         LINE#         3550
  C:1C82H         LINE#         3551
  C:1C84H         LINE#         3552
  C:1C87H         LINE#         3554
  C:1C89H         LINE#         3555
  C:1C8BH         LINE#         3556
  C:1C8EH         LINE#         3557
  C:1C91H         LINE#         3558
  C:1C93H         LINE#         3559
  C:1C96H         LINE#         3560
  C:1C98H         LINE#         3561
  C:1C9AH         LINE#         3562
  C:1C9DH         LINE#         3563
  C:1CA0H         LINE#         3565
  C:1CA3H         LINE#         3568
  C:1CA5H         LINE#         3569
  C:1CA7H         LINE#         3570
  C:1CA8H         LINE#         3571
  C:1CA9H         LINE#         3572
  C:1CABH         LINE#         3573
  C:1CAEH         LINE#         3574
  C:1CB1H         LINE#         3575
  C:1CB4H         LINE#         3576
  C:1CB6H         LINE#         3577
  C:1CB9H         LINE#         3578
  C:1CBCH         LINE#         3579
  C:1CBFH         LINE#         3581
  C:1CC0H         LINE#         3582
  C:1CC3H         LINE#         3583
  C:1CC6H         LINE#         3584
  C:1CC9H         LINE#         3586
  C:1CCCH         LINE#         3587
  C:1CCFH         LINE#         3588
  C:1CD2H         LINE#         3590
  C:1CD5H         LINE#         3591
  C:1CD7H         LINE#         3592
  C:1CD9H         LINE#         3593
  C:1CDBH         LINE#         3594
  C:1CDEH         LINE#         3595
  C:1CE1H         LINE#         3597
  C:1CE3H         LINE#         3600
  C:1CE5H         LINE#         3601
BL51 BANKED LINKER/LOCATER V4.16a           02/05/2007  13:48:16  PAGE 59


  C:1CE8H         LINE#         3602
  C:1CEBH         LINE#         3603
  C:1CEEH         LINE#         3604
  C:1CF1H         LINE#         3605
  C:1CF4H         LINE#         3606
  C:1CF7H         LINE#         3611
  C:1CF9H         LINE#         3612
  C:1CFBH         LINE#         3613
  C:1CFDH         LINE#         3614
  C:1D00H         LINE#         3619
  C:1D02H         LINE#         3620
  C:1D04H         LINE#         3621
  C:1D07H         LINE#         3622
  C:1D09H         LINE#         3623
  C:1D0AH         LINE#         3625
  C:1D0DH         LINE#         3626
  C:1D0FH         LINE#         3627
  C:1D12H         LINE#         3629
  C:1D14H         LINE#         3630
  C:1D16H         LINE#         3631
  C:1D19H         LINE#         3632
  C:1D1CH         LINE#         3634
  C:1D1FH         LINE#         3635
  C:1D22H         LINE#         3636
  C:1D24H         LINE#         3637
  C:1D27H         LINE#         3638
  C:1D29H         LINE#         3639
  C:1D2BH         LINE#         3640
  C:1D2EH         LINE#         3642
  C:1D31H         LINE#         3643
  C:1D34H         LINE#         3645
  C:1D37H         LINE#         3646
  C:1D3AH         LINE#         3647
  C:1D3DH         LINE#         3648
  C:1D40H         LINE#         3649
  C:1D43H         LINE#         3653
  C:1D45H         LINE#         3654
  C:1D47H         LINE#         3655
  C:1D4AH         LINE#         3663
  C:1D4CH         LINE#         3664
  C:1D4EH         LINE#         3665
  C:1D50H         LINE#         3666
  C:1D51H         LINE#         3667
  C:1D52H         LINE#         3668
  C:1D54H         LINE#         3669
  C:1D55H         LINE#         3670
  C:1D56H         LINE#         3671
  C:1D57H         LINE#         3672
  C:1D59H         LINE#         3673
  C:1D5BH         LINE#         3674
  C:1D5DH         LINE#         3675
  C:1D60H         LINE#         3676
  C:1D62H         LINE#         3677
  C:1D64H         LINE#         3678
  C:1D67H         LINE#         3679
  C:1D69H         LINE#         3680
  C:1D6CH         LINE#         3681
  C:1D6EH         LINE#         3682
  C:1D71H         LINE#         3684
  C:1D73H         LINE#         3685
  C:1D75H         LINE#         3686
  C:1D78H         LINE#         3687
  C:1D7BH         LINE#         3690
  C:1D7EH         LINE#         3691
  C:1D80H         LINE#         3692
BL51 BANKED LINKER/LOCATER V4.16a           02/05/2007  13:48:16  PAGE 60


  C:1D82H         LINE#         3693
  C:1D84H         LINE#         3694
  C:1D86H         LINE#         3695
  C:1D89H         LINE#         3696
  C:1D8CH         LINE#         3697
  C:1D8FH         LINE#         3699
  C:1D91H         LINE#         3700
  C:1D93H         LINE#         3701
  C:1D94H         LINE#         3702
  C:1D97H         LINE#         3703
  C:1D99H         LINE#         3704
  C:1D9AH         LINE#         3705
  C:1D9CH         LINE#         3706
  C:1D9EH         LINE#         3707
  C:1DA1H         LINE#         3709
  C:1DA3H         LINE#         3710
  C:1DA4H         LINE#         3711
  C:1DA6H         LINE#         3714
  C:1DA8H         LINE#         3715
  C:1DAAH         LINE#         3716
  C:1DADH         LINE#         3717
  C:1DB0H         LINE#         3719
  C:1DB3H         LINE#         3721
  C:1DB6H         LINE#         3722
  C:1DB9H         LINE#         3723
  C:1DBCH         LINE#         3724
  C:1DBFH         LINE#         3725
  C:1DC1H         LINE#         3726
  C:1DC3H         LINE#         3727
  C:1DC5H         LINE#         3728
  C:1DC7H         LINE#         3729
  C:1DCAH         LINE#         3731
  C:1DCDH         LINE#         3732
  C:1DD0H         LINE#         3733
  C:1DD3H         LINE#         3734
  C:1DD5H         LINE#         3735
  C:1DD8H         LINE#         3736
  C:1DDBH         LINE#         3737
  C:1DDEH         LINE#         3738
  C:1DE0H         LINE#         3739
  C:1DE3H         LINE#         3748
  C:1DE5H         LINE#         3749
  C:1DE7H         LINE#         3750
  C:1DE8H         LINE#         3751
  C:1DE9H         LINE#         3752
  C:1DEAH         LINE#         3753
  C:1DECH         LINE#         3755
  C:1DEEH         LINE#         3756
  C:1DEFH         LINE#         3757
  C:1DF1H         LINE#         3758
  C:1DF3H         LINE#         3759
  C:1DF6H         LINE#         3760
  C:1DF7H         LINE#         3761
  C:1DFAH         LINE#         3767
  C:1DFCH         LINE#         3768
  C:1DFEH         LINE#         3769
  C:1E01H         LINE#         3777
  C:1E03H         LINE#         3778
  C:1E05H         LINE#         3779
  C:1E07H         LINE#         3780
  C:1E08H         LINE#         3781
  C:1E09H         LINE#         3782
  C:1E0BH         LINE#         3783
  C:1E0CH         LINE#         3784
  C:1E0DH         LINE#         3785
BL51 BANKED LINKER/LOCATER V4.16a           02/05/2007  13:48:16  PAGE 61


  C:1E0EH         LINE#         3786
  C:1E10H         LINE#         3788
  C:1E12H         LINE#         3789
  C:1E14H         LINE#         3790
  C:1E17H         LINE#         3791
  C:1E1AH         LINE#         3792
  C:1E1DH         LINE#         3793
  C:1E20H         LINE#         3794
  C:1E23H         LINE#         3795
  C:1E26H         LINE#         3796
  C:1E28H         LINE#         3797
  C:1E2BH         LINE#         3798
  C:1E2DH         LINE#         3799
  C:1E2FH         LINE#         3801
  C:1E31H         LINE#         3802
  C:1E33H         LINE#         3803
  C:1E35H         LINE#         3804
  C:1E37H         LINE#         3805
  C:1E39H         LINE#         3806
  C:1E3AH         LINE#         3807
  C:1E3CH         LINE#         3808
  C:1E3FH         LINE#         3809
  C:1E42H         LINE#         3812
  C:1E45H         LINE#         3814
  C:1E48H         LINE#         3816
  C:1E4BH         LINE#         3817
  C:1E4EH         LINE#         3818
  C:1E51H         LINE#         3819
  C:1E54H         LINE#         3820
  C:1E57H         LINE#         3823
  C:1E5AH         LINE#         3826
  C:1E5DH         LINE#         3827
  C:1E5FH         LINE#         3828
  C:1E62H         LINE#         3830
  C:1E65H         LINE#         3832
  C:1E68H         LINE#         3833
  C:1E6AH         LINE#         3834
  C:1E6DH         LINE#         3835
  C:1E6FH         LINE#         3836
  C:1E71H         LINE#         3837
  C:1E74H         LINE#         3838
  C:1E77H         LINE#         3840
  C:1E79H         LINE#         3841
  C:1E7AH         LINE#         3842
  C:1E7DH         LINE#         3844
  C:1E80H         LINE#         3845
  C:1E82H         LINE#         3854
  C:1E84H         LINE#         3855
  C:1E86H         LINE#         3856
  C:1E87H         LINE#         3857
  C:1E88H         LINE#         3858
  C:1E89H         LINE#         3859
  C:1E8BH         LINE#         3861
  C:1E8DH         LINE#         3862
  C:1E8EH         LINE#         3863
  C:1E90H         LINE#         3864
  C:1E92H         LINE#         3865
  C:1E95H         LINE#         3866
  C:1E98H         LINE#         3867
  C:1E99H         LINE#         3869
  C:1E9CH         LINE#         3870
  C:1E9EH         LINE#         3871
  C:1EA1H         LINE#         3872
  C:1EA3H         LINE#         3873
  C:1EA4H         LINE#         3874
BL51 BANKED LINKER/LOCATER V4.16a           02/05/2007  13:48:16  PAGE 62


  C:1EA7H         LINE#         3875
  C:1EA9H         LINE#         3878
  C:1EABH         LINE#         3879
  C:1EADH         LINE#         3880
  C:1EB0H         LINE#         3881
  C:1EB3H         LINE#         3883
  C:1EB5H         LINE#         3884
  C:1EB7H         LINE#         3885
  C:1EBAH         LINE#         3886
  C:1EBDH         LINE#         3887
  C:1EC0H         LINE#         3888
  C:1EC2H         LINE#         3889
  C:1EC5H         LINE#         3891
  C:1EC7H         LINE#         3892
  C:1EC9H         LINE#         3894
  C:1ECCH         LINE#         3895
  C:1ECFH         LINE#         3897
  C:1ED2H         LINE#         3899
  C:1ED5H         LINE#         3901
  C:1ED8H         LINE#         3902
  C:1EDAH         LINE#         3906
  C:1EDCH         LINE#         3907
  C:1EDEH         LINE#         3908
  C:1EE1H         LINE#         3909
  C:1EE4H         LINE#         3910
  C:1EE6H         LINE#         3911
  C:1EE8H         LINE#         3912
  C:1EEBH         LINE#         3913
  C:1EEEH         LINE#         3914
  C:1EF1H         LINE#         3915
  C:1EF4H         LINE#         3916
  C:1EF5H         LINE#         3917
  C:1EF7H         LINE#         3918
  C:1EF8H         LINE#         3919
  C:1EFAH         LINE#         3920
  C:1EFDH         LINE#         3922
  C:1EFFH         LINE#         3923
  C:1F01H         LINE#         3924
  C:1F03H         LINE#         3925
  C:1F05H         LINE#         3926
  C:1F08H         LINE#         3930
  C:1F0AH         LINE#         3931
  C:1F0CH         LINE#         3932
  C:1F0EH         LINE#         3933
  C:1F10H         LINE#         3934
  C:1F12H         LINE#         3935
  C:1F14H         LINE#         3936
  C:1F16H         LINE#         3937
  C:1F18H         LINE#         3938
  C:1F1AH         LINE#         3939
  C:1F1CH         LINE#         3940
  C:1F1EH         LINE#         3941
  C:1F20H         LINE#         3942
  C:1F22H         LINE#         3943
  C:1F24H         LINE#         3944
  C:1F26H         LINE#         3945
  C:1F29H         LINE#         3947
  C:1F2CH         LINE#         3948
  C:1F2EH         LINE#         3949
  C:1F30H         LINE#         3950
  C:1F32H         LINE#         3951
  C:1F34H         LINE#         3952
  C:1F35H         LINE#         3953
  C:1F36H         LINE#         3955
  C:1F38H         LINE#         3956
BL51 BANKED LINKER/LOCATER V4.16a           02/05/2007  13:48:16  PAGE 63


  C:1F3AH         LINE#         3957
  C:1F3CH         LINE#         3958
  C:1F3DH         LINE#         3964
  C:1F3FH         LINE#         3965
  C:1F42H         LINE#         3966
  C:1F45H         LINE#         3967
  C:1F48H         LINE#         3968
  C:1F49H         LINE#         3969
  C:1F4CH         LINE#         3970
  C:1F4FH         LINE#         3971
  C:1F51H         LINE#         3972
  C:1F54H         LINE#         3973
  C:1F57H         LINE#         3974
  C:1F59H         LINE#         3975
  C:1F5CH         LINE#         3976
  C:1F5FH         LINE#         3977
  C:1F61H         LINE#         3978
  C:1F64H         LINE#         3979
  C:1F67H         LINE#         3980
  C:1F69H         LINE#         3982
  C:1F6CH         LINE#         3983
  C:1F6FH         LINE#         3984
  C:1F71H         LINE#         3985
  C:1F74H         LINE#         3986
  C:1F77H         LINE#         3987
  C:1F79H         LINE#         3988
  C:1F7CH         LINE#         3989
  C:1F7FH         LINE#         3990
  C:1F81H         LINE#         3991
  C:1F84H         LINE#         3992
  C:1F87H         LINE#         3993
  C:1F89H         LINE#         3996
  C:1F8CH         LINE#         3997
  C:1F8EH         LINE#         3999
  C:1F91H         LINE#         4001
  C:1F94H         LINE#         4002
  C:1F96H         LINE#         4003
  C:1F99H         LINE#         4005
  C:1F9CH         LINE#         4006
  C:1F9DH         LINE#         4007
  C:1F9FH         LINE#         4008
  C:1FA0H         LINE#         4009
  C:1FA3H         LINE#         4010
  C:1FA5H         LINE#         4011
  C:1FA8H         LINE#         4012
  C:1FABH         LINE#         4014
  C:1FAEH         LINE#         4015
  C:1FB1H         LINE#         4016
  C:1FB4H         LINE#         4017
  C:1FB7H         LINE#         4019
  C:1FB9H         LINE#         4020
  C:1FBCH         LINE#         4023
  C:1FBEH         LINE#         4024
  C:1FC0H         LINE#         4025
  C:1FC2H         LINE#         4026
  C:1FC5H         LINE#         4028
  C:1FC8H         LINE#         4029
  C:1FCAH         LINE#         4030
  C:1FCDH         LINE#         4031
  C:1FCEH         LINE#         4032
  C:1FCFH         LINE#         4033
  C:1FD0H         LINE#         4034
  C:1FD1H         LINE#         4035
  C:1FD2H         LINE#         4036
  C:1FD3H         LINE#         4037
BL51 BANKED LINKER/LOCATER V4.16a           02/05/2007  13:48:16  PAGE 64


  C:1FD4H         LINE#         4038
  C:1FD5H         LINE#         4039
  C:1FD6H         LINE#         4040
  C:1FD7H         LINE#         4041
  C:1FD8H         LINE#         4045
  C:1FDBH         LINE#         4046
  C:1FDDH         LINE#         4047
  C:1FE0H         LINE#         4049
  C:1FE2H         LINE#         4050
  C:1FE4H         LINE#         4051
  C:1FE7H         LINE#         4052
  C:1FEAH         LINE#         4054
  C:1FECH         LINE#         4055
  C:1FEFH         LINE#         4057
  C:1FF1H         LINE#         4059
  C:1FF4H         LINE#         4060
  C:1FF5H         LINE#         4061
  C:1FF6H         LINE#         4062
  C:1FF8H         LINE#         4063
  C:1FF9H         LINE#         4064
  C:1FFAH         LINE#         4065
  C:1FFBH         LINE#         4066
  C:1FFDH         LINE#         4067
  C:2000H         LINE#         4071
  C:2002H         LINE#         4072
  C:2004H         LINE#         4073
  C:2007H         LINE#         4074
  C:200AH         LINE#         4075
  C:200DH         LINE#         4076
  C:2010H         LINE#         4077
  C:2013H         LINE#         4078
  C:2016H         LINE#         4080
  C:2018H         LINE#         4081
  C:201AH         LINE#         4082
  C:201DH         LINE#         4083
  C:2020H         LINE#         4084
  C:2022H         LINE#         4085
  C:2024H         LINE#         4086
  C:2026H         LINE#         4087
  C:2028H         LINE#         4088
  C:202AH         LINE#         4089
  C:202CH         LINE#         4090
  C:202FH         LINE#         4091
  C:2032H         LINE#         4092
  C:2035H         LINE#         4093
  C:2037H         LINE#         4094
  C:2039H         LINE#         4095
  C:203BH         LINE#         4096
  C:203DH         LINE#         4097
  C:2040H         LINE#         4099
  C:2043H         LINE#         4100
  C:2046H         LINE#         4101
  C:2049H         LINE#         4102
  C:204BH         LINE#         4103
  C:204DH         LINE#         4104
  C:204FH         LINE#         4105
  C:2051H         LINE#         4107
  C:2053H         LINE#         4108
  C:2056H         LINE#         4109
  C:2059H         LINE#         4110
  C:205CH         LINE#         4111
  C:205EH         LINE#         4112
  C:2060H         LINE#         4113
  C:2062H         LINE#         4114
  C:2064H         LINE#         4115
BL51 BANKED LINKER/LOCATER V4.16a           02/05/2007  13:48:16  PAGE 65


  C:2067H         LINE#         4117
  C:206AH         LINE#         4118
  C:206DH         LINE#         4119
  C:2070H         LINE#         4120
  C:2073H         LINE#         4121
  C:2075H         LINE#         4122
  C:2078H         LINE#         4124
  C:207AH         LINE#         4125
  C:207CH         LINE#         4126
  C:207EH         LINE#         4127
  C:2081H         LINE#         4129
  C:2083H         LINE#         4130
  C:2086H         LINE#         4131
  C:2088H         LINE#         4133
  C:2089H         LINE#         4134
  C:208AH         LINE#         4135
  C:208BH         LINE#         4136
  C:208CH         LINE#         4137
  C:208DH         LINE#         4138
  C:208EH         LINE#         4139
  C:208FH         LINE#         4140
  C:2090H         LINE#         4141
  C:2091H         LINE#         4142
  C:2092H         LINE#         4143
  C:2093H         LINE#         4147
  C:2096H         LINE#         4148
  C:2098H         LINE#         4149
  C:209BH         LINE#         4151
  C:209DH         LINE#         4152
  C:209FH         LINE#         4153
  C:20A2H         LINE#         4154
  C:20A5H         LINE#         4156
  C:20A7H         LINE#         4157
  C:20AAH         LINE#         4158
  C:20ADH         LINE#         4163
  C:20B0H         LINE#         4164
  C:20B2H         LINE#         4165
  C:20B4H         LINE#         4166
  C:20B5H         LINE#         4167
  C:20B6H         LINE#         4168
  C:20B8H         LINE#         4169
  C:20B9H         LINE#         4170
  C:20BBH         LINE#         4171
  C:20BEH         LINE#         4172
  C:20C0H         LINE#         4173
  C:20C2H         LINE#         4174
  C:20C5H         LINE#         4175
  C:20C7H         LINE#         4176
  C:20C8H         LINE#         4177
  C:20CAH         LINE#         4178
  C:20CBH         LINE#         4180
  C:20CDH         LINE#         4181
  C:20CEH         LINE#         4182
  C:20D0H         LINE#         4183
  C:20D1H         LINE#         4184
  C:20D2H         LINE#         4185
  C:20D4H         LINE#         4187
  C:20D5H         LINE#         4188
  C:20D7H         LINE#         4189
  C:20D9H         LINE#         4190
  C:20DBH         LINE#         4191
  C:20DDH         LINE#         4192
  C:20DFH         LINE#         4193
  C:20E1H         LINE#         4195
  C:20E3H         LINE#         4196
BL51 BANKED LINKER/LOCATER V4.16a           02/05/2007  13:48:16  PAGE 66


  C:20E5H         LINE#         4197
  C:20E6H         LINE#         4198
  C:20E7H         LINE#         4199
  C:20E9H         LINE#         4200
  C:20EAH         LINE#         4202
  C:20EBH         LINE#         4203
  C:20EDH         LINE#         4204
  C:20EEH         LINE#         4205
  C:20EFH         LINE#         4206
  C:20F1H         LINE#         4207
  C:20F3H         LINE#         4208
  C:20F4H         LINE#         4209
  C:20F5H         LINE#         4210
  C:20F7H         LINE#         4214
  C:20FAH         LINE#         4215
  C:20FDH         LINE#         4216
  C:2100H         LINE#         4217
  C:2102H         LINE#         4218
  C:2105H         LINE#         4219
  C:2108H         LINE#         4220
  C:210AH         LINE#         4221
  C:210DH         LINE#         4222
  C:210FH         LINE#         4223
  C:2110H         LINE#         4224
  C:2112H         LINE#         4226
  C:2115H         LINE#         4227
  C:2118H         LINE#         4228
  C:211BH         LINE#         4229
  C:211DH         LINE#         4230
  C:2120H         LINE#         4231
  C:2123H         LINE#         4232
  C:2125H         LINE#         4233
  C:2128H         LINE#         4234
  C:2129H         LINE#         4235
  C:212AH         LINE#         4236
  C:212BH         LINE#         4237
  C:212CH         LINE#         4238
  C:212EH         LINE#         4239
  C:212FH         LINE#         4240
  C:2131H         LINE#         4241
  C:2132H         LINE#         4242
  C:2135H         LINE#         4243
  C:2138H         LINE#         4244
  C:213AH         LINE#         4245
  C:213DH         LINE#         4246
  C:2140H         LINE#         4247
  C:2143H         LINE#         4248
  C:2146H         LINE#         4249
  C:2149H         LINE#         4250
  C:214CH         LINE#         4251
  C:214FH         LINE#         4252
  C:2151H         LINE#         4253
  C:2154H         LINE#         4256
  C:2156H         LINE#         4257
  C:2158H         LINE#         4258
  C:215BH         LINE#         4260
  C:215DH         LINE#         4261
  C:215FH         LINE#         4262
  C:2161H         LINE#         4263
  C:2162H         LINE#         4264
  C:2164H         LINE#         4265
  C:2165H         LINE#         4266
  C:2166H         LINE#         4267
  C:2167H         LINE#         4268
  C:2169H         LINE#         4269
BL51 BANKED LINKER/LOCATER V4.16a           02/05/2007  13:48:16  PAGE 67


  C:216BH         LINE#         4270
  C:216DH         LINE#         4271
  C:2170H         LINE#         4272
  C:2172H         LINE#         4273
  C:2175H         LINE#         4274
  C:2176H         LINE#         4277
  C:2177H         LINE#         4278
  C:2178H         LINE#         4279
  C:2179H         LINE#         4280
  C:217AH         LINE#         4281
  C:217BH         LINE#         4282
  C:217CH         LINE#         4283
  C:217DH         LINE#         4284
  C:217EH         LINE#         4285
  C:217FH         LINE#         4286
  C:2180H         LINE#         4287
  C:2181H         LINE#         4288
  C:2182H         LINE#         4290
  C:2183H         LINE#         4291
  C:2185H         LINE#         4292
  C:2187H         LINE#         4293
  C:2189H         LINE#         4294
  C:218BH         LINE#         4295
  C:218DH         LINE#         4296
  C:218FH         LINE#         4297
  C:2190H         LINE#         4301
  C:2193H         LINE#         4304
  C:2196H         LINE#         4306
  C:2198H         LINE#         4308
  C:2199H         LINE#         4309
  C:219AH         LINE#         4310
  C:219BH         LINE#         4311
  C:219CH         LINE#         4312
  C:219DH         LINE#         4313
  C:219EH         LINE#         4314
  C:219FH         LINE#         4315
  C:21A0H         LINE#         4316
  C:21A1H         LINE#         4317
  C:21A2H         LINE#         4318
  C:21A3H         LINE#         4319
  C:21A4H         LINE#         4320
  C:21A5H         LINE#         4321
  C:21A6H         LINE#         4322
  C:21A7H         LINE#         4324
  C:21A9H         LINE#         4325
  C:21ACH         LINE#         4326
  C:21AFH         LINE#         4327
  C:21B1H         LINE#         4328
  C:21B4H         LINE#         4330
  C:21B7H         LINE#         4333
  C:21B9H         LINE#         4334
  C:21BBH         LINE#         4335
  C:21BCH         LINE#         4336
  C:21BDH         LINE#         4337
  C:21BFH         LINE#         4338
  C:21C0H         LINE#         4340
  C:21C2H         LINE#         4341
  C:21C4H         LINE#         4342
  C:21C7H         LINE#         4343
  C:21C9H         LINE#         4344
  C:21CAH         LINE#         4345
  C:21CCH         LINE#         4346
  C:21CDH         LINE#         4348
  C:21CFH         LINE#         4349
  C:21D0H         LINE#         4350
BL51 BANKED LINKER/LOCATER V4.16a           02/05/2007  13:48:16  PAGE 68


  C:21D2H         LINE#         4351
  C:21D3H         LINE#         4352
  C:21D4H         LINE#         4353
  C:21D6H         LINE#         4355
  C:21D7H         LINE#         4356
  C:21D9H         LINE#         4357
  C:21DBH         LINE#         4358
  C:21DDH         LINE#         4359
  C:21DFH         LINE#         4360
  C:21E1H         LINE#         4361
  C:21E3H         LINE#         4363
  C:21E5H         LINE#         4364
  C:21E7H         LINE#         4365
  C:21E8H         LINE#         4366
  C:21E9H         LINE#         4367
  C:21EBH         LINE#         4368
  C:21ECH         LINE#         4370
  C:21EDH         LINE#         4371
  C:21EFH         LINE#         4372
  C:21F0H         LINE#         4373
  C:21F1H         LINE#         4374
  C:21F3H         LINE#         4375
  C:21F5H         LINE#         4376
  C:21F6H         LINE#         4377
  C:21F7H         LINE#         4378
  C:21F9H         LINE#         4382
  C:21FBH         LINE#         4383
  C:21FEH         LINE#         4385
  C:2201H         LINE#         4386
  C:2204H         LINE#         4388
  C:2207H         LINE#         4390
  C:220AH         LINE#         4391
  C:220CH         LINE#         4392
  C:220EH         LINE#         4393
  C:2211H         LINE#         4394
  C:2213H         LINE#         4395
  C:2214H         LINE#         4396
  C:2216H         LINE#         4398
  C:2218H         LINE#         4399
  C:221BH         LINE#         4401
  C:221EH         LINE#         4402
  C:2221H         LINE#         4404
  C:2224H         LINE#         4406
  C:2227H         LINE#         4407
  C:2229H         LINE#         4408
  C:222BH         LINE#         4409
  C:222EH         LINE#         4412
  C:2230H         LINE#         4413
  C:2233H         LINE#         4417
  C:2236H         LINE#         4418
  C:2239H         LINE#         4419
  C:223CH         LINE#         4420
  C:223FH         LINE#         4422
  C:2242H         LINE#         4423
  C:2244H         LINE#         4424
  C:2247H         LINE#         4427
  C:2249H         LINE#         4428
  C:224BH         LINE#         4429
  C:224EH         LINE#         4431
  C:2250H         LINE#         4432
  C:2252H         LINE#         4433
  C:2254H         LINE#         4434
  C:2255H         LINE#         4435
  C:2257H         LINE#         4436
  C:2258H         LINE#         4437
BL51 BANKED LINKER/LOCATER V4.16a           02/05/2007  13:48:16  PAGE 69


  C:2259H         LINE#         4438
  C:225AH         LINE#         4439
  C:225CH         LINE#         4440
  C:225EH         LINE#         4441
  C:2260H         LINE#         4442
  C:2263H         LINE#         4443
  C:2265H         LINE#         4444
  C:2268H         LINE#         4445
  C:2269H         LINE#         4451
  C:226CH         LINE#         4455
  C:226FH         LINE#         4457
  C:2271H         LINE#         4459
  C:2272H         LINE#         4460
  C:2273H         LINE#         4461
  C:2274H         LINE#         4462
  C:2275H         LINE#         4463
  C:2276H         LINE#         4464
  C:2277H         LINE#         4465
  C:2278H         LINE#         4466
  C:2279H         LINE#         4467
  C:227AH         LINE#         4468
  C:227BH         LINE#         4469
  C:227CH         LINE#         4470
  C:227DH         LINE#         4471
  C:227EH         LINE#         4472
  C:227FH         LINE#         4473
  C:2280H         LINE#         4475
  C:2282H         LINE#         4476
  C:2285H         LINE#         4477
  C:2288H         LINE#         4478
  C:228AH         LINE#         4479
  C:228DH         LINE#         4481
  C:2290H         LINE#         4484
  C:2292H         LINE#         4485
  C:2294H         LINE#         4486
  C:2295H         LINE#         4487
  C:2296H         LINE#         4488
  C:2298H         LINE#         4489
  C:2299H         LINE#         4491
  C:229BH         LINE#         4492
  C:229DH         LINE#         4493
  C:22A0H         LINE#         4494
  C:22A2H         LINE#         4495
  C:22A3H         LINE#         4496
  C:22A5H         LINE#         4497
  C:22A6H         LINE#         4499
  C:22A8H         LINE#         4500
  C:22A9H         LINE#         4501
  C:22ABH         LINE#         4502
  C:22ACH         LINE#         4503
  C:22ADH         LINE#         4504
  C:22AFH         LINE#         4506
  C:22B0H         LINE#         4507
  C:22B2H         LINE#         4508
  C:22B4H         LINE#         4509
  C:22B6H         LINE#         4510
  C:22B8H         LINE#         4511
  C:22BAH         LINE#         4512
  C:22BCH         LINE#         4514
  C:22BEH         LINE#         4515
  C:22C0H         LINE#         4516
  C:22C1H         LINE#         4517
  C:22C2H         LINE#         4518
  C:22C4H         LINE#         4519
  C:22C5H         LINE#         4521
BL51 BANKED LINKER/LOCATER V4.16a           02/05/2007  13:48:16  PAGE 70


  C:22C6H         LINE#         4522
  C:22C8H         LINE#         4523
  C:22C9H         LINE#         4524
  C:22CAH         LINE#         4525
  C:22CCH         LINE#         4526
  C:22CEH         LINE#         4527
  C:22CFH         LINE#         4528
  C:22D0H         LINE#         4529
  C:22D2H         LINE#         4533
  C:22D4H         LINE#         4534
  C:22D7H         LINE#         4536
  C:22DAH         LINE#         4537
  C:22DDH         LINE#         4539
  C:22E0H         LINE#         4541
  C:22E3H         LINE#         4542
  C:22E5H         LINE#         4543
  C:22E7H         LINE#         4544
  C:22EAH         LINE#         4545
  C:22ECH         LINE#         4546
  C:22EDH         LINE#         4547
  C:22EFH         LINE#         4548
  C:22F1H         LINE#         4549
  C:22F4H         LINE#         4551
  C:22F7H         LINE#         4552
  C:22FAH         LINE#         4554
  C:22FDH         LINE#         4556
  C:2300H         LINE#         4557
  C:2302H         LINE#         4558
  C:2304H         LINE#         4559
  C:2307H         LINE#         4562
  -------         ENDMOD        MAIN

LINK/LOCATE RUN COMPLETE.  0 WARNING(S),  0 ERROR(S)
