BL51 BANKED LINKER/LOCATER V4.16a             01/09/2008  13:19:07  PAGE 1


BL51 BANKED LINKER/LOCATER V4.16a, INVOKED BY:
D:\PROGRAM FILES\CYGNAL\IDEFILES\C51\BIN\BL51.EXE D:\AMP\AMP36_2.OBJ TO D:\AMP
>> \AMP36_2 RS (256) PL (68) PW (78)


INPUT MODULES INCLUDED:
  D:\AMP\AMP36_2.OBJ (MAIN)


LINK MAP OF MODULE:  D:\AMP\AMP36_2 (MAIN)


            TYPE    BASE      LENGTH    RELOCATION   SEGMENT NAME
            -----------------------------------------------------

            * * * * * * *   D A T A   M E M O R Y   * * * * * * *
            REG     0000H     0008H     ABSOLUTE     "REG BANK 0"

            * * * * * * *   C O D E   M E M O R Y   * * * * * * *
            CODE    0000H     04C9H     ABSOLUTE     
            CODE    04C9H     2CDFH     UNIT         MAIN



SYMBOL TABLE OF MODULE:  D:\AMP\AMP36_2 (MAIN)

  VALUE           TYPE          NAME
  ----------------------------------

  -------         MODULE        MAIN
  C:04C9H         SEGMENT       MAIN
  X:0100H         PUBLIC        MASS0
  B:00C0H.2       SYMBOL        AA
  C:0880H         SYMBOL        AAPAR
  D:004FH         SYMBOL        ABIN
  C:29BAH         SYMBOL        ABRET
  C:03F3H         SYMBOL        ABTOF
  B:00D0H.6       SYMBOL        AC
  D:00E0H         SYMBOL        ACC
  B:00E8H.4       SYMBOL        AD0BUSY
  B:00E8H.7       SYMBOL        AD0EN
  B:00E8H.5       SYMBOL        AD0INT
  B:00E8H.0       SYMBOL        AD0LJST
  B:00E8H.2       SYMBOL        AD0STM0
  B:00E8H.3       SYMBOL        AD0STM1
  B:00E8H.6       SYMBOL        AD0TM
  B:00E8H.1       SYMBOL        AD0WINT
  D:00BCH         SYMBOL        ADC0CF
  D:00E8H         SYMBOL        ADC0CN
  D:00C5H         SYMBOL        ADC0GTH
  D:00C4H         SYMBOL        ADC0GTL
  D:00BFH         SYMBOL        ADC0H
  D:00BEH         SYMBOL        ADC0L
  D:00C7H         SYMBOL        ADC0LTH
  D:00C6H         SYMBOL        ADC0LTL
  D:009CH         SYMBOL        ADC1
  D:00ABH         SYMBOL        ADC1CF
  D:00AAH         SYMBOL        ADC1CN
  C:317FH         SYMBOL        ADDX
  D:0053H         SYMBOL        ADEC
  C:2E33H         SYMBOL        ADRBLOK
  C:0B77H         SYMBOL        AFTERK
  C:0717H         SYMBOL        AGE2
  C:0D3DH         SYMBOL        AGE9
  C:0725H         SYMBOL        AGEON
  C:081EH         SYMBOL        ALLSUM
BL51 BANKED LINKER/LOCATER V4.16a           01/09/2008  13:19:07  PAGE 2


  C:30C6H         SYMBOL        ALMUL
  C:0402H         SYMBOL        ALTOF
  C:041EH         SYMBOL        ALTOF1
  D:00BAH         SYMBOL        AMX0CF
  D:00BBH         SYMBOL        AMX0SL
  D:00ACH         SYMBOL        AMX1SL
  C:0ADDH         SYMBOL        ANKOR
  C:0F50H         SYMBOL        ANLP1
  C:1715H         SYMBOL        AN_T7
  C:116DH         SYMBOL        AUTOKA
  C:0CA8H         SYMBOL        AVPGO
  C:0B39H         SYMBOL        AVTDEC1
  C:03FCH         SYMBOL        AWTOF
  D:00F0H         SYMBOL        B
  C:05C9H         SYMBOL        BEGIN
  C:2D70H         SYMBOL        BFORM
  B:0021H.5       SYMBOL        BIFL_KT
  C:2EE2H         SYMBOL        BIN30
  C:2EE6H         SYMBOL        BIN31
  C:2EF6H         SYMBOL        BIN32
  C:2F07H         SYMBOL        BIN41
  C:2ED6H         SYMBOL        BINDEC
  B:0023H.2       SYMBOL        BITAKT
  B:0020H.5       SYMBOL        BITAVP
  B:0021H.2       SYMBOL        BITBON
  B:0021H.0       SYMBOL        BITBUF
  B:0022H.5       SYMBOL        BITEIZM
  B:0020H.4       SYMBOL        BITIZM
  B:0022H.2       SYMBOL        BITKLB
  B:0020H.1       SYMBOL        BITMAS
  B:0021H.3       SYMBOL        BITMEM
  B:0022H.1       SYMBOL        BITMENU
  B:0023H.1       SYMBOL        BITMIG
  B:0021H.7       SYMBOL        BITNUL
  B:0022H.7       SYMBOL        BITOLL
  B:0022H.6       SYMBOL        BITPAR
  B:0021H.1       SYMBOL        BITPRD
  B:0023H.4       SYMBOL        BITPRER
  B:0020H.3       SYMBOL        BITRS
  B:0022H.0       SYMBOL        BITT2
  B:0022H.3       SYMBOL        BITV19
  B:0020H.6       SYMBOL        BITVI11
  B:0022H.4       SYMBOL        BITVICH
  B:0020H.0       SYMBOL        BITZNAK
  B:0023H.3       SYMBOL        BITZNB
  B:0020H.7       SYMBOL        BITZUS
  C:1BCEH         SYMBOL        BLOIN
  C:1BA0H         SYMBOL        BLOKVV
  C:1BAAH         SYMBOL        BLOKVVC
  C:1B6BH         SYMBOL        BL_LI
  C:113DH         SYMBOL        BONPART
  C:18EFH         SYMBOL        BOUT7
  C:27FBH         SYMBOL        BRET
  C:0E94H         SYMBOL        BUFDEC
  D:0040H         SYMBOL        BUFIND
  C:26A2H         SYMBOL        BUFL_DEC
  C:24C1H         SYMBOL        BUFMEA
  C:25D0H         SYMBOL        BUFMIN
  C:12CDH         SYMBOL        BUFON
  C:0DE2H         SYMBOL        BUFR
  C:0DC4H         SYMBOL        BUFR2
  C:0DBDH         SYMBOL        BUFR3
  C:0DC0H         SYMBOL        BUFR30
  B:00D8H.0       SYMBOL        CCF0
  B:00D8H.1       SYMBOL        CCF1
BL51 BANKED LINKER/LOCATER V4.16a           01/09/2008  13:19:07  PAGE 3


  B:00D8H.2       SYMBOL        CCF2
  B:00D8H.3       SYMBOL        CCF3
  B:00D8H.4       SYMBOL        CCF4
  C:01F7H         SYMBOL        CDONE
  D:0020H         SYMBOL        CELLBIT
  D:0021H         SYMBOL        CELLBIT1
  D:0022H         SYMBOL        CELLBIT2
  D:0023H         SYMBOL        CELLBIT3
  C:01E2H         SYMBOL        CEXP
  B:00D8H.7       SYMBOL        CF
  C:289EH         SYMBOL        CH0
  C:28BEH         SYMBOL        CH1
  C:28A2H         SYMBOL        CH10
  C:28B6H         SYMBOL        CH100
  C:28B2H         SYMBOL        CH10000
  C:2906H         SYMBOL        CH150H
  C:28BAH         SYMBOL        CH2
  C:2A81H         SYMBOL        CH20
  C:28E6H         SYMBOL        CH2THO
  C:2902H         SYMBOL        CH320H
  C:28AAH         SYMBOL        CH4
  C:1DD9H         SYMBOL        CH43
  C:1E80H         SYMBOL        CH43_42
  C:28A6H         SYMBOL        CH5
  C:2A7DH         SYMBOL        CH57
  C:28AEH         SYMBOL        CH954
  C:1A04H         SYMBOL        CHAIBL
  C:1D2EH         SYMBOL        CHAIPR
  C:14A8H         SYMBOL        CHANMA
  C:148FH         SYMBOL        CHANZ
  D:0081H         SYMBOL        CHAVT
  D:009BH         SYMBOL        CHBEFORE
  D:00D6H         SYMBOL        CHBLOK
  D:00CFH         SYMBOL        CHBUF
  X:0E00H         SYMBOL        CHBUF1
  C:279EH         SYMBOL        CHCMP
  C:27B1H         SYMBOL        CHDEC
  D:0083H         SYMBOL        CHDEL
  C:1128H         SYMBOL        CHDELMO
  C:2AC6H         SYMBOL        CHIF
  C:2ACEH         SYMBOL        CHIF5
  C:2AF1H         SYMBOL        CHIFB
  C:2AF7H         SYMBOL        CHIFB1
  C:2AFFH         SYMBOL        CHIFL5
  C:2AE0H         SYMBOL        CHIFOUR
  D:00ACH         SYMBOL        CHIND
  D:0033H         SYMBOL        CHIND2
  D:0098H         SYMBOL        CHINKOR
  C:28FEH         SYMBOL        CHK
  D:003DH         SYMBOL        CHKL
  D:006EH         SYMBOL        CHMAS
  D:003FH         SYMBOL        CHMASN
  C:2E18H         SYMBOL        CHMINUS
  C:2748H         SYMBOL        CHTADC
  C:28DEH         SYMBOL        CHTHO
  C:2985H         SYMBOL        CHTHOU
  C:289AH         SYMBOL        CHZAP
  C:28C6H         SYMBOL        CH_1
  C:28F6H         SYMBOL        CH_10
  C:28F2H         SYMBOL        CH_10TH
  C:28CAH         SYMBOL        CH_2
  C:28EEH         SYMBOL        CH_200
  C:28EAH         SYMBOL        CH_220
  C:29C3H         SYMBOL        CH_22T
  C:28FAH         SYMBOL        CH_250
BL51 BANKED LINKER/LOCATER V4.16a           01/09/2008  13:19:07  PAGE 4


  C:28CEH         SYMBOL        CH_4
  C:28D2H         SYMBOL        CH_5
  C:29BFH         SYMBOL        CH_500
  C:28D6H         SYMBOL        CH_7
  C:28DAH         SYMBOL        CH_953
  C:29BBH         SYMBOL        CH_B
  C:29C7H         SYMBOL        CH_FL
  C:290AH         SYMBOL        CH_M3
  C:28C2H         SYMBOL        CH_MLN
  C:2D46H         SYMBOL        CIKLWR
  D:008EH         SYMBOL        CKCON
  C:291CH         SYMBOL        CL4
  C:2922H         SYMBOL        CL4N
  C:1E6DH         SYMBOL        CLE20
  C:043EH         SYMBOL        CLE256
  C:2ED0H         SYMBOL        CLEAR
  C:2919H         SYMBOL        CLEAR4
  C:2921H         SYMBOL        CLEARN
  C:2D36H         SYMBOL        CLMASSIX
  C:0CADH         SYMBOL        CLMASV
  C:2D3BH         SYMBOL        CLMAX
  C:2ED1H         SYMBOL        CLR11
  C:2ECAH         SYMBOL        CLRDEC
  C:2ECEH         SYMBOL        CLRNUM
  C:185CH         SYMBOL        CLRVICH
  C:1AB7H         SYMBOL        CL_HL
  C:1AC9H         SYMBOL        CL_HL1
  C:1AD3H         SYMBOL        CL_HL2
  C:1ADDH         SYMBOL        CL_HL3
  N:0006H         SYMBOL        CNTR
  C:2882H         SYMBOL        CO02S
  C:288FH         SYMBOL        CO05S
  C:2879H         SYMBOL        CO1S
  C:2875H         SYMBOL        CO2S
  C:0D59H         SYMBOL        COMPA1
  C:0D8FH         SYMBOL        COMPA2
  C:2DAAH         SYMBOL        COND
  C:049FH         SYMBOL        COPY1
  C:0499H         SYMBOL        COPYPP
  D:00D7H         SYMBOL        COPY_HL
  C:2857H         SYMBOL        COUNT
  B:00C8H.0       SYMBOL        CPRL2
  D:009EH         SYMBOL        CPT0CN
  D:009FH         SYMBOL        CPT1CN
  B:00D8H.6       SYMBOL        CR
  C:285EH         SYMBOL        CT
  B:00C8H.1       SYMBOL        CT2
  B:00D0H.7       SYMBOL        CY
  D:00D4H         SYMBOL        DAC0CN
  D:00D3H         SYMBOL        DAC0H
  D:00D2H         SYMBOL        DAC0L
  D:00D7H         SYMBOL        DAC1CN
  D:00D6H         SYMBOL        DAC1H
  D:00D5H         SYMBOL        DAC1L
  C:2DAFH         SYMBOL        DCOA
  C:2DB6H         SYMBOL        DCOB
  C:2DC1H         SYMBOL        DCOC
  C:2DCEH         SYMBOL        DCOD
  C:1B20H         SYMBOL        DDOUTF
  C:19E8H         SYMBOL        DDOUTFR
  C:2F23H         SYMBOL        DEC30
  C:2F28H         SYMBOL        DEC31
  C:2F38H         SYMBOL        DEC32
  C:2F16H         SYMBOL        DECBIN
  N:000AH         SYMBOL        DECSIZE
BL51 BANKED LINKER/LOCATER V4.16a           01/09/2008  13:19:07  PAGE 5


  C:2F41H         SYMBOL        DECT2
  C:3196H         SYMBOL        DEDPTR
  C:0133H         SYMBOL        DENORM
  C:1CB2H         SYMBOL        DGOTO7
  D:00AEH         SYMBOL        DIAP
  C:12F3H         SYMBOL        DIINC
  C:2A55H         SYMBOL        DIKDN
  C:296DH         SYMBOL        DIKDW
  C:2983H         SYMBOL        DIKM
  C:2981H         SYMBOL        DIPAR
  C:02DDH         SYMBOL        DIV1
  C:0320H         SYMBOL        DIV2
  C:030DH         SYMBOL        DIV3
  C:0336H         SYMBOL        DIV9
  C:3001H         SYMBOL        DIVIDE
  C:2F70H         SYMBOL        DONE
  C:2F6EH         SYMBOL        DONE1
  C:308AH         SYMBOL        DOSH
  C:3078H         SYMBOL        DOSUB
  D:0083H         SYMBOL        DPH
  D:0082H         SYMBOL        DPL
  C:0F8CH         SYMBOL        DVIG0
  C:0F81H         SYMBOL        DVIG1
  C:0F76H         SYMBOL        DVIG2
  C:0F6AH         SYMBOL        DVIG3
  C:0F98H         SYMBOL        DVIG4
  C:0FBAH         SYMBOL        DVIG6
  C:0FB8H         SYMBOL        DVM
  B:00A8H.7       SYMBOL        EA
  D:00E6H         SYMBOL        EIE1
  D:00E7H         SYMBOL        EIE2
  D:00F6H         SYMBOL        EIP1
  D:00F7H         SYMBOL        EIP2
  D:00A3H         SYMBOL        EMI0CF
  D:00AFH         SYMBOL        EMI0CN
  D:00A1H         SYMBOL        EMI0TC
  C:22D8H         SYMBOL        ENDKALIB
  C:0FBEH         SYMBOL        ENDSDV
  C:0A6BH         SYMBOL        ENDSUM
  B:00C0H.6       SYMBOL        ENSMB
  C:0D8AH         SYMBOL        EQU0
  C:0DA8H         SYMBOL        EQU00
  C:15ECH         SYMBOL        EQU1L
  C:1B86H         SYMBOL        EQU2L
  C:21F7H         SYMBOL        ERRA0
  C:0CC3H         SYMBOL        ERRA01
  C:2B5CH         SYMBOL        ERROR
  B:00A8H.4       SYMBOL        ES
  B:00A8H.1       SYMBOL        ET0
  B:00A8H.3       SYMBOL        ET1
  B:00A8H.5       SYMBOL        ET2
  B:00A8H.0       SYMBOL        EX0
  B:00A8H.2       SYMBOL        EX1
  B:00C8H.3       SYMBOL        EXEN2
  B:00C8H.6       SYMBOL        EXF2
  N:0000H         SYMBOL        EXP1
  N:0001H         SYMBOL        EXP2
  C:0687H         SYMBOL        EXTCLE
  B:00D0H.5       SYMBOL        F0
  B:00D0H.1       SYMBOL        F1
  C:2966H         SYMBOL        FINDEXT
  C:2957H         SYMBOL        FINDKOEF
  C:154AH         SYMBOL        FINDMEM
  C:2AAEH         SYMBOL        FINDR
  C:30B5H         SYMBOL        FINIS
BL51 BANKED LINKER/LOCATER V4.16a           01/09/2008  13:19:07  PAGE 6


  D:00B7H         SYMBOL        FLACL
  C:0166H         SYMBOL        FLADD
  C:01D6H         SYMBOL        FLCMP
  C:02B7H         SYMBOL        FLDIV
  C:0203H         SYMBOL        FLMUL
  C:01E1H         SYMBOL        FLOUT
  D:00B6H         SYMBOL        FLSCL
  C:01D1H         SYMBOL        FLSUB
  C:01F8H         SYMBOL        FND
  C:2D6DH         SYMBOL        FO1M
  C:2D76H         SYMBOL        FO2M
  C:2D77H         SYMBOL        FORM4
  C:13E6H         SYMBOL        FT1IZM
  C:0343H         SYMBOL        FTOL
  C:037CH         SYMBOL        FTOL1
  C:039EH         SYMBOL        FTOL2
  C:03C4H         SYMBOL        FTOL22
  C:03A2H         SYMBOL        FTOL23
  C:03B5H         SYMBOL        FTOL24
  C:03C2H         SYMBOL        FTOL25
  C:03E4H         SYMBOL        FTOL26
  C:038AH         SYMBOL        FTOL3
  C:038EH         SYMBOL        FTOL33
  C:0371H         SYMBOL        FTOL4
  C:0381H         SYMBOL        FTOL9
  C:2347H         SYMBOL        FULKALIB
  C:060EH         SYMBOL        GENER
  C:1AE4H         SYMBOL        GO23NO
  C:15F2H         SYMBOL        GO31L
  C:15F7H         SYMBOL        GO41L
  C:0C63H         SYMBOL        GOA2
  C:0C6DH         SYMBOL        GOA3A2
  C:10C1H         SYMBOL        GOCIKLE
  C:1B17H         SYMBOL        GOFULL
  C:2215H         SYMBOL        GOGO7
  C:0C8BH         SYMBOL        GOKAA2
  C:12B5H         SYMBOL        GOKLB
  C:1A4BH         SYMBOL        GOOFF1
  C:1A66H         SYMBOL        GOOFF2
  C:1A81H         SYMBOL        GOOFF3
  C:1A9CH         SYMBOL        GOOFF4
  C:0C7DH         SYMBOL        GOONIN
  C:0E33H         SYMBOL        GOONIN1
  C:0E31H         SYMBOL        GOONIN2
  C:0E6BH         SYMBOL        GOONIND
  C:1A10H         SYMBOL        GOONOFF
  C:104AH         SYMBOL        GOONT
  C:2079H         SYMBOL        GOPAROL
  C:1F53H         SYMBOL        GOPAROM
  C:07FCH         SYMBOL        GOPART
  C:151BH         SYMBOL        GOSK19
  C:1715H         SYMBOL        GOTO7
  C:0AFEH         SYMBOL        GOTOKD
  C:102CH         SYMBOL        GOTOSTROB
  C:126AH         SYMBOL        GOUT6
  C:1D52H         SYMBOL        GOVVLIST
  C:07AEH         SYMBOL        GOZNAK
  C:1867H         SYMBOL        HNOR11
  C:180FH         SYMBOL        HNOR12
  C:18B3H         SYMBOL        HNOT1
  C:17DDH         SYMBOL        HNOT2
  C:1805H         SYMBOL        HR12
  C:17FFH         SYMBOL        HVI1113
  D:00A8H         SYMBOL        IE
  B:0088H.1       SYMBOL        IE0
BL51 BANKED LINKER/LOCATER V4.16a           01/09/2008  13:19:07  PAGE 7


  B:0088H.3       SYMBOL        IE1
  C:17D9H         SYMBOL        INCT
  C:26C2H         SYMBOL        IND
  C:0E1CH         SYMBOL        INDOLL
  C:29CBH         SYMBOL        INIACP
  C:1C09H         SYMBOL        INNOT1_2
  C:1BFAH         SYMBOL        INNOT3
  C:1BEEH         SYMBOL        INNOT6
  C:26B6H         SYMBOL        INTER2
  D:00CDH         SYMBOL        INTERVA
  C:106DH         SYMBOL        INTMUL
  C:1070H         SYMBOL        INTMUL1
  C:1085H         SYMBOL        INTMUL2
  C:1C9BH         SYMBOL        INTN
  D:00B8H         SYMBOL        IP
  B:0088H.0       SYMBOL        IT0
  B:0088H.2       SYMBOL        IT1
  C:1898H         SYMBOL        IZCHI
  C:135BH         SYMBOL        IZMAN
  C:136DH         SYMBOL        IZMFUN
  C:1371H         SYMBOL        IZMPAT
  C:1380H         SYMBOL        IZMT2
  C:138BH         SYMBOL        IZMT3
  C:301CH         SYMBOL        JFINIS
  C:28E2H         SYMBOL        KD
  C:123CH         SYMBOL        KEYB1
  C:16A5H         SYMBOL        KEYB2
  C:1AEEH         SYMBOL        KFULL
  C:19D7H         SYMBOL        KFULLR
  C:1A38H         SYMBOL        KGO23
  C:1665H         SYMBOL        KKOUT6
  C:1765H         SYMBOL        KLBOFF
  C:19B1H         SYMBOL        KLEV1
  C:19B6H         SYMBOL        KLEV2
  C:19DAH         SYMBOL        KLEV21
  C:19C0H         SYMBOL        KLEV22
  C:19EBH         SYMBOL        KLEV23
  C:19BBH         SYMBOL        KLEV3
  C:08A9H         SYMBOL        KLMAS
  C:1774H         SYMBOL        KNAVP
  B:0023H.0       SYMBOL        KNIZM
  C:1368H         SYMBOL        KNIZMON
  C:168CH         SYMBOL        KNKMP
  C:1782H         SYMBOL        KNLEFT
  C:1910H         SYMBOL        KNMEM
  C:1737H         SYMBOL        KNMENU
  C:17A3H         SYMBOL        KNNUL
  C:1393H         SYMBOL        KNOPT
  C:13A8H         SYMBOL        KNRAZR
  C:12E9H         SYMBOL        KNRIGHT
  C:130AH         SYMBOL        KNVICH
  D:00A0H         SYMBOL        KOEFKD
  D:0094H         SYMBOL        KOEFKM
  D:0090H         SYMBOL        KOEFKP
  C:0C27H         SYMBOL        KOMUL
  C:0C21H         SYMBOL        KOMULPZ
  D:00BCH         SYMBOL        KONSTA
  C:1473H         SYMBOL        KON_B
  C:280FH         SYMBOL        KOR0US
  D:0084H         SYMBOL        KOR0_AN
  C:0B4FH         SYMBOL        KORDEC1
  C:0B2FH         SYMBOL        KORDEC10
  C:10FBH         SYMBOL        KORNUL
  C:1B0AH         SYMBOL        KVVOD0
  C:1D49H         SYMBOL        LABEL43
BL51 BANKED LINKER/LOCATER V4.16a           01/09/2008  13:19:07  PAGE 8


  C:1E32H         SYMBOL        LABEL7
  C:0772H         SYMBOL        LABELA
  C:0F63H         SYMBOL        LABELB
  C:13A8H         SYMBOL        LABELC
  C:1371H         SYMBOL        LABELE
  C:13D3H         SYMBOL        LABELF
  C:17C5H         SYMBOL        LABELH
  C:2171H         SYMBOL        LABELI
  C:184CH         SYMBOL        LABELI2
  C:1953H         SYMBOL        LABELK
  C:15A7H         SYMBOL        LABELL
  C:14B0H         SYMBOL        LABELL1
  C:1611H         SYMBOL        LABELN
  C:1D1FH         SYMBOL        LABELP
  C:1CE4H         SYMBOL        LABELS
  C:1FC4H         SYMBOL        LABELS1
  C:20F7H         SYMBOL        LABELS13
  C:2184H         SYMBOL        LABELS3
  C:215FH         SYMBOL        LABELS4
  C:15D3H         SYMBOL        LABL2
  C:1B8FH         SYMBOL        LABM
  C:161BH         SYMBOL        LABN_1
  C:1616H         SYMBOL        LABN_2
  C:315DH         SYMBOL        LADD
  C:316EH         SYMBOL        LADDX
  C:042DH         SYMBOL        LBTOF
  C:2F5BH         SYMBOL        LCMP
  C:2F71H         SYMBOL        LDC_LONG
  C:2F93H         SYMBOL        LDC_LTEMP
  C:2FB9H         SYMBOL        LDX_LONG
  C:2FDFH         SYMBOL        LDX_LTEMP
  C:1C1AH         SYMBOL        LEFCUR
  C:178CH         SYMBOL        LEFKL
  C:1967H         SYMBOL        LEFMEM11
  C:1B39H         SYMBOL        LEFT21
  C:1FC1H         SYMBOL        LEFT_S
  C:20D8H         SYMBOL        LEFT_SK
  C:19C3H         SYMBOL        LEV220
  C:1641H         SYMBOL        LEV2GO
  D:00B0H         SYMBOL        LEVEL
  C:18A2H         SYMBOL        LI21
  C:1DB8H         SYMBOL        LI42_43
  C:1E3CH         SYMBOL        LIST_43
  C:1354H         SYMBOL        LLDI2
  C:1348H         SYMBOL        LLDI23
  C:134FH         SYMBOL        LLDI3
  C:15FCH         SYMBOL        LLEV2
  C:30C6H         SYMBOL        LLMUL
  C:314BH         SYMBOL        LLSUB
  C:0432H         SYMBOL        LLTOF
  C:30C6H         SYMBOL        LMUL
  C:2EA6H         SYMBOL        LOA3_X
  C:2A1AH         SYMBOL        LOAB12
  D:00B7H         SYMBOL        LOAD
  C:18C6H         SYMBOL        LOADB
  C:18F2H         SYMBOL        LOADB2
  C:1984H         SYMBOL        LOADCLE
  C:2A37H         SYMBOL        LOADKD
  C:2A29H         SYMBOL        LOADR2
  C:282AH         SYMBOL        LOADT
  C:27C9H         SYMBOL        LOADUS
  C:24D6H         SYMBOL        LOAHL_R2
  C:1B44H         SYMBOL        LOBLOK
  C:197FH         SYMBOL        LOCLE
  C:2839H         SYMBOL        LOD1
BL51 BANKED LINKER/LOCATER V4.16a           01/09/2008  13:19:07  PAGE 9


  C:2848H         SYMBOL        LODT
  C:1812H         SYMBOL        LOIZMK
  C:1F06H         SYMBOL        LOKAME1
  C:282CH         SYMBOL        LOLEVT
  C:1974H         SYMBOL        LOLIST
  C:228CH         SYMBOL        LOME1
  C:2284H         SYMBOL        LOMENU
  C:2785H         SYMBOL        LOOP
  C:301FH         SYMBOL        LOOPS
  C:2803H         SYMBOL        LOSPUS
  C:1999H         SYMBOL        LOSTAT
  C:2844H         SYMBOL        LOTEXT
  C:2A8DH         SYMBOL        LOTP
  C:2A85H         SYMBOL        LOTPUS
  C:135AH         SYMBOL        LOU
  C:1337H         SYMBOL        LOUIZM
  C:15EFH         SYMBOL        LOUTF
  C:1808H         SYMBOL        LOVICH
  C:198CH         SYMBOL        LOWR
  C:1991H         SYMBOL        LOWR1
  C:314BH         SYMBOL        LSUB
  N:0008H         SYMBOL        LTEMP
  C:2D48H         SYMBOL        LWR
  C:2D0CH         SYMBOL        LWRX
  C:042FH         SYMBOL        LWTOF
  D:006FH         SYMBOL        MABIN
  C:2D63H         SYMBOL        MAFORM
  N:0002H         SYMBOL        MANT1
  N:0008H         SYMBOL        MANT2
  C:147AH         SYMBOL        MARK0_8
  D:00B2H         SYMBOL        MARKER
  C:2B01H         SYMBOL        MARLE
  C:2B0EH         SYMBOL        MARRI
  C:08C8H         SYMBOL        MAS10
  C:0948H         SYMBOL        MAS20
  C:0A3CH         SYMBOL        MAS4
  C:0AB0H         SYMBOL        MAS5DIV
  C:0A77H         SYMBOL        MASFULL
  X:0104H         SYMBOL        MASS1
  X:0128H         SYMBOL        MASS10
  X:012CH         SYMBOL        MASS11
  X:0130H         SYMBOL        MASS12
  X:0134H         SYMBOL        MASS13
  X:0138H         SYMBOL        MASS14
  X:013CH         SYMBOL        MASS15
  X:0140H         SYMBOL        MASS16
  X:0144H         SYMBOL        MASS17
  X:0148H         SYMBOL        MASS18
  X:014CH         SYMBOL        MASS19
  X:0108H         SYMBOL        MASS2
  X:010CH         SYMBOL        MASS3
  X:0110H         SYMBOL        MASS4
  X:0114H         SYMBOL        MASS5
  X:0118H         SYMBOL        MASS6
  X:011CH         SYMBOL        MASS7
  X:0120H         SYMBOL        MASS8
  X:0124H         SYMBOL        MASS9
  C:0AA6H         SYMBOL        MASX5
  C:2635H         SYMBOL        MAXG
  C:269FH         SYMBOL        MAXVIX
  C:1CDBH         SYMBOL        ME11_15DE
  C:1F05H         SYMBOL        ME11_15DEC
  C:15B7H         SYMBOL        ME21_22
  C:1F7FH         SYMBOL        ME21_23
  C:1F9BH         SYMBOL        ME21_23DEC
BL51 BANKED LINKER/LOCATER V4.16a           01/09/2008  13:19:07  PAGE 10


  C:177EH         SYMBOL        MEAVP
  C:0674H         SYMBOL        MECLE
  C:067BH         SYMBOL        MEFF
  C:076DH         SYMBOL        MEM10MS
  C:1B05H         SYMBOL        MEM12NO
  C:2422H         SYMBOL        MENG
  C:2290H         SYMBOL        MENU12
  C:2298H         SYMBOL        MENU13
  C:22A0H         SYMBOL        MENU14
  C:22A8H         SYMBOL        MENU15
  C:22B0H         SYMBOL        MENU21
  C:22B8H         SYMBOL        MENU22
  C:22C0H         SYMBOL        MENU23
  C:22C8H         SYMBOL        MENU31
  C:22D0H         SYMBOL        MENU41
  C:1759H         SYMBOL        MENUOFF
  C:1D11H         SYMBOL        MENUON
  C:1734H         SYMBOL        MERR
  C:19A3H         SYMBOL        ME_14
  C:203CH         SYMBOL        ME_41
  C:2010H         SYMBOL        ME_52
  C:202DH         SYMBOL        ME_52V
  C:3052H         SYMBOL        MIDL
  C:2B3EH         SYMBOL        MIGN
  C:2B46H         SYMBOL        MIGNN
  C:24E2H         SYMBOL        MIN4_HL
  C:2540H         SYMBOL        MING
  C:25AAH         SYMBOL        MINIVIX
  C:1B6FH         SYMBOL        MLABL2
  C:1D4FH         SYMBOL        MLABL2R
  C:0768H         SYMBOL        MMM
  C:0E11H         SYMBOL        MO220
  C:0D7EH         SYMBOL        MO500I
  C:0D72H         SYMBOL        MO500R
  B:00F8H.5       SYMBOL        MODF
  C:1544H         SYMBOL        MOUTF
  C:1CDEH         SYMBOL        MOUTKMEM
  C:2DD0H         SYMBOL        MOVE28
  C:2989H         SYMBOL        MOVE82
  C:0E6BH         SYMBOL        MOVEA3
  D:003AH         SYMBOL        MOVLEFT
  D:003BH         SYMBOL        MOVRIG
  B:00F8H.1       SYMBOL        MSTEN
  C:021AH         SYMBOL        MUP1
  C:0257H         SYMBOL        MUP11
  C:0297H         SYMBOL        MUP2
  C:026CH         SYMBOL        MUP3
  C:1B3FH         SYMBOL        MVV11
  C:1B57H         SYMBOL        MVV12
  C:121FH         SYMBOL        N12DELCH
  C:11CBH         SYMBOL        N4DELCH
  C:120DH         SYMBOL        N8DELCH
  C:154AH         SYMBOL        NBIMENU
  D:0038H         SYMBOL        NBLOK
  C:0358H         SYMBOL        NE05
  D:0037H         SYMBOL        NELEM
  C:26CFH         SYMBOL        NEXIN
  C:266AH         SYMBOL        NEXTMAX
  C:2457H         SYMBOL        NEXTMEA
  C:2575H         SYMBOL        NEXTMIN
  C:1CE1H         SYMBOL        NMEM_MENU
  C:0B6CH         SYMBOL        NMINUS
  C:0AD0H         SYMBOL        NMINUS3
  C:118BH         SYMBOL        NNDELCH
  C:164DH         SYMBOL        NNMEMB
BL51 BANKED LINKER/LOCATER V4.16a           01/09/2008  13:19:07  PAGE 11


  C:18B0H         SYMBOL        NNNOTT
  C:0EE9H         SYMBOL        NNNUL
  C:303AH         SYMBOL        NO
  C:169BH         SYMBOL        NO0CHK
  C:1232H         SYMBOL        NO0CHKL
  C:0782H         SYMBOL        NO0KEY
  C:1C82H         SYMBOL        NO10MSV
  C:142AH         SYMBOL        NO11V6
  C:143EH         SYMBOL        NO12V6
  C:1452H         SYMBOL        NO13V6
  C:221CH         SYMBOL        NO21P7
  C:14FBH         SYMBOL        NO23RI
  C:1C7FH         SYMBOL        NO2MSV
  C:0E60H         SYMBOL        NO2PARN
  C:1C39H         SYMBOL        NO31N
  C:152CH         SYMBOL        NO31RI
  C:0E56H         SYMBOL        NO3PARN
  C:112EH         SYMBOL        NO4DEL
  C:114DH         SYMBOL        NO5DEL
  C:115BH         SYMBOL        NO6DEL
  C:0B3EH         SYMBOL        NOAVK
  C:0C63H         SYMBOL        NOAVP
  C:0F07H         SYMBOL        NOBAVP
  C:0839H         SYMBOL        NOBEF99
  C:0245H         SYMBOL        NOBIT
  C:0F10H         SYMBOL        NOBITIZM
  C:15C0H         SYMBOL        NOBL21
  C:15CAH         SYMBOL        NOBL22
  C:0F45H         SYMBOL        NOBUF
  C:10D1H         SYMBOL        NOBUF0
  C:0E52H         SYMBOL        NOCHI0
  C:07A1H         SYMBOL        NOCHIND
  C:0A93H         SYMBOL        NOCHN10
  C:0A88H         SYMBOL        NOCHN2
  C:0A9EH         SYMBOL        NOCHN20
  C:0E36H         SYMBOL        NODI2
  C:178EH         SYMBOL        NODI6
  C:0EBCH         SYMBOL        NODI8
  C:20ACH         SYMBOL        NODI8K
  C:1E15H         SYMBOL        NODI8_43
  C:0E3BH         SYMBOL        NODI9
  C:1E20H         SYMBOL        NODI9_43
  C:0ECFH         SYMBOL        NODIS9
  C:20B4H         SYMBOL        NODISK9
  C:2E72H         SYMBOL        NOENDLI
  C:1632H         SYMBOL        NOEQU1
  C:1C33H         SYMBOL        NOEQU2
  C:140BH         SYMBOL        NOFIZM
  C:13E5H         SYMBOL        NOFT1
  C:10CCH         SYMBOL        NOFZ
  C:1827H         SYMBOL        NOH37
  C:1905H         SYMBOL        NOHNOT1
  C:18FAH         SYMBOL        NOHNOT2
  C:0F3FH         SYMBOL        NOKLB
  C:0AE6H         SYMBOL        NOKORR
  C:17E9H         SYMBOL        NOLAH
  C:1E91H         SYMBOL        NOLI_43
  C:1C11H         SYMBOL        NOM31
  C:1C8AH         SYMBOL        NOM32
  C:1CB8H         SYMBOL        NOM33
  C:2199H         SYMBOL        NOMARL
  C:2682H         SYMBOL        NOMAXI
  C:1AF5H         SYMBOL        NOME11
  C:1565H         SYMBOL        NOMEM11
  C:157BH         SYMBOL        NOMEM12
BL51 BANKED LINKER/LOCATER V4.16a           01/09/2008  13:19:07  PAGE 12


  C:1591H         SYMBOL        NOMEM13
  C:1AF2H         SYMBOL        NOMEMK
  C:258DH         SYMBOL        NOMINI
  C:13B9H         SYMBOL        NON1C
  C:0B23H         SYMBOL        NONULAVT
  C:1110H         SYMBOL        NONULDEL
  C:0F59H         SYMBOL        NOP1OLL
  C:0E56H         SYMBOL        NOP3_0
  C:083DH         SYMBOL        NOPART1
  C:085DH         SYMBOL        NOPART2
  C:087DH         SYMBOL        NOPART3
  C:089DH         SYMBOL        NOPART4
  C:14A2H         SYMBOL        NOPLUS
  C:21B0H         SYMBOL        NOPOIN7
  C:217CH         SYMBOL        NOPOINT
  C:00F6H         SYMBOL        NORDN
  C:0107H         SYMBOL        NORDN1
  C:1605H         SYMBOL        NORIG2
  C:164DH         SYMBOL        NORIM6
  C:14E1H         SYMBOL        NORIME
  C:14DBH         SYMBOL        NORIME1
  C:00F0H         SYMBOL        NORM1
  C:183FH         SYMBOL        NORR11
  C:184FH         SYMBOL        NORR12
  C:0119H         SYMBOL        NORUP
  C:011EH         SYMBOL        NORUP1
  C:0132H         SYMBOL        NORUP2
  C:0F5CH         SYMBOL        NORVICH
  C:101AH         SYMBOL        NOSAV1
  C:1021H         SYMBOL        NOSAV2
  C:1028H         SYMBOL        NOSAV3
  C:3075H         SYMBOL        NOSUB
  C:10E6H         SYMBOL        NOT1IN
  C:1724H         SYMBOL        NOT1_7
  C:10EEH         SYMBOL        NOT2IN
  C:172FH         SYMBOL        NOT2_7
  C:10F6H         SYMBOL        NOT3IN
  C:0F1AH         SYMBOL        NOTAKT
  C:0BE3H         SYMBOL        NOTE21
  C:0BFEH         SYMBOL        NOTE22
  C:0C16H         SYMBOL        NOTESTIZM
  C:1064H         SYMBOL        NOTT1
  C:108CH         SYMBOL        NOTT2
  C:109AH         SYMBOL        NOTT3
  C:10B1H         SYMBOL        NOTT4
  C:10BFH         SYMBOL        NOTT5
  C:13C0H         SYMBOL        NOT_1
  C:13C0H         SYMBOL        NOT_10
  C:14C3H         SYMBOL        NOVIR
  C:13F5H         SYMBOL        NOVIR1
  C:24D2H         SYMBOL        NOZMEA
  C:25E1H         SYMBOL        NOZMIN
  C:1E07H         SYMBOL        NOZZBL
  C:0EA9H         SYMBOL        NOZZMI
  C:1DF7H         SYMBOL        NOZZMI1
  C:1DFEH         SYMBOL        NOZZMI2
  C:1E05H         SYMBOL        NOZZMI3
  C:1DEEH         SYMBOL        NOZZMI43
  C:0EF3H         SYMBOL        NSEC1
  C:0EFEH         SYMBOL        NSEC10
  C:0EFBH         SYMBOL        NSEC11
  D:0039H         SYMBOL        NUERR
  C:1170H         SYMBOL        NULAVT
  N:0004H         SYMBOL        NUMSIZE
  C:2FABH         SYMBOL        OBOARD
BL51 BANKED LINKER/LOCATER V4.16a           01/09/2008  13:19:07  PAGE 13


  C:2FF3H         SYMBOL        OBOARD1
  C:1950H         SYMBOL        OFFMENUM
  C:0186H         SYMBOL        OK1
  C:01A0H         SYMBOL        OK2
  C:01C4H         SYMBOL        OK3
  C:2601H         SYMBOL        OLDMAX
  C:240DH         SYMBOL        OLDMEAN
  C:250CH         SYMBOL        OLDMIN
  C:2FD1H         SYMBOL        ONBOAR1
  C:2F85H         SYMBOL        ONBOARD
  C:192AH         SYMBOL        ONMEM11
  C:1FA2H         SYMBOL        ONMEM12
  C:215CH         SYMBOL        ONMEM13
  C:2B54H         SYMBOL        ONMIG
  C:136FH         SYMBOL        ONTEST
  C:132BH         SYMBOL        ONVICH
  D:00B2H         SYMBOL        OSCICN
  D:00B1H         SYMBOL        OSCXCN
  C:1E29H         SYMBOL        OUT43
  C:164DH         SYMBOL        OUT6
  C:2245H         SYMBOL        OUT7
  C:2B1BH         SYMBOL        OUTA
  C:2B35H         SYMBOL        OUTA2
  C:13EBH         SYMBOL        OUTF
  C:14B3H         SYMBOL        OUTFL
  C:1937H         SYMBOL        OUTKMEM
  C:148CH         SYMBOL        OUTMA
  C:2687H         SYMBOL        OUTMAX
  C:2472H         SYMBOL        OUTMEA
  C:1F4EH         SYMBOL        OUTMENU
  C:2592H         SYMBOL        OUTMIN
  C:0DD5H         SYMBOL        OUTR
  C:0DF1H         SYMBOL        OUTR5
  C:2003H         SYMBOL        OUTSKO
  C:2000H         SYMBOL        OUTSKO1
  C:13F8H         SYMBOL        OUTVICH
  C:12AEH         SYMBOL        OUTVIR
  C:2354H         SYMBOL        OUT_KALI
  B:00D0H.2       SYMBOL        OV
  B:00D0H.0       SYMBOL        P
  D:0080H         SYMBOL        P0
  D:00A4H         SYMBOL        P0MDOUT
  D:0090H         SYMBOL        P1
  D:00BDH         SYMBOL        P1MDIN
  D:00A5H         SYMBOL        P1MDOUT
  D:00A0H         SYMBOL        P2
  D:00A6H         SYMBOL        P2MDOUT
  D:00B0H         SYMBOL        P3
  D:00ADH         SYMBOL        P3IF
  D:00A7H         SYMBOL        P3MDOUT
  D:0084H         SYMBOL        P4
  D:0085H         SYMBOL        P5
  D:0086H         SYMBOL        P6
  D:0096H         SYMBOL        P7
  D:00B5H         SYMBOL        P74OUT
  C:00DEH         SYMBOL        PACK1
  C:20C1H         SYMBOL        PARERR
  D:00AFH         SYMBOL        PARN
  D:00A8H         SYMBOL        PAROL
  D:009AH         SYMBOL        PART
  D:00D8H         SYMBOL        PCA0CN
  D:00FAH         SYMBOL        PCA0CPH0
  D:00FBH         SYMBOL        PCA0CPH1
  D:00FCH         SYMBOL        PCA0CPH2
  D:00FDH         SYMBOL        PCA0CPH3
BL51 BANKED LINKER/LOCATER V4.16a           01/09/2008  13:19:07  PAGE 14


  D:00FEH         SYMBOL        PCA0CPH4
  D:00EAH         SYMBOL        PCA0CPL0
  D:00EBH         SYMBOL        PCA0CPL1
  D:00ECH         SYMBOL        PCA0CPL2
  D:00EDH         SYMBOL        PCA0CPL3
  D:00EEH         SYMBOL        PCA0CPL4
  D:00DAH         SYMBOL        PCA0CPM0
  D:00DBH         SYMBOL        PCA0CPM1
  D:00DCH         SYMBOL        PCA0CPM2
  D:00DDH         SYMBOL        PCA0CPM3
  D:00DEH         SYMBOL        PCA0CPM4
  D:00F9H         SYMBOL        PCA0H
  D:00E9H         SYMBOL        PCA0L
  D:00D9H         SYMBOL        PCA0MD
  D:0087H         SYMBOL        PCON
  C:21AFH         SYMBOL        POIN3
  C:2217H         SYMBOL        POINA
  C:2194H         SYMBOL        POINA1
  C:218EH         SYMBOL        POINA2
  C:223AH         SYMBOL        POZB
  N:000CH         SYMBOL        PROD
  B:00B8H.4       SYMBOL        PS
  D:008FH         SYMBOL        PSCTL
  D:00D0H         SYMBOL        PSW
  B:00B8H.1       SYMBOL        PT0
  B:00B8H.3       SYMBOL        PT1
  B:00B8H.5       SYMBOL        PT2
  B:00B8H.0       SYMBOL        PX0
  B:00B8H.2       SYMBOL        PX1
  C:12B8H         SYMBOL        PYSKST
  C:19E5H         SYMBOL        QUES
  C:0C60H         SYMBOL        QU_AVP
  N:000AH         SYMBOL        R10
  N:000BH         SYMBOL        R11
  N:0008H         SYMBOL        R8
  N:0009H         SYMBOL        R9
  C:0AFCH         SYMBOL        RAFTERK
  B:0098H.2       SYMBOL        RB8
  D:00CBH         SYMBOL        RCAP2H
  D:00CAH         SYMBOL        RCAP2L
  D:00E5H         SYMBOL        RCAP4H
  D:00E4H         SYMBOL        RCAP4L
  B:00C8H.5       SYMBOL        RCLK
  C:1A32H         SYMBOL        RDDOUTF
  C:278EH         SYMBOL        RE1
  C:0BA4H         SYMBOL        RE11_7
  C:0454H         SYMBOL        RE4BYTE
  C:2EB8H         SYMBOL        REA3_X
  D:0077H         SYMBOL        REACP
  C:278CH         SYMBOL        READ
  C:07F4H         SYMBOL        READYACP
  C:2774H         SYMBOL        READ_X2
  C:0741H         SYMBOL        REBYTE
  C:046CH         SYMBOL        REBYTE2
  C:1160H         SYMBOL        REBYTER
  D:00D1H         SYMBOL        REF0CN
  B:0098H.4       SYMBOL        REN
  C:1771H         SYMBOL        RENDKALIB
  C:2DDCH         SYMBOL        RESAR2
  C:2D9AH         SYMBOL        RESAR8
  C:2E85H         SYMBOL        RESA_HL
  D:008CH         SYMBOL        REZAM
  D:0088H         SYMBOL        REZAP
  C:0B54H         SYMBOL        REZMUL
  D:0062H         SYMBOL        REZ_A
BL51 BANKED LINKER/LOCATER V4.16a           01/09/2008  13:19:07  PAGE 15


  D:006AH         SYMBOL        REZ_A0
  D:0066H         SYMBOL        REZ_A1
  D:007BH         SYMBOL        REZ_A2
  D:009CH         SYMBOL        REZ_A3
  D:00A4H         SYMBOL        REZ_AK
  D:005EH         SYMBOL        REZ_AME
  D:00C5H         SYMBOL        REZ_DEL
  D:00C9H         SYMBOL        REZ_R
  C:2E8CH         SYMBOL        RE_HL
  C:2E94H         SYMBOL        RE_HL1
  C:2E9BH         SYMBOL        RE_HL2
  C:2EA2H         SYMBOL        RE_HL3
  C:14C0H         SYMBOL        RFINDMEM
  C:1A35H         SYMBOL        RGO23NO
  C:1C0EH         SYMBOL        RGOTO7
  C:1819H         SYMBOL        RHNOR11
  C:17E0H         SYMBOL        RHNOT1
  B:0098H.0       SYMBOL        RI
  C:14E4H         SYMBOL        RI21_23
  C:14DEH         SYMBOL        RI6
  C:15CDH         SYMBOL        RIGBLO
  C:160BH         SYMBOL        RIGBLOK
  C:12DFH         SYMBOL        RIGHT2
  C:12E3H         SYMBOL        RIGHT3
  C:1464H         SYMBOL        RIKN
  C:122FH         SYMBOL        RIZMAN
  C:14FEH         SYMBOL        RI_31
  C:1698H         SYMBOL        RKNLEFT
  C:16A2H         SYMBOL        RKNMEM
  C:1695H         SYMBOL        RKNNUL
  C:122CH         SYMBOL        RKNOPT
  C:1229H         SYMBOL        RKNRAZR
  C:197CH         SYMBOL        RKVVOD0
  C:1226H         SYMBOL        RLABELF
  C:1692H         SYMBOL        RLABELH
  C:17E6H         SYMBOL        RLABELI
  C:17E3H         SYMBOL        RLABELK
  C:14BDH         SYMBOL        RLABELL
  C:164AH         SYMBOL        RLABELL1
  C:1541H         SYMBOL        RLABELN
  C:1EE9H         SYMBOL        RLABELP
  C:200DH         SYMBOL        RLABELS13
  C:200AH         SYMBOL        RLABELS4
  C:19DFH         SYMBOL        RLABL2
  C:19E2H         SYMBOL        RLABM
  C:1CB5H         SYMBOL        RLEFCUR
  C:2B0DH         SYMBOL        RLER
  C:1D4CH         SYMBOL        RLIST_43
  C:0945H         SYMBOL        RMAS4
  C:1D1CH         SYMBOL        RME21_23
  C:0B36H         SYMBOL        RMO220
  C:1547H         SYMBOL        RNNMEMB
  C:0ECDH         SYMBOL        RNO3PARN
  C:1000H         SYMBOL        RNOBUF0
  C:0C88H         SYMBOL        RNOCHI0
  C:183DH         SYMBOL        RNOH37
  C:1B8CH         SYMBOL        RNOM31
  C:1934H         SYMBOL        RNOMEMK
  C:0ECAH         SYMBOL        RNORVICH
  C:0FB5H         SYMBOL        RNOT1IN
  C:0B4CH         SYMBOL        RNOTESTIZM
  C:1ED5H         SYMBOL        ROUSTA
  C:1EE6H         SYMBOL        ROUSTA1
  C:1223H         SYMBOL        ROUT6
  C:168FH         SYMBOL        ROUT7
BL51 BANKED LINKER/LOCATER V4.16a           01/09/2008  13:19:07  PAGE 16


  C:25E5H         SYMBOL        ROUTMAX
  C:24F0H         SYMBOL        ROUTMIN
  N:0000H         SYMBOL        RR0
  N:0001H         SYMBOL        RR1
  N:0002H         SYMBOL        RR2
  N:0003H         SYMBOL        RR3
  N:0004H         SYMBOL        RR4
  N:0005H         SYMBOL        RR5
  N:0006H         SYMBOL        RR6
  N:0007H         SYMBOL        RR7
  C:2B1AH         SYMBOL        RRIR
  C:0C85H         SYMBOL        RRMO220
  B:00D0H.3       SYMBOL        RS0
  B:00D0H.4       SYMBOL        RS1
  C:0E69H         SYMBOL        RSEEIND
  D:00EFH         SYMBOL        RSTSRC
  C:13C4H         SYMBOL        RTIZMRI
  C:143BH         SYMBOL        RVIOUT
  C:181BH         SYMBOL        RVVIZKO
  C:2039H         SYMBOL        RVVKALI52
  B:00F8H.4       SYMBOL        RXOVRN
  D:00A9H         SYMBOL        SADDR0
  D:00F3H         SYMBOL        SADDR1
  D:00B9H         SYMBOL        SADEN0
  D:00AEH         SYMBOL        SADEN1
  D:0034H         SYMBOL        SADIAP
  D:0032H         SYMBOL        SADIAP2
  D:0031H         SYMBOL        SADIAP3
  D:0030H         SYMBOL        SADIAP4
  D:0036H         SYMBOL        SAUS
  D:003CH         SYMBOL        SAVBA
  C:2D1EH         SYMBOL        SAVEIR2
  C:04A7H         SYMBOL        SAVELTE
  D:00D3H         SYMBOL        SAVEN_BL
  D:00C0H         SYMBOL        SAVEN_BL2
  D:00C2H         SYMBOL        SAVEN_BL3
  D:00D9H         SYMBOL        SAVEN_BL4
  C:2D2AH         SYMBOL        SAVER2
  C:2E51H         SYMBOL        SAVE_HL
  C:2E58H         SYMBOL        SA_HL
  C:2E73H         SYMBOL        SA_HL1
  C:2E7AH         SYMBOL        SA_HL2
  C:2E81H         SYMBOL        SA_HL3
  D:0099H         SYMBOL        SBUF0
  D:00F2H         SYMBOL        SBUF1
  D:0098H         SYMBOL        SCON0
  D:00F1H         SYMBOL        SCON1
  C:2736H         SYMBOL        SDV
  C:274AH         SYMBOL        SDV1
  C:07D5H         SYMBOL        SDVIG0
  C:07CAH         SYMBOL        SDVIG1
  C:07BFH         SYMBOL        SDVIG2
  C:07B3H         SYMBOL        SDVIG3
  C:07E4H         SYMBOL        SDVIG4
  C:07EEH         SYMBOL        SDVIG6
  C:07ECH         SYMBOL        SDVM
  C:0ED2H         SYMBOL        SEEGOON
  C:0EE0H         SYMBOL        SEEIND
  C:1E23H         SYMBOL        SEE_L43
  B:00C0H.3       SYMBOL        SI
  N:0007H         SYMBOL        SIGN
  C:1F34H         SYMBOL        SKOR19
  B:00F8H.2       SYMBOL        SLVSEL
  B:0098H.7       SYMBOL        SM0
  B:0098H.6       SYMBOL        SM1
BL51 BANKED LINKER/LOCATER V4.16a           01/09/2008  13:19:07  PAGE 17


  B:0098H.5       SYMBOL        SM2
  D:00C3H         SYMBOL        SMB0ADR
  D:00C0H         SYMBOL        SMB0CN
  D:00CFH         SYMBOL        SMB0CR
  D:00C2H         SYMBOL        SMB0DAT
  D:00C1H         SYMBOL        SMB0STA
  B:00C0H.1       SYMBOL        SMBFTE
  B:00C0H.0       SYMBOL        SMBTOE
  C:18AAH         SYMBOL        SOOTV
  D:0081H         SYMBOL        SP
  D:009AH         SYMBOL        SPI0CFG
  D:009DH         SYMBOL        SPI0CKR
  D:00F8H         SYMBOL        SPI0CN
  D:009BH         SYMBOL        SPI0DAT
  B:00F8H.0       SYMBOL        SPIEN
  B:00F8H.7       SYMBOL        SPIF
  C:1FE5H         SYMBOL        SPWRI
  C:286CH         SYMBOL        SS1
  B:00C0H.5       SYMBOL        STA
  B:00C0H.4       SYMBOL        STO
  D:00B3H         SYMBOL        SUMMA
  C:0840H         SYMBOL        SUMT2
  D:00C8H         SYMBOL        T2CON
  C:1C79H         SYMBOL        T2MSME
  D:00C9H         SYMBOL        T4CON
  C:2A0CH         SYMBOL        TABB1_2
  C:2AA4H         SYMBOL        TABN
  C:2824H         SYMBOL        TABT11
  C:2828H         SYMBOL        TABT7
  C:2826H         SYMBOL        TABT9
  C:2810H         SYMBOL        TABUS
  C:0F1FH         SYMBOL        TAKTIND
  B:0098H.3       SYMBOL        TB8
  B:00C8H.4       SYMBOL        TCLK
  D:0088H         SYMBOL        TCON
  C:2B70H         SYMBOL        TE10MS
  C:2A97H         SYMBOL        TE22
  C:2A9FH         SYMBOL        TE23
  C:2B66H         SYMBOL        TE2MS
  C:2BACH         SYMBOL        TEAEQU0
  C:2BE8H         SYMBOL        TEAVK
  C:2BB6H         SYMBOL        TEBEQU0
  C:2C9CH         SYMBOL        TEBL
  C:2CA6H         SYMBOL        TEBL0
  C:2CB0H         SYMBOL        TECH
  C:2C61H         SYMBOL        TECLE
  C:2D00H         SYMBOL        TEEND
  C:2CF6H         SYMBOL        TEERR
  C:2C88H         SYMBOL        TEFULL
  C:2C92H         SYMBOL        TEINT
  C:2C43H         SYMBOL        TEIZMK
  C:2BF2H         SYMBOL        TEKALIB
  C:1163H         SYMBOL        TEKAOUT
  C:2C39H         SYMBOL        TEKD
  C:2C7DH         SYMBOL        TELIST
  C:2CCEH         SYMBOL        TEMAX
  C:2C6BH         SYMBOL        TEMEM
  C:2BC0H         SYMBOL        TEMENU
  C:2CD8H         SYMBOL        TEMID
  C:2CC4H         SYMBOL        TEMIN
  C:0C33H         SYMBOL        TEMUL
  C:290EH         SYMBOL        TENMIN
  C:2CE2H         SYMBOL        TEOLI
  C:2C57H         SYMBOL        TEOLL
  C:2CECH         SYMBOL        TEOLR
BL51 BANKED LINKER/LOCATER V4.16a           01/09/2008  13:19:07  PAGE 18


  C:2C4DH         SYMBOL        TEOUT
  C:2C2FH         SYMBOL        TEPAR
  C:2C25H         SYMBOL        TES19_2
  C:2C1BH         SYMBOL        TES57_6
  C:2BDEH         SYMBOL        TESKOR
  C:26EFH         SYMBOL        TEST01
  C:271EH         SYMBOL        TEST02
  C:26FFH         SYMBOL        TEST04
  C:26E5H         SYMBOL        TEST1
  C:2717H         SYMBOL        TEST2
  C:1FBAH         SYMBOL        TEST22
  C:1FBFH         SYMBOL        TEST23
  C:2709H         SYMBOL        TEST3
  C:26F7H         SYMBOL        TEST4
  C:2721H         SYMBOL        TEST5
  C:0F37H         SYMBOL        TEST7I
  C:0F30H         SYMBOL        TEST9I
  C:2CBAH         SYMBOL        TESTAT
  C:26E3H         SYMBOL        TESTRS
  C:1FAEH         SYMBOL        TESTS
  C:2BFDH         SYMBOL        TETE11
  C:2C11H         SYMBOL        TETE7
  C:2C07H         SYMBOL        TETE9
  C:2BCAH         SYMBOL        TETESI
  C:2BD4H         SYMBOL        TETESR
  C:2BA2H         SYMBOL        TEVICH
  C:2C73H         SYMBOL        TEWR
  C:2B66H         SYMBOL        TEXTT
  B:0088H.5       SYMBOL        TF0
  B:0088H.7       SYMBOL        TF1
  B:00C8H.7       SYMBOL        TF2
  D:008CH         SYMBOL        TH0
  D:008DH         SYMBOL        TH1
  D:00CDH         SYMBOL        TH2
  D:00F5H         SYMBOL        TH4
  B:0098H.1       SYMBOL        TI
  C:275AH         SYMBOL        TIM
  C:275CH         SYMBOL        TIM1
  C:275FH         SYMBOL        TIM2
  C:2761H         SYMBOL        TIM3
  C:12D8H         SYMBOL        TIZMRI
  D:008AH         SYMBOL        TL0
  D:008BH         SYMBOL        TL1
  D:00CCH         SYMBOL        TL2
  D:00F4H         SYMBOL        TL4
  C:18A7H         SYMBOL        TLABELI
  D:0089H         SYMBOL        TMOD
  D:00CBH         SYMBOL        TMR2RLH
  D:00CAH         SYMBOL        TMR2RLL
  D:0091H         SYMBOL        TMR3CN
  D:0095H         SYMBOL        TMR3H
  D:0094H         SYMBOL        TMR3L
  D:0093H         SYMBOL        TMR3RLH
  D:0092H         SYMBOL        TMR3RLL
  C:1F15H         SYMBOL        TOME13
  C:1F42H         SYMBOL        TOME14
  C:1F5AH         SYMBOL        TOME15
  C:1F0CH         SYMBOL        TOME21
  C:20E9H         SYMBOL        TOSK19
  C:1824H         SYMBOL        TOUTF
  B:0088H.4       SYMBOL        TR0
  B:0088H.6       SYMBOL        TR1
  B:00C8H.2       SYMBOL        TR2
  C:13C7H         SYMBOL        TTOUT
  B:00F8H.3       SYMBOL        TXBSY
BL51 BANKED LINKER/LOCATER V4.16a           01/09/2008  13:19:07  PAGE 19


  C:009EH         SYMBOL        UNPACK1
  C:00BAH         SYMBOL        UNPACK2
  C:0138H         SYMBOL        UP1
  C:014BH         SYMBOL        UP2
  C:0161H         SYMBOL        UP2A
  C:293DH         SYMBOL        UPA
  C:294DH         SYMBOL        UPA1
  C:292DH         SYMBOL        UPA2
  C:2E29H         SYMBOL        UPAA
  C:2998H         SYMBOL        UPAA4
  C:29A8H         SYMBOL        UPAB
  C:2937H         SYMBOL        UPAK
  C:2E03H         SYMBOL        UPAK1
  C:2927H         SYMBOL        UPAK2
  C:2947H         SYMBOL        UPAK3
  C:2E23H         SYMBOL        UPAK4
  C:2992H         SYMBOL        UPAKA
  C:29A2H         SYMBOL        UPAKB
  C:2058H         SYMBOL        UPAV1
  C:211BH         SYMBOL        UPAV2
  C:2E15H         SYMBOL        UPK1
  C:2E16H         SYMBOL        UPK2
  C:25E8H         SYMBOL        VICHMAX
  C:23F4H         SYMBOL        VICHMEAN
  C:24F3H         SYMBOL        VICHMIN
  D:00B1H         SYMBOL        VICHR
  C:0FA1H         SYMBOL        VIG0
  C:0FAFH         SYMBOL        VIG4
  C:139EH         SYMBOL        VIOUT
  C:181DH         SYMBOL        VIOUTF
  C:1307H         SYMBOL        VIT2_10
  C:1CD8H         SYMBOL        VODM11_15
  D:00D5H         SYMBOL        VOLUME
  C:1FA5H         SYMBOL        VV21_23
  C:2ADBH         SYMBOL        VVCHIBL
  C:2AB6H         SYMBOL        VVCHIF
  C:1C39H         SYMBOL        VVINTE
  C:1874H         SYMBOL        VVIZKO
  C:210EH         SYMBOL        VVKALI52
  C:20BEH         SYMBOL        VVMENU
  C:2AD6H         SYMBOL        VVNOL23
  C:2AD1H         SYMBOL        VVNOL31
  C:2ACFH         SYMBOL        VVNOL41
  C:1C71H         SYMBOL        VVOD2_10
  C:1E50H         SYMBOL        VVOD43
  C:1EECH         SYMBOL        VVODM11_15
  C:1EADH         SYMBOL        VVOSTA
  C:1EC1H         SYMBOL        VVOSTAD
  C:1421H         SYMBOL        VVRR6
  C:2030H         SYMBOL        VV_52V
  B:00F8H.6       SYMBOL        WCOL
  D:00FFH         SYMBOL        WDTCN
  D:00B8H         SYMBOL        WORK
  C:2DF0H         SYMBOL        WR1
  C:2DEDH         SYMBOL        WRITE
  C:2765H         SYMBOL        WRITED_X1
  C:2764H         SYMBOL        WRITE_X1
  C:0480H         SYMBOL        WRPAGE
  C:0483H         SYMBOL        WW5
  D:00E1H         SYMBOL        XBR0
  D:00E2H         SYMBOL        XBR1
  D:00E3H         SYMBOL        XBR2
  C:2D0AH         SYMBOL        XCIKLWR
  N:000CH         SYMBOL        XTEMP
  C:17B5H         SYMBOL        YBNUL
BL51 BANKED LINKER/LOCATER V4.16a           01/09/2008  13:19:07  PAGE 20


  C:3058H         SYMBOL        YES
  C:078FH         SYMBOL        YES0KEY
  C:079CH         SYMBOL        YES0KEY1
  C:0C92H         SYMBOL        YESAVP
  C:1005H         SYMBOL        YESBUF
  C:0F39H         SYMBOL        YESIND
  C:1003H         SYMBOL        YESPRD
  C:27FFH         SYMBOL        YESTEST
  C:10CFH         SYMBOL        YESTT5
  C:0CDDH         SYMBOL        YESVICH
  C:235DH         SYMBOL        YESVI_KM
  C:22D5H         SYMBOL        YESVI_KR
  C:066BH         SYMBOL        YST1
  C:0663H         SYMBOL        YST19
  C:2884H         SYMBOL        Z01S
  C:2891H         SYMBOL        Z05S
  C:2855H         SYMBOL        Z100
  C:2863H         SYMBOL        Z15
  C:2877H         SYMBOL        Z1S
  C:2734H         SYMBOL        ZAPADC
  C:2D8CH         SYMBOL        ZCMP
  C:2D59H         SYMBOL        ZDIV
  C:00B3H         SYMBOL        ZER1
  C:00D4H         SYMBOL        ZER2
  C:2D4FH         SYMBOL        ZMUL
  B:0020H.2       SYMBOL        ZNMAT
  C:07A6H         SYMBOL        ZNPLUS
  C:2865H         SYMBOL        ZZ
  C:2880H         SYMBOL        Z_01S
  C:288DH         SYMBOL        Z_05S
  C:2853H         SYMBOL        Z_100
  C:2861H         SYMBOL        Z_15
  C:286AH         SYMBOL        Z_1MS
  C:2873H         SYMBOL        Z_1S
  C:285CH         SYMBOL        Z_5
  C:2DE8H         SYMBOL        Z_9
  C:0000H         LINE#         15
  C:0003H         LINE#         18
  C:000BH         LINE#         20
  C:0013H         LINE#         22
  C:001BH         LINE#         24
  C:0023H         LINE#         26
  C:002BH         LINE#         28
  C:0033H         LINE#         30
  C:003BH         LINE#         32
  C:0043H         LINE#         34
  C:004BH         LINE#         36
  C:0053H         LINE#         38
  C:005BH         LINE#         41
  C:0063H         LINE#         43
  C:006BH         LINE#         45
  C:0073H         LINE#         47
  C:0093H         LINE#         49
  C:009BH         LINE#         52
  C:05C9H         LINE#         228
  C:05CCH         LINE#         229
  C:05CFH         LINE#         230
  C:05D2H         LINE#         231
  C:05D5H         LINE#         232
  C:05D8H         LINE#         233
  C:05DBH         LINE#         235
  C:05DEH         LINE#         236
  C:05E1H         LINE#         237
  C:05E4H         LINE#         239
  C:05E7H         LINE#         240
BL51 BANKED LINKER/LOCATER V4.16a           01/09/2008  13:19:07  PAGE 21


  C:05EAH         LINE#         241
  C:05EDH         LINE#         242
  C:05F0H         LINE#         243
  C:05F3H         LINE#         244
  C:05F6H         LINE#         245
  C:05F9H         LINE#         246
  C:05FCH         LINE#         247
  C:05FFH         LINE#         248
  C:0602H         LINE#         249
  C:0605H         LINE#         251
  C:0608H         LINE#         252
  C:060BH         LINE#         253
  C:060EH         LINE#         257
  C:0610H         LINE#         258
  C:0613H         LINE#         260
  C:0616H         LINE#         261
  C:0619H         LINE#         262
  C:061CH         LINE#         264
  C:061EH         LINE#         265
  C:0620H         LINE#         267
  C:0623H         LINE#         270
  C:0626H         LINE#         271
  C:0629H         LINE#         272
  C:062CH         LINE#         273
  C:062FH         LINE#         275
  C:0632H         LINE#         276
  C:0635H         LINE#         277
  C:0638H         LINE#         278
  C:063BH         LINE#         279
  C:063EH         LINE#         281
  C:0641H         LINE#         282
  C:0644H         LINE#         283
  C:0647H         LINE#         284
  C:064AH         LINE#         285
  C:064DH         LINE#         286
  C:0650H         LINE#         288
  C:0652H         LINE#         289
  C:0654H         LINE#         290
  C:0657H         LINE#         291
  C:0659H         LINE#         292
  C:065CH         LINE#         293
  C:065EH         LINE#         294
  C:0661H         LINE#         295
  C:0663H         LINE#         296
  C:0666H         LINE#         297
  C:0668H         LINE#         298
  C:066BH         LINE#         300
  C:066EH         LINE#         302
  C:0671H         LINE#         304
  C:0672H         LINE#         305
  C:0674H         LINE#         306
  C:0675H         LINE#         307
  C:0676H         LINE#         308
  C:0679H         LINE#         309
  C:067BH         LINE#         310
  C:067CH         LINE#         311
  C:067DH         LINE#         312
  C:067EH         LINE#         313
  C:0681H         LINE#         314
  C:0684H         LINE#         316
  C:0687H         LINE#         317
  C:0688H         LINE#         318
  C:0689H         LINE#         319
  C:068AH         LINE#         320
  C:068CH         LINE#         321
BL51 BANKED LINKER/LOCATER V4.16a           01/09/2008  13:19:07  PAGE 22


  C:068FH         LINE#         323
  C:0691H         LINE#         324
  C:0693H         LINE#         325
  C:0694H         LINE#         326
  C:0696H         LINE#         328
  C:0698H         LINE#         329
  C:069AH         LINE#         330
  C:069BH         LINE#         331
  C:069DH         LINE#         333
  C:069FH         LINE#         334
  C:06A1H         LINE#         338
  C:06A3H         LINE#         339
  C:06A5H         LINE#         340
  C:06A7H         LINE#         341
  C:06A9H         LINE#         342
  C:06ABH         LINE#         343
  C:06ADH         LINE#         344
  C:06B0H         LINE#         345
  C:06B2H         LINE#         346
  C:06B4H         LINE#         347
  C:06B6H         LINE#         348
  C:06B8H         LINE#         349
  C:06BAH         LINE#         351
  C:06BCH         LINE#         352
  C:06BEH         LINE#         354
  C:06C1H         LINE#         355
  C:06C4H         LINE#         356
  C:06C6H         LINE#         357
  C:06C9H         LINE#         358
  C:06CBH         LINE#         359
  C:06CEH         LINE#         360
  C:06D0H         LINE#         361
  C:06D3H         LINE#         362
  C:06D5H         LINE#         363
  C:06D8H         LINE#         364
  C:06DBH         LINE#         365
  C:06DDH         LINE#         366
  C:06DFH         LINE#         367
  C:06E0H         LINE#         368
  C:06E1H         LINE#         369
  C:06E3H         LINE#         370
  C:06E4H         LINE#         372
  C:06E7H         LINE#         373
  C:06E9H         LINE#         374
  C:06EBH         LINE#         375
  C:06ECH         LINE#         376
  C:06EDH         LINE#         377
  C:06EFH         LINE#         378
  C:06F0H         LINE#         379
  C:06F3H         LINE#         380
  C:06F5H         LINE#         381
  C:06F7H         LINE#         382
  C:06F8H         LINE#         383
  C:06F9H         LINE#         384
  C:06FBH         LINE#         385
  C:06FCH         LINE#         386
  C:06FFH         LINE#         387
  C:0701H         LINE#         388
  C:0703H         LINE#         389
  C:0704H         LINE#         390
  C:0705H         LINE#         391
  C:0707H         LINE#         392
  C:0708H         LINE#         393
  C:070BH         LINE#         394
  C:070EH         LINE#         395
BL51 BANKED LINKER/LOCATER V4.16a           01/09/2008  13:19:07  PAGE 23


  C:0710H         LINE#         396
  C:0712H         LINE#         397
  C:0713H         LINE#         398
  C:0715H         LINE#         399
  C:0717H         LINE#         401
  C:0719H         LINE#         402
  C:071AH         LINE#         403
  C:071DH         LINE#         404
  C:0720H         LINE#         405
  C:0723H         LINE#         408
  C:0725H         LINE#         409
  C:0727H         LINE#         410
  C:0728H         LINE#         411
  C:072BH         LINE#         412
  C:072EH         LINE#         413
  C:0731H         LINE#         416
  C:0734H         LINE#         417
  C:0737H         LINE#         419
  C:0739H         LINE#         420
  C:073BH         LINE#         421
  C:073EH         LINE#         422
  C:0741H         LINE#         424
  C:0743H         LINE#         425
  C:0746H         LINE#         426
  C:0749H         LINE#         436
  C:074BH         LINE#         437
  C:074EH         LINE#         439
  C:0751H         LINE#         440
  C:0753H         LINE#         441
  C:0756H         LINE#         442
  C:0758H         LINE#         443
  C:075BH         LINE#         444
  C:075DH         LINE#         446
  C:075FH         LINE#         447
  C:0760H         LINE#         448
  C:0763H         LINE#         449
  C:0765H         LINE#         450
  C:0767H         LINE#         451
  C:0768H         LINE#         453
  C:0769H         LINE#         454
  C:076BH         LINE#         455
  C:076DH         LINE#         457
  C:0770H         LINE#         458
  C:0772H         LINE#         464
  C:0774H         LINE#         465
  C:0777H         LINE#         466
  C:0779H         LINE#         467
  C:077BH         LINE#         468
  C:077DH         LINE#         469
  C:0780H         LINE#         470
  C:0782H         LINE#         474
  C:0783H         LINE#         475
  C:0785H         LINE#         476
  C:0787H         LINE#         477
  C:0789H         LINE#         478
  C:078BH         LINE#         479
  C:078DH         LINE#         480
  C:078FH         LINE#         483
  C:0792H         LINE#         485
  C:0794H         LINE#         486
  C:0796H         LINE#         487
  C:0799H         LINE#         488
  C:079CH         LINE#         489
  C:079FH         LINE#         492
  C:07A1H         LINE#         494
BL51 BANKED LINKER/LOCATER V4.16a           01/09/2008  13:19:07  PAGE 24


  C:07A2H         LINE#         495
  C:07A4H         LINE#         496
  C:07A6H         LINE#         498
  C:07A8H         LINE#         499
  C:07AAH         LINE#         500
  C:07ABH         LINE#         501
  C:07ACH         LINE#         502
  C:07AEH         LINE#         506
  C:07B0H         LINE#         507
  C:07B1H         LINE#         508
  C:07B3H         LINE#         509
  C:07B4H         LINE#         510
  C:07B5H         LINE#         511
  C:07B7H         LINE#         512
  C:07B8H         LINE#         513
  C:07B9H         LINE#         514
  C:07BAH         LINE#         515
  C:07BCH         LINE#         516
  C:07BDH         LINE#         517
  C:07BFH         LINE#         518
  C:07C0H         LINE#         519
  C:07C1H         LINE#         520
  C:07C3H         LINE#         521
  C:07C4H         LINE#         522
  C:07C6H         LINE#         523
  C:07C8H         LINE#         525
  C:07CAH         LINE#         526
  C:07CBH         LINE#         527
  C:07CCH         LINE#         528
  C:07CEH         LINE#         529
  C:07CFH         LINE#         530
  C:07D1H         LINE#         531
  C:07D3H         LINE#         533
  C:07D5H         LINE#         534
  C:07D6H         LINE#         535
  C:07D7H         LINE#         536
  C:07D9H         LINE#         537
  C:07DAH         LINE#         538
  C:07DCH         LINE#         539
  C:07DEH         LINE#         541
  C:07E1H         LINE#         542
  C:07E2H         LINE#         543
  C:07E4H         LINE#         544
  C:07E5H         LINE#         545
  C:07E6H         LINE#         546
  C:07E8H         LINE#         547
  C:07EAH         LINE#         548
  C:07ECH         LINE#         550
  C:07EEH         LINE#         551
  C:07EFH         LINE#         552
  C:07F0H         LINE#         553
  C:07F2H         LINE#         554
  C:07F4H         LINE#         559
  C:07F6H         LINE#         560
  C:07F7H         LINE#         561
  C:07FAH         LINE#         562
  C:07FCH         LINE#         565
  C:07FEH         LINE#         566
  C:0800H         LINE#         567
  C:0803H         LINE#         569
  C:0805H         LINE#         570
  C:0808H         LINE#         571
  C:080AH         LINE#         572
  C:080DH         LINE#         573
  C:080FH         LINE#         574
BL51 BANKED LINKER/LOCATER V4.16a           01/09/2008  13:19:07  PAGE 25


  C:0812H         LINE#         575
  C:0814H         LINE#         576
  C:0816H         LINE#         577
  C:0818H         LINE#         578
  C:081BH         LINE#         580
  C:081EH         LINE#         581
  C:0821H         LINE#         582
  C:0824H         LINE#         583
  C:0826H         LINE#         584
  C:0829H         LINE#         585
  C:082BH         LINE#         586
  C:082EH         LINE#         588
  C:0830H         LINE#         589
  C:0833H         LINE#         591
  C:0835H         LINE#         592
  C:0837H         LINE#         593
  C:0839H         LINE#         594
  C:083AH         LINE#         595
  C:083DH         LINE#         601
  C:0840H         LINE#         604
  C:0842H         LINE#         605
  C:0845H         LINE#         606
  C:0847H         LINE#         607
  C:084AH         LINE#         608
  C:084CH         LINE#         609
  C:084FH         LINE#         610
  C:0851H         LINE#         611
  C:0853H         LINE#         612
  C:0855H         LINE#         613
  C:0858H         LINE#         615
  C:085BH         LINE#         616
  C:085DH         LINE#         620
  C:0860H         LINE#         622
  C:0862H         LINE#         623
  C:0865H         LINE#         624
  C:0867H         LINE#         625
  C:086AH         LINE#         626
  C:086CH         LINE#         627
  C:086FH         LINE#         628
  C:0871H         LINE#         629
  C:0873H         LINE#         630
  C:0875H         LINE#         631
  C:0878H         LINE#         633
  C:087BH         LINE#         634
  C:087DH         LINE#         636
  C:0880H         LINE#         638
  C:0882H         LINE#         639
  C:0885H         LINE#         640
  C:0887H         LINE#         641
  C:088AH         LINE#         642
  C:088CH         LINE#         643
  C:088FH         LINE#         644
  C:0891H         LINE#         645
  C:0893H         LINE#         646
  C:0895H         LINE#         647
  C:0898H         LINE#         649
  C:089BH         LINE#         650
  C:089DH         LINE#         653
  C:089FH         LINE#         654
  C:08A1H         LINE#         655
  C:08A4H         LINE#         656
  C:08A6H         LINE#         657
  C:08A9H         LINE#         661
  C:08ABH         LINE#         662
  C:08AEH         LINE#         663
BL51 BANKED LINKER/LOCATER V4.16a           01/09/2008  13:19:07  PAGE 26


  C:08B1H         LINE#         664
  C:08B4H         LINE#         666
  C:08B6H         LINE#         667
  C:08B9H         LINE#         668
  C:08BCH         LINE#         669
  C:08BFH         LINE#         671
  C:08C2H         LINE#         672
  C:08C5H         LINE#         673
  C:08C8H         LINE#         675
  C:08CBH         LINE#         676
  C:08CEH         LINE#         677
  C:08D1H         LINE#         678
  C:08D4H         LINE#         679
  C:08D7H         LINE#         680
  C:08DAH         LINE#         681
  C:08DDH         LINE#         682
  C:08E0H         LINE#         684
  C:08E3H         LINE#         685
  C:08E6H         LINE#         687
  C:08E9H         LINE#         688
  C:08ECH         LINE#         690
  C:08EFH         LINE#         691
  C:08F2H         LINE#         693
  C:08F5H         LINE#         694
  C:08F8H         LINE#         696
  C:08FBH         LINE#         697
  C:08FEH         LINE#         699
  C:0901H         LINE#         702
  C:0903H         LINE#         703
  C:0906H         LINE#         705
  C:0909H         LINE#         706
  C:090CH         LINE#         708
  C:090FH         LINE#         709
  C:0912H         LINE#         710
  C:0915H         LINE#         711
  C:0918H         LINE#         712
  C:091BH         LINE#         713
  C:091EH         LINE#         714
  C:0921H         LINE#         715
  C:0924H         LINE#         716
  C:0927H         LINE#         717
  C:092AH         LINE#         718
  C:092DH         LINE#         719
  C:0930H         LINE#         720
  C:0933H         LINE#         721
  C:0936H         LINE#         722
  C:0939H         LINE#         723
  C:093CH         LINE#         724
  C:093FH         LINE#         725
  C:0942H         LINE#         726
  C:0945H         LINE#         728
  C:0948H         LINE#         730
  C:094BH         LINE#         731
  C:094EH         LINE#         732
  C:0951H         LINE#         733
  C:0954H         LINE#         734
  C:0957H         LINE#         735
  C:095AH         LINE#         736
  C:095DH         LINE#         737
  C:0960H         LINE#         739
  C:0963H         LINE#         740
  C:0966H         LINE#         742
  C:0969H         LINE#         743
  C:096CH         LINE#         745
  C:096FH         LINE#         746
BL51 BANKED LINKER/LOCATER V4.16a           01/09/2008  13:19:07  PAGE 27


  C:0972H         LINE#         748
  C:0975H         LINE#         749
  C:0978H         LINE#         751
  C:097BH         LINE#         752
  C:097EH         LINE#         754
  C:0981H         LINE#         755
  C:0984H         LINE#         756
  C:0987H         LINE#         758
  C:098AH         LINE#         759
  C:098DH         LINE#         760
  C:0990H         LINE#         761
  C:0993H         LINE#         762
  C:0996H         LINE#         763
  C:0999H         LINE#         764
  C:099CH         LINE#         766
  C:099FH         LINE#         767
  C:09A2H         LINE#         769
  C:09A5H         LINE#         770
  C:09A8H         LINE#         772
  C:09ABH         LINE#         773
  C:09AEH         LINE#         775
  C:09B1H         LINE#         776
  C:09B4H         LINE#         778
  C:09B7H         LINE#         779
  C:09BAH         LINE#         781
  C:09BDH         LINE#         784
  C:09BFH         LINE#         785
  C:09C2H         LINE#         787
  C:09C5H         LINE#         788
  C:09C8H         LINE#         790
  C:09CBH         LINE#         791
  C:09CEH         LINE#         792
  C:09D1H         LINE#         793
  C:09D4H         LINE#         794
  C:09D7H         LINE#         795
  C:09DAH         LINE#         796
  C:09DDH         LINE#         797
  C:09E0H         LINE#         798
  C:09E3H         LINE#         799
  C:09E6H         LINE#         800
  C:09E9H         LINE#         801
  C:09ECH         LINE#         802
  C:09EFH         LINE#         803
  C:09F2H         LINE#         804
  C:09F5H         LINE#         805
  C:09F8H         LINE#         806
  C:09FBH         LINE#         807
  C:09FEH         LINE#         809
  C:0A01H         LINE#         810
  C:0A04H         LINE#         811
  C:0A07H         LINE#         812
  C:0A0AH         LINE#         813
  C:0A0DH         LINE#         814
  C:0A10H         LINE#         815
  C:0A13H         LINE#         816
  C:0A16H         LINE#         817
  C:0A19H         LINE#         818
  C:0A1CH         LINE#         819
  C:0A1FH         LINE#         820
  C:0A22H         LINE#         821
  C:0A25H         LINE#         822
  C:0A28H         LINE#         823
  C:0A2BH         LINE#         824
  C:0A2EH         LINE#         825
  C:0A31H         LINE#         826
BL51 BANKED LINKER/LOCATER V4.16a           01/09/2008  13:19:07  PAGE 28


  C:0A34H         LINE#         827
  C:0A37H         LINE#         828
  C:0A3AH         LINE#         829
  C:0A3CH         LINE#         832
  C:0A3FH         LINE#         833
  C:0A42H         LINE#         834
  C:0A45H         LINE#         835
  C:0A48H         LINE#         836
  C:0A4BH         LINE#         837
  C:0A4EH         LINE#         840
  C:0A50H         LINE#         841
  C:0A53H         LINE#         843
  C:0A56H         LINE#         844
  C:0A59H         LINE#         846
  C:0A5CH         LINE#         847
  C:0A5FH         LINE#         848
  C:0A62H         LINE#         849
  C:0A65H         LINE#         850
  C:0A68H         LINE#         851
  C:0A6BH         LINE#         855
  C:0A6DH         LINE#         856
  C:0A6EH         LINE#         857
  C:0A6FH         LINE#         858
  C:0A72H         LINE#         860
  C:0A75H         LINE#         861
  C:0A77H         LINE#         862
  C:0A7AH         LINE#         863
  C:0A7CH         LINE#         864
  C:0A7DH         LINE#         866
  C:0A80H         LINE#         867
  C:0A83H         LINE#         868
  C:0A86H         LINE#         869
  C:0A88H         LINE#         871
  C:0A8BH         LINE#         872
  C:0A8EH         LINE#         873
  C:0A91H         LINE#         874
  C:0A93H         LINE#         876
  C:0A96H         LINE#         877
  C:0A99H         LINE#         878
  C:0A9CH         LINE#         879
  C:0A9EH         LINE#         881
  C:0AA1H         LINE#         882
  C:0AA4H         LINE#         883
  C:0AA6H         LINE#         885
  C:0AA9H         LINE#         886
  C:0AAAH         LINE#         887
  C:0AACH         LINE#         888
  C:0AAEH         LINE#         889
  C:0AB0H         LINE#         892
  C:0AB3H         LINE#         899
  C:0AB5H         LINE#         900
  C:0AB8H         LINE#         904
  C:0AB9H         LINE#         905
  C:0ABBH         LINE#         906
  C:0ABDH         LINE#         907
  C:0ABEH         LINE#         908
  C:0AC0H         LINE#         910
  C:0AC3H         LINE#         911
  C:0AC5H         LINE#         912
  C:0AC8H         LINE#         914
  C:0ACAH         LINE#         915
  C:0ACBH         LINE#         916
  C:0ACEH         LINE#         917
  C:0AD0H         LINE#         918
  C:0AD3H         LINE#         919
BL51 BANKED LINKER/LOCATER V4.16a           01/09/2008  13:19:07  PAGE 29


  C:0AD6H         LINE#         920
  C:0AD8H         LINE#         921
  C:0ADBH         LINE#         922
  C:0ADDH         LINE#         925
  C:0ADFH         LINE#         926
  C:0AE0H         LINE#         927
  C:0AE3H         LINE#         929
  C:0AE6H         LINE#         933
  C:0AE8H         LINE#         934
  C:0AE9H         LINE#         935
  C:0AECH         LINE#         936
  C:0AEFH         LINE#         937
  C:0AF2H         LINE#         938
  C:0AF4H         LINE#         939
  C:0AF7H         LINE#         940
  C:0AF9H         LINE#         942
  C:0AFCH         LINE#         944
  C:0AFEH         LINE#         946
  C:0AFFH         LINE#         947
  C:0B01H         LINE#         948
  C:0B03H         LINE#         949
  C:0B04H         LINE#         950
  C:0B06H         LINE#         961
  C:0B08H         LINE#         962
  C:0B0BH         LINE#         964
  C:0B0EH         LINE#         965
  C:0B10H         LINE#         966
  C:0B13H         LINE#         967
  C:0B15H         LINE#         968
  C:0B18H         LINE#         969
  C:0B1BH         LINE#         970
  C:0B1DH         LINE#         971
  C:0B20H         LINE#         972
  C:0B23H         LINE#         974
  C:0B25H         LINE#         975
  C:0B26H         LINE#         976
  C:0B28H         LINE#         977
  C:0B2AH         LINE#         978
  C:0B2CH         LINE#         979
  C:0B2FH         LINE#         980
  C:0B31H         LINE#         981
  C:0B34H         LINE#         982
  C:0B36H         LINE#         984
  C:0B39H         LINE#         986
  C:0B3BH         LINE#         987
  C:0B3EH         LINE#         989
  C:0B40H         LINE#         990
  C:0B41H         LINE#         991
  C:0B43H         LINE#         992
  C:0B45H         LINE#         994
  C:0B47H         LINE#         995
  C:0B4AH         LINE#         996
  C:0B4CH         LINE#         998
  C:0B4FH         LINE#         999
  C:0B51H         LINE#         1000
  C:0B54H         LINE#         1006
  C:0B56H         LINE#         1007
  C:0B59H         LINE#         1008
  C:0B5CH         LINE#         1009
  C:0B5EH         LINE#         1010
  C:0B61H         LINE#         1011
  C:0B64H         LINE#         1012
  C:0B66H         LINE#         1013
  C:0B67H         LINE#         1014
  C:0B6AH         LINE#         1017
BL51 BANKED LINKER/LOCATER V4.16a           01/09/2008  13:19:07  PAGE 30


  C:0B6CH         LINE#         1018
  C:0B6FH         LINE#         1019
  C:0B72H         LINE#         1020
  C:0B74H         LINE#         1021
  C:0B77H         LINE#         1025
  C:0B78H         LINE#         1026
  C:0B7AH         LINE#         1027
  C:0B7BH         LINE#         1028
  C:0B7EH         LINE#         1029
  C:0B81H         LINE#         1030
  C:0B84H         LINE#         1031
  C:0B86H         LINE#         1033
  C:0B89H         LINE#         1034
  C:0B8BH         LINE#         1035
  C:0B8EH         LINE#         1036
  C:0B90H         LINE#         1037
  C:0B92H         LINE#         1038
  C:0B95H         LINE#         1039
  C:0B98H         LINE#         1040
  C:0B9AH         LINE#         1041
  C:0B9CH         LINE#         1042
  C:0B9EH         LINE#         1043
  C:0BA0H         LINE#         1044
  C:0BA2H         LINE#         1045
  C:0BA4H         LINE#         1046
  C:0BA7H         LINE#         1047
  C:0BAAH         LINE#         1048
  C:0BADH         LINE#         1049
  C:0BAFH         LINE#         1050
  C:0BB1H         LINE#         1051
  C:0BB3H         LINE#         1052
  C:0BB5H         LINE#         1053
  C:0BB8H         LINE#         1058
  C:0BBAH         LINE#         1059
  C:0BBCH         LINE#         1060
  C:0BBEH         LINE#         1061
  C:0BC0H         LINE#         1062
  C:0BC2H         LINE#         1063
  C:0BC4H         LINE#         1064
  C:0BC7H         LINE#         1065
  C:0BCAH         LINE#         1066
  C:0BCDH         LINE#         1067
  C:0BCFH         LINE#         1068
  C:0BD1H         LINE#         1069
  C:0BD3H         LINE#         1070
  C:0BD5H         LINE#         1071
  C:0BD8H         LINE#         1072
  C:0BDBH         LINE#         1073
  C:0BDEH         LINE#         1074
  C:0BE1H         LINE#         1076
  C:0BE3H         LINE#         1077
  C:0BE6H         LINE#         1078
  C:0BE8H         LINE#         1079
  C:0BEAH         LINE#         1080
  C:0BEDH         LINE#         1081
  C:0BF0H         LINE#         1082
  C:0BF2H         LINE#         1083
  C:0BF4H         LINE#         1084
  C:0BF6H         LINE#         1085
  C:0BF8H         LINE#         1086
  C:0BFAH         LINE#         1087
  C:0BFCH         LINE#         1088
  C:0BFEH         LINE#         1089
  C:0C00H         LINE#         1090
  C:0C02H         LINE#         1091
BL51 BANKED LINKER/LOCATER V4.16a           01/09/2008  13:19:07  PAGE 31


  C:0C05H         LINE#         1092
  C:0C08H         LINE#         1093
  C:0C0AH         LINE#         1094
  C:0C0CH         LINE#         1095
  C:0C0EH         LINE#         1096
  C:0C10H         LINE#         1097
  C:0C12H         LINE#         1098
  C:0C14H         LINE#         1099
  C:0C16H         LINE#         1102
  C:0C19H         LINE#         1103
  C:0C1CH         LINE#         1104
  C:0C1FH         LINE#         1105
  C:0C21H         LINE#         1106
  C:0C24H         LINE#         1107
  C:0C27H         LINE#         1109
  C:0C2AH         LINE#         1110
  C:0C2DH         LINE#         1111
  C:0C30H         LINE#         1112
  C:0C33H         LINE#         1113
  C:0C36H         LINE#         1114
  C:0C38H         LINE#         1115
  C:0C3BH         LINE#         1117
  C:0C3EH         LINE#         1119
  C:0C41H         LINE#         1120
  C:0C43H         LINE#         1121
  C:0C46H         LINE#         1122
  C:0C49H         LINE#         1123
  C:0C4AH         LINE#         1124
  C:0C4CH         LINE#         1125
  C:0C4DH         LINE#         1126
  C:0C50H         LINE#         1127
  C:0C53H         LINE#         1128
  C:0C56H         LINE#         1129
  C:0C58H         LINE#         1132
  C:0C5BH         LINE#         1133
  C:0C5EH         LINE#         1134
  C:0C60H         LINE#         1135
  C:0C63H         LINE#         1138
  C:0C65H         LINE#         1139
  C:0C68H         LINE#         1140
  C:0C6AH         LINE#         1141
  C:0C6DH         LINE#         1143
  C:0C6FH         LINE#         1144
  C:0C72H         LINE#         1145
  C:0C75H         LINE#         1146
  C:0C77H         LINE#         1147
  C:0C7AH         LINE#         1149
  C:0C7DH         LINE#         1151
  C:0C7FH         LINE#         1152
  C:0C82H         LINE#         1153
  C:0C85H         LINE#         1155
  C:0C88H         LINE#         1156
  C:0C8BH         LINE#         1157
  C:0C8DH         LINE#         1158
  C:0C90H         LINE#         1159
  C:0C92H         LINE#         1161
  C:0C93H         LINE#         1162
  C:0C95H         LINE#         1163
  C:0C96H         LINE#         1164
  C:0C99H         LINE#         1165
  C:0C9CH         LINE#         1166
  C:0C9FH         LINE#         1167
  C:0CA1H         LINE#         1168
  C:0CA3H         LINE#         1169
  C:0CA6H         LINE#         1170
BL51 BANKED LINKER/LOCATER V4.16a           01/09/2008  13:19:07  PAGE 32


  C:0CA8H         LINE#         1172
  C:0CA9H         LINE#         1173
  C:0CACH         LINE#         1174
  C:0CADH         LINE#         1176
  C:0CB0H         LINE#         1178
  C:0CB3H         LINE#         1179
  C:0CB5H         LINE#         1180
  C:0CB8H         LINE#         1181
  C:0CBAH         LINE#         1182
  C:0CBDH         LINE#         1183
  C:0CBFH         LINE#         1184
  C:0CC1H         LINE#         1185
  C:0CC3H         LINE#         1187
  C:0CC5H         LINE#         1188
  C:0CC7H         LINE#         1189
  C:0CC9H         LINE#         1190
  C:0CCBH         LINE#         1191
  C:0CCDH         LINE#         1192
  C:0CCFH         LINE#         1193
  C:0CD2H         LINE#         1194
  C:0CD5H         LINE#         1195
  C:0CD8H         LINE#         1196
  C:0CDBH         LINE#         1197
  C:0CDDH         LINE#         1204
  C:0CDFH         LINE#         1205
  C:0CE2H         LINE#         1207
  C:0CE5H         LINE#         1208
  C:0CE6H         LINE#         1209
  C:0CE8H         LINE#         1210
  C:0CE9H         LINE#         1213
  C:0CECH         LINE#         1214
  C:0CEFH         LINE#         1215
  C:0CF2H         LINE#         1216
  C:0CF4H         LINE#         1217
  C:0CF7H         LINE#         1218
  C:0CFAH         LINE#         1219
  C:0CFDH         LINE#         1220
  C:0CFFH         LINE#         1222
  C:0D02H         LINE#         1223
  C:0D04H         LINE#         1224
  C:0D06H         LINE#         1225
  C:0D08H         LINE#         1226
  C:0D0AH         LINE#         1227
  C:0D0CH         LINE#         1228
  C:0D0FH         LINE#         1229
  C:0D12H         LINE#         1230
  C:0D15H         LINE#         1231
  C:0D18H         LINE#         1232
  C:0D1AH         LINE#         1233
  C:0D1DH         LINE#         1234
  C:0D20H         LINE#         1235
  C:0D23H         LINE#         1236
  C:0D25H         LINE#         1237
  C:0D27H         LINE#         1238
  C:0D29H         LINE#         1239
  C:0D2BH         LINE#         1240
  C:0D2EH         LINE#         1241
  C:0D30H         LINE#         1242
  C:0D33H         LINE#         1243
  C:0D36H         LINE#         1245
  C:0D38H         LINE#         1246
  C:0D3BH         LINE#         1248
  C:0D3DH         LINE#         1250
  C:0D3FH         LINE#         1251
  C:0D40H         LINE#         1252
BL51 BANKED LINKER/LOCATER V4.16a           01/09/2008  13:19:07  PAGE 33


  C:0D43H         LINE#         1254
  C:0D45H         LINE#         1255
  C:0D48H         LINE#         1257
  C:0D4BH         LINE#         1258
  C:0D4EH         LINE#         1259
  C:0D51H         LINE#         1261
  C:0D53H         LINE#         1262
  C:0D55H         LINE#         1263
  C:0D57H         LINE#         1264
  C:0D59H         LINE#         1265
  C:0D5CH         LINE#         1266
  C:0D5FH         LINE#         1267
  C:0D62H         LINE#         1268
  C:0D64H         LINE#         1269
  C:0D66H         LINE#         1270
  C:0D67H         LINE#         1271
  C:0D6AH         LINE#         1272
  C:0D6DH         LINE#         1273
  C:0D70H         LINE#         1274
  C:0D72H         LINE#         1276
  C:0D75H         LINE#         1277
  C:0D78H         LINE#         1278
  C:0D7BH         LINE#         1279
  C:0D7EH         LINE#         1280
  C:0D81H         LINE#         1281
  C:0D84H         LINE#         1282
  C:0D87H         LINE#         1283
  C:0D8AH         LINE#         1285
  C:0D8CH         LINE#         1286
  C:0D8FH         LINE#         1288
  C:0D92H         LINE#         1289
  C:0D95H         LINE#         1290
  C:0D98H         LINE#         1291
  C:0D9AH         LINE#         1292
  C:0D9CH         LINE#         1293
  C:0D9DH         LINE#         1294
  C:0DA0H         LINE#         1295
  C:0DA3H         LINE#         1296
  C:0DA6H         LINE#         1297
  C:0DA8H         LINE#         1301
  C:0DAAH         LINE#         1302
  C:0DACH         LINE#         1303
  C:0DAFH         LINE#         1308
  C:0DB1H         LINE#         1309
  C:0DB4H         LINE#         1310
  C:0DB5H         LINE#         1311
  C:0DB8H         LINE#         1312
  C:0DB9H         LINE#         1313
  C:0DBBH         LINE#         1314
  C:0DBDH         LINE#         1316
  C:0DBEH         LINE#         1317
  C:0DC0H         LINE#         1318
  C:0DC2H         LINE#         1319
  C:0DC4H         LINE#         1320
  C:0DC5H         LINE#         1321
  C:0DC7H         LINE#         1322
  C:0DC8H         LINE#         1323
  C:0DC9H         LINE#         1324
  C:0DCAH         LINE#         1325
  C:0DCCH         LINE#         1327
  C:0DCEH         LINE#         1328
  C:0DD1H         LINE#         1329
  C:0DD3H         LINE#         1330
  C:0DD5H         LINE#         1332
  C:0DD7H         LINE#         1333
BL51 BANKED LINKER/LOCATER V4.16a           01/09/2008  13:19:07  PAGE 34


  C:0DD8H         LINE#         1334
  C:0DDAH         LINE#         1335
  C:0DDBH         LINE#         1336
  C:0DDCH         LINE#         1337
  C:0DDDH         LINE#         1338
  C:0DDEH         LINE#         1339
  C:0DE0H         LINE#         1340
  C:0DE2H         LINE#         1341
  C:0DE3H         LINE#         1342
  C:0DE5H         LINE#         1343
  C:0DE6H         LINE#         1344
  C:0DE7H         LINE#         1345
  C:0DE8H         LINE#         1346
  C:0DEAH         LINE#         1348
  C:0DECH         LINE#         1349
  C:0DEFH         LINE#         1350
  C:0DF1H         LINE#         1351
  C:0DF2H         LINE#         1352
  C:0DF4H         LINE#         1354
  C:0DF7H         LINE#         1355
  C:0DF9H         LINE#         1356
  C:0DFBH         LINE#         1357
  C:0DFDH         LINE#         1358
  C:0DFFH         LINE#         1359
  C:0E02H         LINE#         1360
  C:0E05H         LINE#         1361
  C:0E08H         LINE#         1362
  C:0E0BH         LINE#         1363
  C:0E0EH         LINE#         1364
  C:0E11H         LINE#         1369
  C:0E14H         LINE#         1370
  C:0E17H         LINE#         1371
  C:0E19H         LINE#         1372
  C:0E1CH         LINE#         1374
  C:0E1FH         LINE#         1375
  C:0E22H         LINE#         1376
  C:0E25H         LINE#         1377
  C:0E28H         LINE#         1378
  C:0E2BH         LINE#         1379
  C:0E2EH         LINE#         1380
  C:0E31H         LINE#         1381
  C:0E33H         LINE#         1382
  C:0E36H         LINE#         1384
  C:0E37H         LINE#         1386
  C:0E3AH         LINE#         1387
  C:0E3BH         LINE#         1389
  C:0E3EH         LINE#         1392
  C:0E41H         LINE#         1393
  C:0E43H         LINE#         1394
  C:0E46H         LINE#         1395
  C:0E48H         LINE#         1396
  C:0E4BH         LINE#         1397
  C:0E4DH         LINE#         1398
  C:0E4FH         LINE#         1399
  C:0E52H         LINE#         1401
  C:0E53H         LINE#         1402
  C:0E56H         LINE#         1414
  C:0E59H         LINE#         1416
  C:0E5BH         LINE#         1417
  C:0E5DH         LINE#         1418
  C:0E60H         LINE#         1421
  C:0E62H         LINE#         1422
  C:0E64H         LINE#         1423
  C:0E65H         LINE#         1424
  C:0E67H         LINE#         1425
BL51 BANKED LINKER/LOCATER V4.16a           01/09/2008  13:19:07  PAGE 35


  C:0E69H         LINE#         1426
  C:0E6BH         LINE#         1436
  C:0E6EH         LINE#         1437
  C:0E71H         LINE#         1438
  C:0E74H         LINE#         1440
  C:0E77H         LINE#         1441
  C:0E7AH         LINE#         1447
  C:0E7CH         LINE#         1448
  C:0E7FH         LINE#         1450
  C:0E82H         LINE#         1451
  C:0E84H         LINE#         1452
  C:0E87H         LINE#         1455
  C:0E89H         LINE#         1456
  C:0E8BH         LINE#         1457
  C:0E8EH         LINE#         1459
  C:0E90H         LINE#         1460
  C:0E92H         LINE#         1461
  C:0E94H         LINE#         1462
  C:0E95H         LINE#         1463
  C:0E97H         LINE#         1464
  C:0E98H         LINE#         1465
  C:0E99H         LINE#         1466
  C:0E9AH         LINE#         1467
  C:0E9CH         LINE#         1468
  C:0E9EH         LINE#         1469
  C:0EA0H         LINE#         1470
  C:0EA2H         LINE#         1471
  C:0EA4H         LINE#         1472
  C:0EA7H         LINE#         1473
  C:0EA9H         LINE#         1474
  C:0EABH         LINE#         1475
  C:0EADH         LINE#         1476
  C:0EAEH         LINE#         1477
  C:0EB1H         LINE#         1478
  C:0EB4H         LINE#         1479
  C:0EB6H         LINE#         1480
  C:0EB7H         LINE#         1481
  C:0EB9H         LINE#         1482
  C:0EBAH         LINE#         1483
  C:0EBCH         LINE#         1484
  C:0EBFH         LINE#         1485
  C:0EC2H         LINE#         1486
  C:0EC4H         LINE#         1487
  C:0EC5H         LINE#         1488
  C:0EC7H         LINE#         1490
  C:0EC8H         LINE#         1491
  C:0ECAH         LINE#         1493
  C:0ECDH         LINE#         1494
  C:0ECFH         LINE#         1496
  C:0ED1H         LINE#         1497
  C:0ED2H         LINE#         1498
  C:0ED3H         LINE#         1499
  C:0ED5H         LINE#         1500
  C:0ED6H         LINE#         1501
  C:0ED8H         LINE#         1502
  C:0ED9H         LINE#         1503
  C:0EDBH         LINE#         1507
  C:0EDDH         LINE#         1508
  C:0EE0H         LINE#         1511
  C:0EE2H         LINE#         1512
  C:0EE3H         LINE#         1513
  C:0EE6H         LINE#         1514
  C:0EE8H         LINE#         1515
  C:0EE9H         LINE#         1516
  C:0EEBH         LINE#         1517
BL51 BANKED LINKER/LOCATER V4.16a           01/09/2008  13:19:07  PAGE 36


  C:0EEEH         LINE#         1518
  C:0EF0H         LINE#         1519
  C:0EF1H         LINE#         1520
  C:0EF3H         LINE#         1521
  C:0EF6H         LINE#         1522
  C:0EF8H         LINE#         1523
  C:0EF9H         LINE#         1524
  C:0EFBH         LINE#         1526
  C:0EFDH         LINE#         1527
  C:0EFEH         LINE#         1532
  C:0F00H         LINE#         1533
  C:0F01H         LINE#         1534
  C:0F04H         LINE#         1535
  C:0F06H         LINE#         1536
  C:0F07H         LINE#         1538
  C:0F09H         LINE#         1539
  C:0F0AH         LINE#         1540
  C:0F0DH         LINE#         1541
  C:0F0FH         LINE#         1542
  C:0F10H         LINE#         1544
  C:0F13H         LINE#         1545
  C:0F15H         LINE#         1546
  C:0F18H         LINE#         1547
  C:0F1AH         LINE#         1548
  C:0F1CH         LINE#         1549
  C:0F1FH         LINE#         1552
  C:0F22H         LINE#         1553
  C:0F24H         LINE#         1554
  C:0F26H         LINE#         1555
  C:0F28H         LINE#         1556
  C:0F29H         LINE#         1557
  C:0F2CH         LINE#         1558
  C:0F2EH         LINE#         1561
  C:0F30H         LINE#         1562
  C:0F33H         LINE#         1563
  C:0F35H         LINE#         1564
  C:0F37H         LINE#         1565
  C:0F39H         LINE#         1568
  C:0F3CH         LINE#         1569
  C:0F3FH         LINE#         1570
  C:0F42H         LINE#         1571
  C:0F45H         LINE#         1573
  C:0F48H         LINE#         1574
  C:0F4AH         LINE#         1575
  C:0F4BH         LINE#         1576
  C:0F4DH         LINE#         1577
  C:0F4EH         LINE#         1578
  C:0F50H         LINE#         1579
  C:0F53H         LINE#         1580
  C:0F56H         LINE#         1581
  C:0F59H         LINE#         1583
  C:0F5CH         LINE#         1585
  C:0F5EH         LINE#         1586
  C:0F60H         LINE#         1587
  C:0F63H         LINE#         1590
  C:0F65H         LINE#         1592
  C:0F67H         LINE#         1593
  C:0F68H         LINE#         1594
  C:0F6AH         LINE#         1595
  C:0F6BH         LINE#         1596
  C:0F6CH         LINE#         1597
  C:0F6EH         LINE#         1598
  C:0F6FH         LINE#         1599
  C:0F70H         LINE#         1600
  C:0F71H         LINE#         1601
BL51 BANKED LINKER/LOCATER V4.16a           01/09/2008  13:19:07  PAGE 37


  C:0F73H         LINE#         1602
  C:0F74H         LINE#         1603
  C:0F76H         LINE#         1604
  C:0F77H         LINE#         1605
  C:0F78H         LINE#         1606
  C:0F7AH         LINE#         1607
  C:0F7BH         LINE#         1608
  C:0F7CH         LINE#         1609
  C:0F7DH         LINE#         1610
  C:0F7FH         LINE#         1612
  C:0F81H         LINE#         1613
  C:0F82H         LINE#         1614
  C:0F83H         LINE#         1615
  C:0F85H         LINE#         1616
  C:0F86H         LINE#         1617
  C:0F87H         LINE#         1618
  C:0F88H         LINE#         1619
  C:0F8AH         LINE#         1621
  C:0F8CH         LINE#         1622
  C:0F8DH         LINE#         1623
  C:0F8EH         LINE#         1624
  C:0F90H         LINE#         1625
  C:0F91H         LINE#         1626
  C:0F92H         LINE#         1627
  C:0F93H         LINE#         1628
  C:0F95H         LINE#         1631
  C:0F96H         LINE#         1632
  C:0F98H         LINE#         1633
  C:0F99H         LINE#         1634
  C:0F9AH         LINE#         1635
  C:0F9CH         LINE#         1636
  C:0F9DH         LINE#         1637
  C:0F9EH         LINE#         1638
  C:0F9FH         LINE#         1640
  C:0FA1H         LINE#         1641
  C:0FA2H         LINE#         1642
  C:0FA3H         LINE#         1643
  C:0FA5H         LINE#         1644
  C:0FA6H         LINE#         1645
  C:0FA7H         LINE#         1646
  C:0FA8H         LINE#         1647
  C:0FA9H         LINE#         1649
  C:0FACH         LINE#         1650
  C:0FADH         LINE#         1651
  C:0FAFH         LINE#         1652
  C:0FB0H         LINE#         1653
  C:0FB1H         LINE#         1654
  C:0FB3H         LINE#         1655
  C:0FB5H         LINE#         1657
  C:0FB8H         LINE#         1660
  C:0FBAH         LINE#         1661
  C:0FBBH         LINE#         1662
  C:0FBCH         LINE#         1663
  C:0FBEH         LINE#         1664
  C:0FBFH         LINE#         1668
  C:0FC2H         LINE#         1669
  C:0FC5H         LINE#         1670
  C:0FC7H         LINE#         1671
  C:0FCAH         LINE#         1672
  C:0FCBH         LINE#         1673
  C:0FCDH         LINE#         1675
  C:0FCEH         LINE#         1676
  C:0FD0H         LINE#         1679
  C:0FD2H         LINE#         1680
  C:0FD5H         LINE#         1681
BL51 BANKED LINKER/LOCATER V4.16a           01/09/2008  13:19:07  PAGE 38


  C:0FD8H         LINE#         1682
  C:0FDBH         LINE#         1683
  C:0FDEH         LINE#         1684
  C:0FE0H         LINE#         1686
  C:0FE3H         LINE#         1687
  C:0FE6H         LINE#         1688
  C:0FE9H         LINE#         1689
  C:0FECH         LINE#         1690
  C:0FEDH         LINE#         1691
  C:0FEEH         LINE#         1692
  C:0FEFH         LINE#         1693
  C:0FF0H         LINE#         1694
  C:0FF1H         LINE#         1695
  C:0FF2H         LINE#         1696
  C:0FF3H         LINE#         1697
  C:0FF4H         LINE#         1698
  C:0FF5H         LINE#         1699
  C:0FF6H         LINE#         1700
  C:0FF7H         LINE#         1704
  C:0FFAH         LINE#         1705
  C:0FFDH         LINE#         1706
  C:1000H         LINE#         1707
  C:1003H         LINE#         1709
  C:1005H         LINE#         1711
  C:1008H         LINE#         1712
  C:100BH         LINE#         1714
  C:100EH         LINE#         1715
  C:1010H         LINE#         1716
  C:1011H         LINE#         1717
  C:1013H         LINE#         1718
  C:1016H         LINE#         1719
  C:1018H         LINE#         1720
  C:101AH         LINE#         1721
  C:101DH         LINE#         1722
  C:101FH         LINE#         1723
  C:1021H         LINE#         1724
  C:1024H         LINE#         1725
  C:1026H         LINE#         1726
  C:1028H         LINE#         1728
  C:102AH         LINE#         1729
  C:102CH         LINE#         1733
  C:102EH         LINE#         1734
  C:1030H         LINE#         1735
  C:1032H         LINE#         1736
  C:1033H         LINE#         1737
  C:1034H         LINE#         1739
  C:1036H         LINE#         1740
  C:1038H         LINE#         1741
  C:103AH         LINE#         1743
  C:103CH         LINE#         1744
  C:103EH         LINE#         1745
  C:1040H         LINE#         1747
  C:1043H         LINE#         1748
  C:1046H         LINE#         1750
  C:1048H         LINE#         1751
  C:104AH         LINE#         1752
  C:104CH         LINE#         1753
  C:104DH         LINE#         1754
  C:104EH         LINE#         1755
  C:104FH         LINE#         1756
  C:1050H         LINE#         1757
  C:1051H         LINE#         1758
  C:1052H         LINE#         1759
  C:1053H         LINE#         1760
  C:1054H         LINE#         1761
BL51 BANKED LINKER/LOCATER V4.16a           01/09/2008  13:19:07  PAGE 39


  C:1057H         LINE#         1763
  C:1059H         LINE#         1764
  C:105CH         LINE#         1765
  C:105FH         LINE#         1766
  C:1062H         LINE#         1767
  C:1064H         LINE#         1769
  C:1067H         LINE#         1770
  C:106AH         LINE#         1771
  C:106DH         LINE#         1773
  C:1070H         LINE#         1774
  C:1073H         LINE#         1775
  C:1074H         LINE#         1776
  C:1076H         LINE#         1777
  C:1077H         LINE#         1778
  C:1078H         LINE#         1779
  C:107AH         LINE#         1780
  C:107BH         LINE#         1781
  C:107CH         LINE#         1782
  C:107EH         LINE#         1783
  C:107FH         LINE#         1784
  C:1080H         LINE#         1785
  C:1082H         LINE#         1786
  C:1085H         LINE#         1787
  C:1087H         LINE#         1788
  C:108AH         LINE#         1790
  C:108CH         LINE#         1792
  C:108FH         LINE#         1793
  C:1092H         LINE#         1794
  C:1095H         LINE#         1795
  C:1098H         LINE#         1796
  C:109AH         LINE#         1799
  C:109DH         LINE#         1800
  C:10A0H         LINE#         1801
  C:10A3H         LINE#         1802
  C:10A6H         LINE#         1803
  C:10A9H         LINE#         1804
  C:10ACH         LINE#         1805
  C:10AFH         LINE#         1806
  C:10B1H         LINE#         1808
  C:10B4H         LINE#         1809
  C:10B7H         LINE#         1810
  C:10BAH         LINE#         1811
  C:10BDH         LINE#         1812
  C:10BFH         LINE#         1816
  C:10C1H         LINE#         1819
  C:10C4H         LINE#         1820
  C:10C7H         LINE#         1821
  C:10CAH         LINE#         1822
  C:10CCH         LINE#         1823
  C:10CFH         LINE#         1826
  C:10D1H         LINE#         1828
  C:10D3H         LINE#         1829
  C:10D6H         LINE#         1830
  C:10D9H         LINE#         1831
  C:10DCH         LINE#         1832
  C:10DFH         LINE#         1833
  C:10E1H         LINE#         1834
  C:10E4H         LINE#         1835
  C:10E6H         LINE#         1838
  C:10E9H         LINE#         1839
  C:10EBH         LINE#         1840
  C:10EEH         LINE#         1842
  C:10F1H         LINE#         1843
  C:10F3H         LINE#         1844
  C:10F6H         LINE#         1845
BL51 BANKED LINKER/LOCATER V4.16a           01/09/2008  13:19:07  PAGE 40


  C:10F8H         LINE#         1846
  C:10FBH         LINE#         1852
  C:10FDH         LINE#         1853
  C:1100H         LINE#         1855
  C:1102H         LINE#         1856
  C:1104H         LINE#         1857
  C:1106H         LINE#         1858
  C:1108H         LINE#         1860
  C:110BH         LINE#         1861
  C:110EH         LINE#         1862
  C:1110H         LINE#         1865
  C:1113H         LINE#         1867
  C:1115H         LINE#         1868
  C:1118H         LINE#         1871
  C:111BH         LINE#         1872
  C:111DH         LINE#         1873
  C:1120H         LINE#         1875
  C:1122H         LINE#         1876
  C:1124H         LINE#         1877
  C:1126H         LINE#         1878
  C:1128H         LINE#         1879
  C:112AH         LINE#         1880
  C:112BH         LINE#         1881
  C:112EH         LINE#         1884
  C:1131H         LINE#         1885
  C:1133H         LINE#         1886
  C:1135H         LINE#         1887
  C:1137H         LINE#         1888
  C:1138H         LINE#         1889
  C:113AH         LINE#         1890
  C:113DH         LINE#         1892
  C:1140H         LINE#         1893
  C:1142H         LINE#         1894
  C:1145H         LINE#         1895
  C:1147H         LINE#         1896
  C:114AH         LINE#         1897
  C:114DH         LINE#         1899
  C:1150H         LINE#         1900
  C:1153H         LINE#         1901
  C:1155H         LINE#         1902
  C:1158H         LINE#         1903
  C:115BH         LINE#         1905
  C:115EH         LINE#         1906
  C:1160H         LINE#         1909
  C:1163H         LINE#         1911
  C:1165H         LINE#         1912
  C:1167H         LINE#         1913
  C:1168H         LINE#         1914
  C:116AH         LINE#         1915
  C:116DH         LINE#         1919
  C:1170H         LINE#         1921
  C:1172H         LINE#         1922
  C:1175H         LINE#         1923
  C:1177H         LINE#         1924
  C:1179H         LINE#         1925
  C:117BH         LINE#         1926
  C:117DH         LINE#         1928
  C:117FH         LINE#         1929
  C:1181H         LINE#         1930
  C:1182H         LINE#         1931
  C:1183H         LINE#         1932
  C:1185H         LINE#         1933
  C:1187H         LINE#         1934
  C:1188H         LINE#         1935
  C:118BH         LINE#         1937
BL51 BANKED LINKER/LOCATER V4.16a           01/09/2008  13:19:07  PAGE 41


  C:118EH         LINE#         1942
  C:1190H         LINE#         1943
  C:1191H         LINE#         1944
  C:1193H         LINE#         1945
  C:1194H         LINE#         1946
  C:1196H         LINE#         1947
  C:1197H         LINE#         1948
  C:1199H         LINE#         1949
  C:119AH         LINE#         1951
  C:119DH         LINE#         1952
  C:119FH         LINE#         1953
  C:11A2H         LINE#         1954
  C:11A4H         LINE#         1955
  C:11A7H         LINE#         1956
  C:11AAH         LINE#         1957
  C:11ADH         LINE#         1958
  C:11B0H         LINE#         1959
  C:11B3H         LINE#         1960
  C:11B6H         LINE#         1961
  C:11B7H         LINE#         1962
  C:11B9H         LINE#         1963
  C:11BAH         LINE#         1964
  C:11BCH         LINE#         1965
  C:11BFH         LINE#         1968
  C:11C1H         LINE#         1969
  C:11C3H         LINE#         1970
  C:11C5H         LINE#         1971
  C:11C7H         LINE#         1972
  C:11C8H         LINE#         1973
  C:11CBH         LINE#         1975
  C:11CEH         LINE#         1980
  C:11D0H         LINE#         1981
  C:11D1H         LINE#         1982
  C:11D3H         LINE#         1983
  C:11D4H         LINE#         1984
  C:11D6H         LINE#         1985
  C:11D7H         LINE#         1986
  C:11D9H         LINE#         1987
  C:11DAH         LINE#         1989
  C:11DDH         LINE#         1990
  C:11DFH         LINE#         1991
  C:11E2H         LINE#         1992
  C:11E4H         LINE#         1993
  C:11E7H         LINE#         1994
  C:11EAH         LINE#         1995
  C:11EDH         LINE#         1996
  C:11F0H         LINE#         1997
  C:11F3H         LINE#         1998
  C:11F6H         LINE#         1999
  C:11F7H         LINE#         2000
  C:11F9H         LINE#         2001
  C:11FAH         LINE#         2002
  C:11FCH         LINE#         2003
  C:11FFH         LINE#         2005
  C:1201H         LINE#         2006
  C:1203H         LINE#         2007
  C:1205H         LINE#         2008
  C:1207H         LINE#         2009
  C:1209H         LINE#         2010
  C:120AH         LINE#         2011
  C:120DH         LINE#         2013
  C:1210H         LINE#         2014
  C:1212H         LINE#         2015
  C:1214H         LINE#         2016
  C:1216H         LINE#         2017
BL51 BANKED LINKER/LOCATER V4.16a           01/09/2008  13:19:07  PAGE 42


  C:1217H         LINE#         2018
  C:1219H         LINE#         2019
  C:121CH         LINE#         2020
  C:121FH         LINE#         2021
  C:1220H         LINE#         2022
  C:1223H         LINE#         2027
  C:1226H         LINE#         2028
  C:1229H         LINE#         2029
  C:122CH         LINE#         2030
  C:122FH         LINE#         2031
  C:1232H         LINE#         2033
  C:1235H         LINE#         2034
  C:1238H         LINE#         2035
  C:123BH         LINE#         2036
  C:123CH         LINE#         2044
  C:123FH         LINE#         2045
  C:1242H         LINE#         2047
  C:1244H         LINE#         2048
  C:1246H         LINE#         2049
  C:1248H         LINE#         2050
  C:124AH         LINE#         2051
  C:124CH         LINE#         2052
  C:124EH         LINE#         2053
  C:1250H         LINE#         2054
  C:1252H         LINE#         2055
  C:1254H         LINE#         2056
  C:1256H         LINE#         2057
  C:1258H         LINE#         2058
  C:125AH         LINE#         2061
  C:125DH         LINE#         2065
  C:125FH         LINE#         2066
  C:1261H         LINE#         2067
  C:1262H         LINE#         2068
  C:1263H         LINE#         2069
  C:1265H         LINE#         2071
  C:1267H         LINE#         2072
  C:126AH         LINE#         2073
  C:126CH         LINE#         2074
  C:126EH         LINE#         2075
  C:1270H         LINE#         2076
  C:1272H         LINE#         2077
  C:1275H         LINE#         2078
  C:1278H         LINE#         2079
  C:127BH         LINE#         2080
  C:127DH         LINE#         2081
  C:1280H         LINE#         2083
  C:1283H         LINE#         2084
  C:1286H         LINE#         2085
  C:1288H         LINE#         2086
  C:128BH         LINE#         2087
  C:128EH         LINE#         2088
  C:1290H         LINE#         2089
  C:1293H         LINE#         2090
  C:1296H         LINE#         2091
  C:1298H         LINE#         2092
  C:129BH         LINE#         2093
  C:129EH         LINE#         2094
  C:12A0H         LINE#         2095
  C:12A3H         LINE#         2096
  C:12A6H         LINE#         2097
  C:12A8H         LINE#         2098
  C:12ABH         LINE#         2099
  C:12AEH         LINE#         2101
  C:12B1H         LINE#         2102
  C:12B3H         LINE#         2103
BL51 BANKED LINKER/LOCATER V4.16a           01/09/2008  13:19:07  PAGE 43


  C:12B5H         LINE#         2105
  C:12B8H         LINE#         2107
  C:12BBH         LINE#         2108
  C:12BDH         LINE#         2109
  C:12BFH         LINE#         2110
  C:12C1H         LINE#         2111
  C:12C2H         LINE#         2112
  C:12C4H         LINE#         2113
  C:12C7H         LINE#         2114
  C:12CAH         LINE#         2115
  C:12CDH         LINE#         2116
  C:12CFH         LINE#         2117
  C:12D2H         LINE#         2118
  C:12D5H         LINE#         2119
  C:12D8H         LINE#         2121
  C:12DAH         LINE#         2122
  C:12DDH         LINE#         2124
  C:12DFH         LINE#         2126
  C:12E0H         LINE#         2127
  C:12E3H         LINE#         2129
  C:12E6H         LINE#         2130
  C:12E9H         LINE#         2136
  C:12EBH         LINE#         2138
  C:12ECH         LINE#         2139
  C:12EFH         LINE#         2140
  C:12F1H         LINE#         2141
  C:12F3H         LINE#         2142
  C:12F6H         LINE#         2143
  C:12F8H         LINE#         2144
  C:12FBH         LINE#         2145
  C:12FDH         LINE#         2146
  C:1300H         LINE#         2147
  C:1302H         LINE#         2148
  C:1305H         LINE#         2149
  C:1307H         LINE#         2151
  C:130AH         LINE#         2153
  C:130CH         LINE#         2154
  C:130DH         LINE#         2155
  C:130FH         LINE#         2156
  C:1310H         LINE#         2157
  C:1312H         LINE#         2158
  C:1315H         LINE#         2159
  C:1318H         LINE#         2160
  C:131AH         LINE#         2161
  C:131CH         LINE#         2163
  C:131EH         LINE#         2164
  C:1320H         LINE#         2166
  C:1323H         LINE#         2167
  C:1326H         LINE#         2168
  C:1329H         LINE#         2169
  C:132BH         LINE#         2171
  C:132DH         LINE#         2173
  C:132FH         LINE#         2174
  C:1331H         LINE#         2176
  C:1333H         LINE#         2177
  C:1335H         LINE#         2178
  C:1337H         LINE#         2180
  C:133AH         LINE#         2181
  C:133CH         LINE#         2182
  C:133DH         LINE#         2183
  C:133FH         LINE#         2184
  C:1340H         LINE#         2185
  C:1342H         LINE#         2187
  C:1344H         LINE#         2188
  C:1346H         LINE#         2189
BL51 BANKED LINKER/LOCATER V4.16a           01/09/2008  13:19:07  PAGE 44


  C:1348H         LINE#         2190
  C:1349H         LINE#         2191
  C:134BH         LINE#         2192
  C:134DH         LINE#         2193
  C:134FH         LINE#         2194
  C:1350H         LINE#         2195
  C:1352H         LINE#         2196
  C:1354H         LINE#         2197
  C:1356H         LINE#         2198
  C:1358H         LINE#         2199
  C:135AH         LINE#         2200
  C:135BH         LINE#         2202
  C:135EH         LINE#         2203
  C:1361H         LINE#         2204
  C:1363H         LINE#         2206
  C:1366H         LINE#         2207
  C:1368H         LINE#         2208
  C:136AH         LINE#         2209
  C:136DH         LINE#         2211
  C:136FH         LINE#         2212
  C:1371H         LINE#         2228
  C:1373H         LINE#         2229
  C:1375H         LINE#         2230
  C:1378H         LINE#         2231
  C:137AH         LINE#         2232
  C:137BH         LINE#         2233
  C:137DH         LINE#         2234
  C:1380H         LINE#         2235
  C:1383H         LINE#         2236
  C:1385H         LINE#         2237
  C:1386H         LINE#         2238
  C:1388H         LINE#         2239
  C:138BH         LINE#         2241
  C:138DH         LINE#         2242
  C:138EH         LINE#         2243
  C:1390H         LINE#         2244
  C:1393H         LINE#         2250
  C:1395H         LINE#         2251
  C:1397H         LINE#         2252
  C:1399H         LINE#         2253
  C:139BH         LINE#         2254
  C:139EH         LINE#         2256
  C:13A0H         LINE#         2257
  C:13A2H         LINE#         2258
  C:13A3H         LINE#         2259
  C:13A5H         LINE#         2260
  C:13A8H         LINE#         2263
  C:13A9H         LINE#         2264
  C:13ABH         LINE#         2265
  C:13ADH         LINE#         2266
  C:13AFH         LINE#         2267
  C:13B0H         LINE#         2268
  C:13B2H         LINE#         2269
  C:13B5H         LINE#         2270
  C:13B7H         LINE#         2271
  C:13B9H         LINE#         2273
  C:13BCH         LINE#         2274
  C:13BEH         LINE#         2275
  C:13C0H         LINE#         2278
  C:13C2H         LINE#         2279
  C:13C4H         LINE#         2281
  C:13C7H         LINE#         2283
  C:13CAH         LINE#         2284
  C:13CDH         LINE#         2285
  C:13CFH         LINE#         2286
BL51 BANKED LINKER/LOCATER V4.16a           01/09/2008  13:19:07  PAGE 45


  C:13D1H         LINE#         2287
  C:13D3H         LINE#         2289
  C:13D6H         LINE#         2290
  C:13D9H         LINE#         2291
  C:13DBH         LINE#         2292
  C:13DEH         LINE#         2293
  C:13E0H         LINE#         2294
  C:13E3H         LINE#         2296
  C:13E5H         LINE#         2298
  C:13E6H         LINE#         2299
  C:13E9H         LINE#         2301
  C:13EBH         LINE#         2304
  C:13EDH         LINE#         2305
  C:13EFH         LINE#         2306
  C:13F0H         LINE#         2307
  C:13F2H         LINE#         2308
  C:13F5H         LINE#         2310
  C:13F8H         LINE#         2311
  C:13FAH         LINE#         2312
  C:13FCH         LINE#         2313
  C:13FEH         LINE#         2314
  C:1400H         LINE#         2315
  C:1402H         LINE#         2316
  C:1404H         LINE#         2317
  C:1406H         LINE#         2318
  C:1408H         LINE#         2319
  C:140BH         LINE#         2321
  C:140EH         LINE#         2322
  C:1411H         LINE#         2323
  C:1414H         LINE#         2324
  C:1416H         LINE#         2325
  C:1419H         LINE#         2326
  C:141CH         LINE#         2327
  C:141FH         LINE#         2328
  C:1421H         LINE#         2329
  C:1424H         LINE#         2330
  C:1427H         LINE#         2331
  C:142AH         LINE#         2333
  C:142DH         LINE#         2334
  C:1430H         LINE#         2335
  C:1433H         LINE#         2336
  C:1435H         LINE#         2337
  C:1438H         LINE#         2338
  C:143BH         LINE#         2340
  C:143EH         LINE#         2342
  C:1441H         LINE#         2343
  C:1444H         LINE#         2344
  C:1447H         LINE#         2345
  C:1449H         LINE#         2346
  C:144CH         LINE#         2347
  C:144FH         LINE#         2348
  C:1452H         LINE#         2352
  C:1455H         LINE#         2353
  C:1457H         LINE#         2354
  C:145AH         LINE#         2355
  C:145CH         LINE#         2356
  C:145FH         LINE#         2357
  C:1461H         LINE#         2358
  C:1464H         LINE#         2359
  C:1466H         LINE#         2360
  C:1467H         LINE#         2367
  C:1469H         LINE#         2368
  C:146BH         LINE#         2369
  C:146CH         LINE#         2370
  C:146DH         LINE#         2371
BL51 BANKED LINKER/LOCATER V4.16a           01/09/2008  13:19:07  PAGE 46


  C:146EH         LINE#         2372
  C:1470H         LINE#         2373
  C:1473H         LINE#         2375
  C:1475H         LINE#         2376
  C:1478H         LINE#         2377
  C:147AH         LINE#         2385
  C:147CH         LINE#         2386
  C:147EH         LINE#         2387
  C:147FH         LINE#         2388
  C:1480H         LINE#         2389
  C:1481H         LINE#         2390
  C:1483H         LINE#         2391
  C:1485H         LINE#         2392
  C:1486H         LINE#         2393
  C:1488H         LINE#         2394
  C:148BH         LINE#         2395
  C:148CH         LINE#         2396
  C:148FH         LINE#         2398
  C:1492H         LINE#         2399
  C:1494H         LINE#         2400
  C:1497H         LINE#         2402
  C:1499H         LINE#         2403
  C:149CH         LINE#         2404
  C:149FH         LINE#         2405
  C:14A2H         LINE#         2407
  C:14A5H         LINE#         2408
  C:14A8H         LINE#         2409
  C:14ABH         LINE#         2410
  C:14ADH         LINE#         2411
  C:14B0H         LINE#         2413
  C:14B3H         LINE#         2415
  C:14B5H         LINE#         2416
  C:14B7H         LINE#         2417
  C:14B8H         LINE#         2418
  C:14BAH         LINE#         2419
  C:14BDH         LINE#         2426
  C:14C0H         LINE#         2427
  C:14C3H         LINE#         2428
  C:14C6H         LINE#         2430
  C:14C8H         LINE#         2431
  C:14CAH         LINE#         2432
  C:14CBH         LINE#         2433
  C:14CCH         LINE#         2434
  C:14CEH         LINE#         2436
  C:14D1H         LINE#         2437
  C:14D4H         LINE#         2438
  C:14D6H         LINE#         2439
  C:14D9H         LINE#         2440
  C:14DBH         LINE#         2441
  C:14DEH         LINE#         2442
  C:14E1H         LINE#         2443
  C:14E2H         LINE#         2444
  C:14E4H         LINE#         2446
  C:14E6H         LINE#         2447
  C:14E7H         LINE#         2448
  C:14E8H         LINE#         2449
  C:14EAH         LINE#         2450
  C:14EDH         LINE#         2451
  C:14F0H         LINE#         2452
  C:14F3H         LINE#         2453
  C:14F5H         LINE#         2454
  C:14F8H         LINE#         2455
  C:14FBH         LINE#         2456
  C:14FCH         LINE#         2457
  C:14FEH         LINE#         2458
BL51 BANKED LINKER/LOCATER V4.16a           01/09/2008  13:19:07  PAGE 47


  C:1501H         LINE#         2461
  C:1504H         LINE#         2462
  C:1507H         LINE#         2464
  C:150AH         LINE#         2465
  C:150DH         LINE#         2466
  C:1510H         LINE#         2467
  C:1513H         LINE#         2468
  C:1516H         LINE#         2469
  C:1518H         LINE#         2470
  C:151BH         LINE#         2471
  C:151EH         LINE#         2472
  C:1521H         LINE#         2473
  C:1524H         LINE#         2474
  C:1527H         LINE#         2475
  C:1529H         LINE#         2476
  C:152CH         LINE#         2482
  C:152EH         LINE#         2483
  C:152FH         LINE#         2484
  C:1530H         LINE#         2485
  C:1532H         LINE#         2486
  C:1535H         LINE#         2487
  C:1538H         LINE#         2488
  C:153BH         LINE#         2489
  C:153EH         LINE#         2490
  C:1541H         LINE#         2491
  C:1544H         LINE#         2492
  C:1547H         LINE#         2494
  C:154AH         LINE#         2497
  C:154DH         LINE#         2498
  C:154FH         LINE#         2499
  C:1552H         LINE#         2501
  C:1555H         LINE#         2502
  C:1557H         LINE#         2503
  C:155AH         LINE#         2504
  C:155CH         LINE#         2505
  C:155FH         LINE#         2506
  C:1562H         LINE#         2507
  C:1565H         LINE#         2509
  C:1568H         LINE#         2510
  C:156BH         LINE#         2511
  C:156DH         LINE#         2512
  C:1570H         LINE#         2513
  C:1572H         LINE#         2514
  C:1575H         LINE#         2515
  C:1578H         LINE#         2516
  C:157BH         LINE#         2517
  C:157EH         LINE#         2518
  C:1581H         LINE#         2519
  C:1583H         LINE#         2520
  C:1586H         LINE#         2521
  C:1588H         LINE#         2522
  C:158BH         LINE#         2523
  C:158EH         LINE#         2524
  C:1591H         LINE#         2526
  C:1594H         LINE#         2527
  C:1597H         LINE#         2528
  C:1599H         LINE#         2529
  C:159CH         LINE#         2530
  C:159EH         LINE#         2531
  C:15A1H         LINE#         2532
  C:15A4H         LINE#         2533
  C:15A7H         LINE#         2536
  C:15AAH         LINE#         2537
  C:15ADH         LINE#         2541
  C:15AFH         LINE#         2542
BL51 BANKED LINKER/LOCATER V4.16a           01/09/2008  13:19:07  PAGE 48


  C:15B2H         LINE#         2543
  C:15B4H         LINE#         2544
  C:15B7H         LINE#         2545
  C:15BAH         LINE#         2547
  C:15BDH         LINE#         2548
  C:15C0H         LINE#         2550
  C:15C3H         LINE#         2551
  C:15C6H         LINE#         2552
  C:15C8H         LINE#         2554
  C:15CAH         LINE#         2570
  C:15CDH         LINE#         2571
  C:15D0H         LINE#         2572
  C:15D3H         LINE#         2580
  C:15D5H         LINE#         2581
  C:15D7H         LINE#         2582
  C:15D8H         LINE#         2583
  C:15D9H         LINE#         2584
  C:15DAH         LINE#         2585
  C:15DCH         LINE#         2586
  C:15DEH         LINE#         2588
  C:15E0H         LINE#         2589
  C:15E2H         LINE#         2590
  C:15E3H         LINE#         2591
  C:15E4H         LINE#         2592
  C:15E6H         LINE#         2593
  C:15E8H         LINE#         2594
  C:15E9H         LINE#         2595
  C:15ECH         LINE#         2596
  C:15EEH         LINE#         2597
  C:15EFH         LINE#         2598
  C:15F2H         LINE#         2601
  C:15F5H         LINE#         2602
  C:15F7H         LINE#         2603
  C:15FAH         LINE#         2604
  C:15FCH         LINE#         2606
  C:15FFH         LINE#         2607
  C:1602H         LINE#         2608
  C:1605H         LINE#         2611
  C:1606H         LINE#         2612
  C:1608H         LINE#         2613
  C:1609H         LINE#         2614
  C:160BH         LINE#         2615
  C:160EH         LINE#         2616
  C:1611H         LINE#         2617
  C:1614H         LINE#         2618
  C:1616H         LINE#         2619
  C:1619H         LINE#         2620
  C:161BH         LINE#         2627
  C:161DH         LINE#         2628
  C:161FH         LINE#         2629
  C:1620H         LINE#         2630
  C:1621H         LINE#         2631
  C:1622H         LINE#         2632
  C:1624H         LINE#         2634
  C:1626H         LINE#         2635
  C:1628H         LINE#         2636
  C:1629H         LINE#         2637
  C:162AH         LINE#         2638
  C:162CH         LINE#         2639
  C:162EH         LINE#         2640
  C:162FH         LINE#         2641
  C:1632H         LINE#         2646
  C:1634H         LINE#         2647
  C:1636H         LINE#         2648
  C:1637H         LINE#         2649
BL51 BANKED LINKER/LOCATER V4.16a           01/09/2008  13:19:07  PAGE 49


  C:1638H         LINE#         2651
  C:1639H         LINE#         2652
  C:163BH         LINE#         2654
  C:163EH         LINE#         2655
  C:1641H         LINE#         2656
  C:1644H         LINE#         2657
  C:1647H         LINE#         2658
  C:164AH         LINE#         2660
  C:164DH         LINE#         2667
  C:164FH         LINE#         2668
  C:1651H         LINE#         2669
  C:1653H         LINE#         2670
  C:1655H         LINE#         2671
  C:1657H         LINE#         2672
  C:1659H         LINE#         2673
  C:165BH         LINE#         2674
  C:165DH         LINE#         2675
  C:165FH         LINE#         2676
  C:1661H         LINE#         2677
  C:1663H         LINE#         2678
  C:1665H         LINE#         2687
  C:1668H         LINE#         2688
  C:166BH         LINE#         2689
  C:166DH         LINE#         2690
  C:166FH         LINE#         2691
  C:1671H         LINE#         2692
  C:1673H         LINE#         2693
  C:1674H         LINE#         2694
  C:1675H         LINE#         2696
  C:1677H         LINE#         2697
  C:1679H         LINE#         2698
  C:167BH         LINE#         2700
  C:167DH         LINE#         2701
  C:167FH         LINE#         2702
  C:1681H         LINE#         2704
  C:1684H         LINE#         2705
  C:1687H         LINE#         2707
  C:1689H         LINE#         2708
  C:168BH         LINE#         2710
  C:168CH         LINE#         2713
  C:168FH         LINE#         2714
  C:1692H         LINE#         2715
  C:1695H         LINE#         2716
  C:1698H         LINE#         2717
  C:169BH         LINE#         2719
  C:169EH         LINE#         2720
  C:16A1H         LINE#         2721
  C:16A2H         LINE#         2723
  C:16A5H         LINE#         2733
  C:16A8H         LINE#         2734
  C:16ABH         LINE#         2736
  C:16ADH         LINE#         2737
  C:16AFH         LINE#         2738
  C:16B1H         LINE#         2739
  C:16B3H         LINE#         2740
  C:16B5H         LINE#         2741
  C:16B7H         LINE#         2742
  C:16B9H         LINE#         2743
  C:16BBH         LINE#         2744
  C:16BDH         LINE#         2745
  C:16BFH         LINE#         2746
  C:16C1H         LINE#         2747
  C:16C3H         LINE#         2750
  C:16C6H         LINE#         2753
  C:16C8H         LINE#         2754
BL51 BANKED LINKER/LOCATER V4.16a           01/09/2008  13:19:07  PAGE 50


  C:16CAH         LINE#         2755
  C:16CBH         LINE#         2756
  C:16CCH         LINE#         2757
  C:16CEH         LINE#         2760
  C:16D0H         LINE#         2761
  C:16D3H         LINE#         2762
  C:16D5H         LINE#         2763
  C:16D7H         LINE#         2764
  C:16D9H         LINE#         2765
  C:16DBH         LINE#         2766
  C:16DEH         LINE#         2767
  C:16E1H         LINE#         2768
  C:16E4H         LINE#         2769
  C:16E6H         LINE#         2770
  C:16E9H         LINE#         2771
  C:16ECH         LINE#         2772
  C:16EEH         LINE#         2773
  C:16F1H         LINE#         2774
  C:16F4H         LINE#         2775
  C:16F6H         LINE#         2776
  C:16F9H         LINE#         2777
  C:16FCH         LINE#         2778
  C:16FDH         LINE#         2779
  C:16FEH         LINE#         2780
  C:16FFH         LINE#         2781
  C:1700H         LINE#         2782
  C:1702H         LINE#         2783
  C:1705H         LINE#         2784
  C:1708H         LINE#         2785
  C:170AH         LINE#         2786
  C:170DH         LINE#         2787
  C:1710H         LINE#         2788
  C:1712H         LINE#         2789
  C:1715H         LINE#         2803
  C:1717H         LINE#         2804
  C:1719H         LINE#         2805
  C:171CH         LINE#         2806
  C:171EH         LINE#         2807
  C:171FH         LINE#         2808
  C:1721H         LINE#         2809
  C:1724H         LINE#         2812
  C:1727H         LINE#         2813
  C:1729H         LINE#         2814
  C:172AH         LINE#         2815
  C:172CH         LINE#         2816
  C:172FH         LINE#         2817
  C:1731H         LINE#         2818
  C:1732H         LINE#         2819
  C:1734H         LINE#         2820
  C:1737H         LINE#         2823
  C:173AH         LINE#         2824
  C:173DH         LINE#         2826
  C:1740H         LINE#         2827
  C:1742H         LINE#         2828
  C:1744H         LINE#         2829
  C:1746H         LINE#         2830
  C:1749H         LINE#         2831
  C:174CH         LINE#         2832
  C:174FH         LINE#         2833
  C:1752H         LINE#         2834
  C:1754H         LINE#         2835
  C:1756H         LINE#         2836
  C:1759H         LINE#         2838
  C:175BH         LINE#         2839
  C:175DH         LINE#         2840
BL51 BANKED LINKER/LOCATER V4.16a           01/09/2008  13:19:07  PAGE 51


  C:175FH         LINE#         2841
  C:1762H         LINE#         2842
  C:1765H         LINE#         2844
  C:1767H         LINE#         2845
  C:176AH         LINE#         2846
  C:176CH         LINE#         2847
  C:176EH         LINE#         2848
  C:1771H         LINE#         2850
  C:1774H         LINE#         2852
  C:1777H         LINE#         2853
  C:177AH         LINE#         2854
  C:177CH         LINE#         2855
  C:177EH         LINE#         2856
  C:1780H         LINE#         2857
  C:1782H         LINE#         2859
  C:1785H         LINE#         2861
  C:1787H         LINE#         2862
  C:1788H         LINE#         2863
  C:178BH         LINE#         2864
  C:178CH         LINE#         2865
  C:178EH         LINE#         2868
  C:1791H         LINE#         2869
  C:1793H         LINE#         2870
  C:1796H         LINE#         2871
  C:1798H         LINE#         2872
  C:179BH         LINE#         2873
  C:179DH         LINE#         2874
  C:17A0H         LINE#         2875
  C:17A3H         LINE#         2877
  C:17A6H         LINE#         2878
  C:17A8H         LINE#         2879
  C:17AAH         LINE#         2880
  C:17ADH         LINE#         2881
  C:17AFH         LINE#         2882
  C:17B2H         LINE#         2883
  C:17B5H         LINE#         2885
  C:17B7H         LINE#         2886
  C:17BAH         LINE#         2887
  C:17BDH         LINE#         2888
  C:17BFH         LINE#         2889
  C:17C2H         LINE#         2890
  C:17C5H         LINE#         2892
  C:17C8H         LINE#         2893
  C:17CBH         LINE#         2894
  C:17CEH         LINE#         2895
  C:17D0H         LINE#         2896
  C:17D3H         LINE#         2897
  C:17D6H         LINE#         2898
  C:17D9H         LINE#         2899
  C:17DAH         LINE#         2901
  C:17DDH         LINE#         2903
  C:17E0H         LINE#         2905
  C:17E3H         LINE#         2907
  C:17E6H         LINE#         2908
  C:17E9H         LINE#         2910
  C:17ECH         LINE#         2920
  C:17EEH         LINE#         2921
  C:17F1H         LINE#         2922
  C:17F4H         LINE#         2923
  C:17F7H         LINE#         2924
  C:17FAH         LINE#         2925
  C:17FCH         LINE#         2926
  C:17FFH         LINE#         2927
  C:1802H         LINE#         2928
  C:1805H         LINE#         2929
BL51 BANKED LINKER/LOCATER V4.16a           01/09/2008  13:19:07  PAGE 52


  C:1808H         LINE#         2930
  C:180AH         LINE#         2931
  C:180DH         LINE#         2932
  C:180FH         LINE#         2933
  C:1812H         LINE#         2934
  C:1814H         LINE#         2935
  C:1817H         LINE#         2937
  C:1819H         LINE#         2939
  C:181BH         LINE#         2941
  C:181DH         LINE#         2942
  C:181FH         LINE#         2943
  C:1821H         LINE#         2944
  C:1824H         LINE#         2945
  C:1827H         LINE#         2947
  C:182AH         LINE#         2948
  C:182DH         LINE#         2949
  C:1830H         LINE#         2950
  C:1832H         LINE#         2951
  C:1834H         LINE#         2952
  C:1837H         LINE#         2953
  C:183AH         LINE#         2954
  C:183DH         LINE#         2957
  C:183FH         LINE#         2959
  C:1842H         LINE#         2960
  C:1845H         LINE#         2961
  C:1848H         LINE#         2962
  C:184AH         LINE#         2963
  C:184CH         LINE#         2965
  C:184FH         LINE#         2966
  C:1852H         LINE#         2967
  C:1855H         LINE#         2968
  C:1858H         LINE#         2969
  C:185AH         LINE#         2970
  C:185CH         LINE#         2972
  C:185EH         LINE#         2973
  C:1860H         LINE#         2974
  C:1862H         LINE#         2975
  C:1864H         LINE#         2976
  C:1867H         LINE#         2980
  C:186AH         LINE#         2981
  C:186DH         LINE#         2982
  C:1870H         LINE#         2983
  C:1872H         LINE#         2984
  C:1874H         LINE#         2986
  C:1876H         LINE#         2987
  C:1877H         LINE#         2989
  C:187AH         LINE#         2990
  C:187CH         LINE#         2991
  C:187EH         LINE#         2992
  C:1880H         LINE#         2993
  C:1883H         LINE#         2994
  C:1886H         LINE#         2995
  C:1889H         LINE#         2996
  C:188CH         LINE#         2998
  C:188FH         LINE#         2999
  C:1892H         LINE#         3003
  C:1895H         LINE#         3005
  C:1898H         LINE#         3007
  C:189BH         LINE#         3012
  C:189DH         LINE#         3013
  C:189EH         LINE#         3014
  C:18A1H         LINE#         3015
  C:18A2H         LINE#         3016
  C:18A4H         LINE#         3017
  C:18A7H         LINE#         3019
BL51 BANKED LINKER/LOCATER V4.16a           01/09/2008  13:19:07  PAGE 53


  C:18B0H         LINE#         3024
  C:18B3H         LINE#         3026
  C:18B6H         LINE#         3027
  C:18B9H         LINE#         3028
  C:18BCH         LINE#         3029
  C:18BEH         LINE#         3030
  C:18BFH         LINE#         3031
  C:18C1H         LINE#         3032
  C:18C3H         LINE#         3033
  C:18C4H         LINE#         3034
  C:18C6H         LINE#         3037
  C:18C8H         LINE#         3038
  C:18CBH         LINE#         3039
  C:18CDH         LINE#         3040
  C:18CEH         LINE#         3041
  C:18CFH         LINE#         3042
  C:18D0H         LINE#         3043
  C:18D3H         LINE#         3045
  C:18D6H         LINE#         3046
  C:18D9H         LINE#         3047
  C:18DCH         LINE#         3048
  C:18DEH         LINE#         3049
  C:18E0H         LINE#         3051
  C:18E3H         LINE#         3052
  C:18E4H         LINE#         3053
  C:18E6H         LINE#         3054
  C:18E8H         LINE#         3055
  C:18EAH         LINE#         3056
  C:18EBH         LINE#         3057
  C:18EDH         LINE#         3058
  C:18EFH         LINE#         3059
  C:18F2H         LINE#         3061
  C:18F5H         LINE#         3062
  C:18F7H         LINE#         3063
  C:18FAH         LINE#         3065
  C:18FCH         LINE#         3066
  C:18FDH         LINE#         3067
  C:18FFH         LINE#         3068
  C:1900H         LINE#         3069
  C:1903H         LINE#         3070
  C:1905H         LINE#         3071
  C:1908H         LINE#         3072
  C:190AH         LINE#         3073
  C:190BH         LINE#         3074
  C:190DH         LINE#         3075
  C:190EH         LINE#         3076
  C:1910H         LINE#         3079
  C:1913H         LINE#         3080
  C:1915H         LINE#         3081
  C:1918H         LINE#         3082
  C:191BH         LINE#         3083
  C:191DH         LINE#         3084
  C:1920H         LINE#         3085
  C:1923H         LINE#         3086
  C:1926H         LINE#         3087
  C:1928H         LINE#         3088
  C:192AH         LINE#         3089
  C:192CH         LINE#         3090
  C:192EH         LINE#         3091
  C:192FH         LINE#         3092
  C:1931H         LINE#         3093
  C:1934H         LINE#         3095
  C:1937H         LINE#         3097
  C:1939H         LINE#         3098
  C:193BH         LINE#         3099
BL51 BANKED LINKER/LOCATER V4.16a           01/09/2008  13:19:07  PAGE 54


  C:193DH         LINE#         3100
  C:193FH         LINE#         3101
  C:1941H         LINE#         3102
  C:1943H         LINE#         3103
  C:1945H         LINE#         3104
  C:1947H         LINE#         3105
  C:1949H         LINE#         3106
  C:194BH         LINE#         3107
  C:194DH         LINE#         3108
  C:1950H         LINE#         3112
  C:1953H         LINE#         3117
  C:1956H         LINE#         3119
  C:1959H         LINE#         3120
  C:195CH         LINE#         3122
  C:195FH         LINE#         3123
  C:1962H         LINE#         3124
  C:1964H         LINE#         3125
  C:1967H         LINE#         3126
  C:196AH         LINE#         3127
  C:196CH         LINE#         3128
  C:196FH         LINE#         3129
  C:1972H         LINE#         3130
  C:1974H         LINE#         3131
  C:1977H         LINE#         3132
  C:197AH         LINE#         3133
  C:197CH         LINE#         3135
  C:197FH         LINE#         3138
  C:1982H         LINE#         3139
  C:1984H         LINE#         3140
  C:1987H         LINE#         3141
  C:198AH         LINE#         3142
  C:198CH         LINE#         3144
  C:198FH         LINE#         3145
  C:1991H         LINE#         3146
  C:1994H         LINE#         3147
  C:1997H         LINE#         3148
  C:1999H         LINE#         3150
  C:199BH         LINE#         3151
  C:199EH         LINE#         3152
  C:19A1H         LINE#         3153
  C:19A3H         LINE#         3155
  C:19A6H         LINE#         3156
  C:19A8H         LINE#         3157
  C:19ABH         LINE#         3158
  C:19AEH         LINE#         3159
  C:19B1H         LINE#         3160
  C:19B4H         LINE#         3161
  C:19B6H         LINE#         3162
  C:19B9H         LINE#         3163
  C:19BBH         LINE#         3164
  C:19BEH         LINE#         3165
  C:19C0H         LINE#         3167
  C:19C3H         LINE#         3168
  C:19C6H         LINE#         3169
  C:19C9H         LINE#         3170
  C:19CCH         LINE#         3171
  C:19CEH         LINE#         3172
  C:19D1H         LINE#         3173
  C:19D4H         LINE#         3174
  C:19D7H         LINE#         3175
  C:19DAH         LINE#         3176
  C:19DDH         LINE#         3177
  C:19DFH         LINE#         3179
  C:19E2H         LINE#         3180
  C:19E5H         LINE#         3181
BL51 BANKED LINKER/LOCATER V4.16a           01/09/2008  13:19:07  PAGE 55


  C:19E8H         LINE#         3182
  C:19EBH         LINE#         3184
  C:19EEH         LINE#         3185
  C:19F1H         LINE#         3186
  C:19F4H         LINE#         3187
  C:19F7H         LINE#         3188
  C:19FAH         LINE#         3190
  C:19FBH         LINE#         3191
  C:19FDH         LINE#         3192
  C:19FFH         LINE#         3193
  C:1A02H         LINE#         3194
  C:1A04H         LINE#         3196
  C:1A06H         LINE#         3200
  C:1A09H         LINE#         3202
  C:1A0BH         LINE#         3203
  C:1A0DH         LINE#         3204
  C:1A0EH         LINE#         3205
  C:1A10H         LINE#         3208
  C:1A11H         LINE#         3209
  C:1A12H         LINE#         3210
  C:1A13H         LINE#         3212
  C:1A15H         LINE#         3213
  C:1A18H         LINE#         3214
  C:1A1AH         LINE#         3215
  C:1A1BH         LINE#         3216
  C:1A1EH         LINE#         3218
  C:1A20H         LINE#         3219
  C:1A22H         LINE#         3223
  C:1A25H         LINE#         3230
  C:1A28H         LINE#         3233
  C:1A2AH         LINE#         3234
  C:1A2CH         LINE#         3235
  C:1A2FH         LINE#         3236
  C:1A32H         LINE#         3238
  C:1A35H         LINE#         3239
  C:1A38H         LINE#         3242
  C:1A3BH         LINE#         3243
  C:1A3EH         LINE#         3244
  C:1A41H         LINE#         3247
  C:1A44H         LINE#         3248
  C:1A46H         LINE#         3249
  C:1A48H         LINE#         3250
  C:1A49H         LINE#         3251
  C:1A4BH         LINE#         3254
  C:1A4CH         LINE#         3255
  C:1A4DH         LINE#         3256
  C:1A4EH         LINE#         3258
  C:1A50H         LINE#         3259
  C:1A53H         LINE#         3260
  C:1A55H         LINE#         3261
  C:1A56H         LINE#         3262
  C:1A59H         LINE#         3263
  C:1A5CH         LINE#         3269
  C:1A5FH         LINE#         3270
  C:1A61H         LINE#         3271
  C:1A63H         LINE#         3272
  C:1A64H         LINE#         3273
  C:1A66H         LINE#         3276
  C:1A67H         LINE#         3277
  C:1A68H         LINE#         3278
  C:1A69H         LINE#         3280
  C:1A6BH         LINE#         3281
  C:1A6EH         LINE#         3282
  C:1A70H         LINE#         3283
  C:1A71H         LINE#         3284
BL51 BANKED LINKER/LOCATER V4.16a           01/09/2008  13:19:07  PAGE 56


  C:1A74H         LINE#         3285
  C:1A77H         LINE#         3288
  C:1A7AH         LINE#         3289
  C:1A7CH         LINE#         3290
  C:1A7EH         LINE#         3291
  C:1A7FH         LINE#         3292
  C:1A81H         LINE#         3295
  C:1A82H         LINE#         3296
  C:1A83H         LINE#         3297
  C:1A84H         LINE#         3299
  C:1A86H         LINE#         3300
  C:1A89H         LINE#         3301
  C:1A8BH         LINE#         3302
  C:1A8CH         LINE#         3303
  C:1A8FH         LINE#         3304
  C:1A92H         LINE#         3310
  C:1A95H         LINE#         3311
  C:1A97H         LINE#         3312
  C:1A99H         LINE#         3313
  C:1A9AH         LINE#         3314
  C:1A9CH         LINE#         3317
  C:1A9DH         LINE#         3318
  C:1A9EH         LINE#         3319
  C:1A9FH         LINE#         3321
  C:1AA1H         LINE#         3322
  C:1AA4H         LINE#         3323
  C:1AA6H         LINE#         3324
  C:1AA7H         LINE#         3325
  C:1AAAH         LINE#         3326
  C:1AADH         LINE#         3332
  C:1AAFH         LINE#         3333
  C:1AB2H         LINE#         3334
  C:1AB5H         LINE#         3335
  C:1AB7H         LINE#         3336
  C:1AB9H         LINE#         3337
  C:1ABAH         LINE#         3338
  C:1ABBH         LINE#         3339
  C:1ABDH         LINE#         3340
  C:1ABEH         LINE#         3342
  C:1AC0H         LINE#         3343
  C:1AC2H         LINE#         3344
  C:1AC4H         LINE#         3345
  C:1AC6H         LINE#         3346
  C:1AC9H         LINE#         3348
  C:1ACCH         LINE#         3349
  C:1ACFH         LINE#         3350
  C:1AD1H         LINE#         3351
  C:1AD3H         LINE#         3353
  C:1AD6H         LINE#         3354
  C:1AD9H         LINE#         3355
  C:1ADBH         LINE#         3356
  C:1ADDH         LINE#         3358
  C:1AE0H         LINE#         3359
  C:1AE2H         LINE#         3360
  C:1AE4H         LINE#         3362
  C:1AE6H         LINE#         3363
  C:1AE9H         LINE#         3364
  C:1AECH         LINE#         3365
  C:1AEEH         LINE#         3367
  C:1AF0H         LINE#         3368
  C:1AF2H         LINE#         3372
  C:1AF5H         LINE#         3374
  C:1AF8H         LINE#         3375
  C:1AFAH         LINE#         3376
  C:1AFDH         LINE#         3377
BL51 BANKED LINKER/LOCATER V4.16a           01/09/2008  13:19:07  PAGE 57


  C:1B00H         LINE#         3378
  C:1B02H         LINE#         3379
  C:1B05H         LINE#         3382
  C:1B07H         LINE#         3383
  C:1B0AH         LINE#         3385
  C:1B0DH         LINE#         3386
  C:1B10H         LINE#         3387
  C:1B12H         LINE#         3388
  C:1B15H         LINE#         3389
  C:1B17H         LINE#         3390
  C:1B1AH         LINE#         3391
  C:1B1DH         LINE#         3392
  C:1B20H         LINE#         3399
  C:1B22H         LINE#         3400
  C:1B24H         LINE#         3401
  C:1B25H         LINE#         3402
  C:1B26H         LINE#         3403
  C:1B27H         LINE#         3404
  C:1B29H         LINE#         3405
  C:1B2BH         LINE#         3407
  C:1B2DH         LINE#         3408
  C:1B2FH         LINE#         3409
  C:1B30H         LINE#         3410
  C:1B31H         LINE#         3411
  C:1B33H         LINE#         3412
  C:1B35H         LINE#         3413
  C:1B36H         LINE#         3415
  C:1B39H         LINE#         3416
  C:1B3BH         LINE#         3417
  C:1B3CH         LINE#         3418
  C:1B3FH         LINE#         3421
  C:1B42H         LINE#         3422
  C:1B44H         LINE#         3423
  C:1B47H         LINE#         3424
  C:1B4AH         LINE#         3425
  C:1B4CH         LINE#         3426
  C:1B4EH         LINE#         3427
  C:1B50H         LINE#         3428
  C:1B52H         LINE#         3429
  C:1B54H         LINE#         3432
  C:1B57H         LINE#         3433
  C:1B5AH         LINE#         3434
  C:1B5CH         LINE#         3435
  C:1B5FH         LINE#         3436
  C:1B62H         LINE#         3437
  C:1B65H         LINE#         3438
  C:1B68H         LINE#         3439
  C:1B6BH         LINE#         3441
  C:1B6DH         LINE#         3442
  C:1B6FH         LINE#         3454
  C:1B71H         LINE#         3455
  C:1B73H         LINE#         3456
  C:1B74H         LINE#         3457
  C:1B75H         LINE#         3458
  C:1B76H         LINE#         3459
  C:1B78H         LINE#         3461
  C:1B7AH         LINE#         3462
  C:1B7CH         LINE#         3463
  C:1B7DH         LINE#         3464
  C:1B7EH         LINE#         3465
  C:1B80H         LINE#         3466
  C:1B82H         LINE#         3467
  C:1B83H         LINE#         3469
  C:1B86H         LINE#         3470
  C:1B88H         LINE#         3471
BL51 BANKED LINKER/LOCATER V4.16a           01/09/2008  13:19:07  PAGE 58


  C:1B89H         LINE#         3472
  C:1B8CH         LINE#         3474
  C:1B8FH         LINE#         3475
  C:1B92H         LINE#         3476
  C:1B95H         LINE#         3477
  C:1B98H         LINE#         3478
  C:1B9BH         LINE#         3479
  C:1B9EH         LINE#         3481
  C:1BA0H         LINE#         3483
  C:1BA1H         LINE#         3484
  C:1BA3H         LINE#         3485
  C:1BA5H         LINE#         3486
  C:1BA8H         LINE#         3487
  C:1BAAH         LINE#         3489
  C:1BACH         LINE#         3490
  C:1BAFH         LINE#         3491
  C:1BB2H         LINE#         3492
  C:1BB4H         LINE#         3493
  C:1BB6H         LINE#         3494
  C:1BB7H         LINE#         3495
  C:1BB8H         LINE#         3496
  C:1BB9H         LINE#         3497
  C:1BBAH         LINE#         3498
  C:1BBBH         LINE#         3499
  C:1BBCH         LINE#         3500
  C:1BBDH         LINE#         3501
  C:1BBEH         LINE#         3502
  C:1BBFH         LINE#         3503
  C:1BC0H         LINE#         3504
  C:1BC1H         LINE#         3506
  C:1BC3H         LINE#         3507
  C:1BC5H         LINE#         3508
  C:1BC8H         LINE#         3510
  C:1BCAH         LINE#         3511
  C:1BCCH         LINE#         3512
  C:1BCEH         LINE#         3513
  C:1BCFH         LINE#         3514
  C:1BD1H         LINE#         3515
  C:1BD2H         LINE#         3516
  C:1BD3H         LINE#         3517
  C:1BD4H         LINE#         3518
  C:1BD6H         LINE#         3519
  C:1BD8H         LINE#         3520
  C:1BDAH         LINE#         3521
  C:1BDDH         LINE#         3522
  C:1BE0H         LINE#         3523
  C:1BE2H         LINE#         3524
  C:1BE5H         LINE#         3525
  C:1BE8H         LINE#         3526
  C:1BEBH         LINE#         3528
  C:1BEEH         LINE#         3529
  C:1BF1H         LINE#         3530
  C:1BF4H         LINE#         3531
  C:1BF7H         LINE#         3533
  C:1BFAH         LINE#         3534
  C:1BFBH         LINE#         3535
  C:1BFDH         LINE#         3536
  C:1BFEH         LINE#         3537
  C:1C00H         LINE#         3538
  C:1C03H         LINE#         3539
  C:1C06H         LINE#         3541
  C:1C09H         LINE#         3544
  C:1C0CH         LINE#         3545
  C:1C0EH         LINE#         3547
  C:1C11H         LINE#         3549
BL51 BANKED LINKER/LOCATER V4.16a           01/09/2008  13:19:07  PAGE 59


  C:1C14H         LINE#         3550
  C:1C17H         LINE#         3551
  C:1C1AH         LINE#         3558
  C:1C1CH         LINE#         3559
  C:1C1EH         LINE#         3560
  C:1C20H         LINE#         3561
  C:1C21H         LINE#         3562
  C:1C22H         LINE#         3563
  C:1C23H         LINE#         3564
  C:1C25H         LINE#         3566
  C:1C27H         LINE#         3567
  C:1C29H         LINE#         3568
  C:1C2AH         LINE#         3569
  C:1C2BH         LINE#         3570
  C:1C2DH         LINE#         3571
  C:1C2FH         LINE#         3572
  C:1C30H         LINE#         3573
  C:1C33H         LINE#         3574
  C:1C36H         LINE#         3575
  C:1C39H         LINE#         3580
  C:1C3CH         LINE#         3581
  C:1C3FH         LINE#         3582
  C:1C41H         LINE#         3584
  C:1C43H         LINE#         3585
  C:1C45H         LINE#         3586
  C:1C48H         LINE#         3587
  C:1C4BH         LINE#         3588
  C:1C4DH         LINE#         3589
  C:1C4FH         LINE#         3590
  C:1C52H         LINE#         3591
  C:1C54H         LINE#         3592
  C:1C56H         LINE#         3593
  C:1C57H         LINE#         3594
  C:1C58H         LINE#         3595
  C:1C59H         LINE#         3596
  C:1C5AH         LINE#         3597
  C:1C5BH         LINE#         3598
  C:1C5CH         LINE#         3600
  C:1C5EH         LINE#         3601
  C:1C60H         LINE#         3602
  C:1C61H         LINE#         3603
  C:1C63H         LINE#         3604
  C:1C66H         LINE#         3605
  C:1C69H         LINE#         3606
  C:1C6BH         LINE#         3607
  C:1C6DH         LINE#         3608
  C:1C6FH         LINE#         3609
  C:1C71H         LINE#         3610
  C:1C73H         LINE#         3611
  C:1C76H         LINE#         3612
  C:1C79H         LINE#         3613
  C:1C7CH         LINE#         3615
  C:1C7FH         LINE#         3616
  C:1C82H         LINE#         3617
  C:1C85H         LINE#         3618
  C:1C88H         LINE#         3619
  C:1C8AH         LINE#         3623
  C:1C8DH         LINE#         3624
  C:1C90H         LINE#         3625
  C:1C93H         LINE#         3626
  C:1C96H         LINE#         3627
  C:1C99H         LINE#         3629
  C:1C9BH         LINE#         3630
  C:1C9DH         LINE#         3631
  C:1C9FH         LINE#         3632
BL51 BANKED LINKER/LOCATER V4.16a           01/09/2008  13:19:07  PAGE 60


  C:1CA2H         LINE#         3633
  C:1CA5H         LINE#         3634
  C:1CA7H         LINE#         3635
  C:1CA9H         LINE#         3636
  C:1CACH         LINE#         3637
  C:1CAFH         LINE#         3638
  C:1CB2H         LINE#         3639
  C:1CB5H         LINE#         3641
  C:1CB8H         LINE#         3643
  C:1CBBH         LINE#         3644
  C:1CBEH         LINE#         3645
  C:1CC1H         LINE#         3646
  C:1CC4H         LINE#         3647
  C:1CC7H         LINE#         3648
  C:1CC9H         LINE#         3649
  C:1CCBH         LINE#         3650
  C:1CCDH         LINE#         3653
  C:1CCFH         LINE#         3654
  C:1CD1H         LINE#         3655
  C:1CD3H         LINE#         3656
  C:1CD5H         LINE#         3657
  C:1CD8H         LINE#         3658
  C:1CDBH         LINE#         3659
  C:1CDEH         LINE#         3660
  C:1CE1H         LINE#         3662
  C:1CE4H         LINE#         3664
  C:1CE7H         LINE#         3665
  C:1CEAH         LINE#         3666
  C:1CEDH         LINE#         3667
  C:1CF0H         LINE#         3668
  C:1CF3H         LINE#         3669
  C:1CF5H         LINE#         3670
  C:1CF7H         LINE#         3671
  C:1CF8H         LINE#         3672
  C:1CF9H         LINE#         3673
  C:1CFBH         LINE#         3675
  C:1CFEH         LINE#         3676
  C:1D01H         LINE#         3677
  C:1D03H         LINE#         3678
  C:1D06H         LINE#         3679
  C:1D08H         LINE#         3680
  C:1D0BH         LINE#         3681
  C:1D0EH         LINE#         3682
  C:1D11H         LINE#         3683
  C:1D13H         LINE#         3684
  C:1D15H         LINE#         3686
  C:1D17H         LINE#         3687
  C:1D19H         LINE#         3688
  C:1D1CH         LINE#         3692
  C:1D1FH         LINE#         3695
  C:1D22H         LINE#         3696
  C:1D24H         LINE#         3698
  C:1D25H         LINE#         3699
  C:1D27H         LINE#         3700
  C:1D29H         LINE#         3701
  C:1D2CH         LINE#         3702
  C:1D2EH         LINE#         3703
  C:1D30H         LINE#         3704
  C:1D33H         LINE#         3705
  C:1D36H         LINE#         3706
  C:1D39H         LINE#         3707
  C:1D3BH         LINE#         3708
  C:1D3DH         LINE#         3709
  C:1D40H         LINE#         3710
  C:1D43H         LINE#         3711
BL51 BANKED LINKER/LOCATER V4.16a           01/09/2008  13:19:07  PAGE 61


  C:1D46H         LINE#         3712
  C:1D49H         LINE#         3713
  C:1D4CH         LINE#         3715
  C:1D4FH         LINE#         3716
  C:1D52H         LINE#         3717
  C:1D55H         LINE#         3718
  C:1D58H         LINE#         3719
  C:1D5BH         LINE#         3720
  C:1D5EH         LINE#         3721
  C:1D61H         LINE#         3722
  C:1D63H         LINE#         3723
  C:1D65H         LINE#         3724
  C:1D67H         LINE#         3725
  C:1D69H         LINE#         3726
  C:1D6BH         LINE#         3727
  C:1D6EH         LINE#         3728
  C:1D71H         LINE#         3729
  C:1D73H         LINE#         3730
  C:1D75H         LINE#         3731
  C:1D78H         LINE#         3732
  C:1D7BH         LINE#         3733
  C:1D7CH         LINE#         3734
  C:1D7EH         LINE#         3735
  C:1D81H         LINE#         3736
  C:1D84H         LINE#         3737
  C:1D87H         LINE#         3738
  C:1D8AH         LINE#         3739
  C:1D8DH         LINE#         3740
  C:1D90H         LINE#         3741
  C:1D93H         LINE#         3742
  C:1D96H         LINE#         3743
  C:1D98H         LINE#         3744
  C:1D9AH         LINE#         3745
  C:1D9CH         LINE#         3746
  C:1D9EH         LINE#         3747
  C:1DA1H         LINE#         3748
  C:1DA3H         LINE#         3749
  C:1DA5H         LINE#         3750
  C:1DA7H         LINE#         3751
  C:1DA9H         LINE#         3752
  C:1DABH         LINE#         3753
  C:1DADH         LINE#         3754
  C:1DAEH         LINE#         3755
  C:1DB0H         LINE#         3756
  C:1DB1H         LINE#         3757
  C:1DB3H         LINE#         3758
  C:1DB4H         LINE#         3759
  C:1DB6H         LINE#         3760
  C:1DB7H         LINE#         3761
  C:1DB8H         LINE#         3764
  C:1DBBH         LINE#         3765
  C:1DBEH         LINE#         3766
  C:1DC1H         LINE#         3767
  C:1DC4H         LINE#         3769
  C:1DC7H         LINE#         3773
  C:1DC9H         LINE#         3774
  C:1DCCH         LINE#         3775
  C:1DCEH         LINE#         3776
  C:1DD0H         LINE#         3777
  C:1DD3H         LINE#         3779
  C:1DD5H         LINE#         3780
  C:1DD7H         LINE#         3781
  C:1DD9H         LINE#         3782
  C:1DDAH         LINE#         3783
  C:1DDCH         LINE#         3784
BL51 BANKED LINKER/LOCATER V4.16a           01/09/2008  13:19:07  PAGE 62


  C:1DDDH         LINE#         3785
  C:1DDEH         LINE#         3786
  C:1DDFH         LINE#         3787
  C:1DE1H         LINE#         3788
  C:1DE3H         LINE#         3789
  C:1DE5H         LINE#         3790
  C:1DE7H         LINE#         3791
  C:1DE9H         LINE#         3792
  C:1DECH         LINE#         3793
  C:1DEEH         LINE#         3794
  C:1DF0H         LINE#         3795
  C:1DF3H         LINE#         3796
  C:1DF5H         LINE#         3797
  C:1DF7H         LINE#         3798
  C:1DFAH         LINE#         3799
  C:1DFCH         LINE#         3800
  C:1DFEH         LINE#         3801
  C:1E01H         LINE#         3802
  C:1E03H         LINE#         3803
  C:1E05H         LINE#         3804
  C:1E07H         LINE#         3806
  C:1E09H         LINE#         3807
  C:1E0AH         LINE#         3808
  C:1E0DH         LINE#         3809
  C:1E0FH         LINE#         3810
  C:1E10H         LINE#         3811
  C:1E12H         LINE#         3812
  C:1E13H         LINE#         3813
  C:1E15H         LINE#         3814
  C:1E18H         LINE#         3816
  C:1E1AH         LINE#         3817
  C:1E1BH         LINE#         3818
  C:1E1DH         LINE#         3820
  C:1E1EH         LINE#         3821
  C:1E20H         LINE#         3822
  C:1E22H         LINE#         3823
  C:1E23H         LINE#         3824
  C:1E24H         LINE#         3825
  C:1E26H         LINE#         3830
  C:1E29H         LINE#         3831
  C:1E2CH         LINE#         3832
  C:1E2FH         LINE#         3833
  C:1E32H         LINE#         3836
  C:1E34H         LINE#         3837
  C:1E36H         LINE#         3838
  C:1E37H         LINE#         3839
  C:1E39H         LINE#         3840
  C:1E3CH         LINE#         3841
  C:1E3FH         LINE#         3842
  C:1E42H         LINE#         3843
  C:1E45H         LINE#         3844
  C:1E47H         LINE#         3845
  C:1E49H         LINE#         3846
  C:1E4BH         LINE#         3847
  C:1E4DH         LINE#         3848
  C:1E50H         LINE#         3850
  C:1E52H         LINE#         3851
  C:1E54H         LINE#         3852
  C:1E55H         LINE#         3853
  C:1E57H         LINE#         3855
  C:1E59H         LINE#         3856
  C:1E5AH         LINE#         3857
  C:1E5CH         LINE#         3858
  C:1E5EH         LINE#         3859
  C:1E60H         LINE#         3861
BL51 BANKED LINKER/LOCATER V4.16a           01/09/2008  13:19:07  PAGE 63


  C:1E62H         LINE#         3862
  C:1E64H         LINE#         3863
  C:1E67H         LINE#         3864
  C:1E69H         LINE#         3865
  C:1E6BH         LINE#         3866
  C:1E6DH         LINE#         3867
  C:1E6EH         LINE#         3868
  C:1E6FH         LINE#         3869
  C:1E71H         LINE#         3871
  C:1E74H         LINE#         3872
  C:1E77H         LINE#         3873
  C:1E7AH         LINE#         3874
  C:1E7CH         LINE#         3875
  C:1E7EH         LINE#         3876
  C:1E80H         LINE#         3877
  C:1E81H         LINE#         3878
  C:1E83H         LINE#         3879
  C:1E84H         LINE#         3880
  C:1E85H         LINE#         3881
  C:1E86H         LINE#         3882
  C:1E88H         LINE#         3883
  C:1E8BH         LINE#         3884
  C:1E8EH         LINE#         3885
  C:1E91H         LINE#         3886
  C:1E94H         LINE#         3887
  C:1E96H         LINE#         3888
  C:1E98H         LINE#         3889
  C:1E99H         LINE#         3890
  C:1E9BH         LINE#         3891
  C:1E9CH         LINE#         3892
  C:1E9DH         LINE#         3893
  C:1E9FH         LINE#         3894
  C:1EA0H         LINE#         3895
  C:1EA1H         LINE#         3896
  C:1EA2H         LINE#         3897
  C:1EA3H         LINE#         3898
  C:1EA5H         LINE#         3899
  C:1EA6H         LINE#         3900
  C:1EA7H         LINE#         3901
  C:1EA9H         LINE#         3902
  C:1EAAH         LINE#         3903
  C:1EADH         LINE#         3905
  C:1EB0H         LINE#         3906
  C:1EB2H         LINE#         3907
  C:1EB5H         LINE#         3908
  C:1EB8H         LINE#         3909
  C:1EBBH         LINE#         3910
  C:1EBEH         LINE#         3911
  C:1EC1H         LINE#         3913
  C:1EC4H         LINE#         3914
  C:1EC6H         LINE#         3915
  C:1EC9H         LINE#         3916
  C:1ECCH         LINE#         3917
  C:1ECFH         LINE#         3918
  C:1ED2H         LINE#         3919
  C:1ED5H         LINE#         3921
  C:1ED8H         LINE#         3922
  C:1EDAH         LINE#         3923
  C:1EDDH         LINE#         3924
  C:1EE0H         LINE#         3925
  C:1EE3H         LINE#         3926
  C:1EE6H         LINE#         3927
  C:1EE9H         LINE#         3929
  C:1EECH         LINE#         3930
  C:1EEEH         LINE#         3931
BL51 BANKED LINKER/LOCATER V4.16a           01/09/2008  13:19:07  PAGE 64


  C:1EF1H         LINE#         3932
  C:1EF4H         LINE#         3935
  C:1EF7H         LINE#         3936
  C:1EF9H         LINE#         3937
  C:1EFCH         LINE#         3938
  C:1EFFH         LINE#         3939
  C:1F02H         LINE#         3940
  C:1F05H         LINE#         3942
  C:1F06H         LINE#         3943
  C:1F09H         LINE#         3944
  C:1F0CH         LINE#         3946
  C:1F0FH         LINE#         3948
  C:1F12H         LINE#         3949
  C:1F15H         LINE#         3951
  C:1F18H         LINE#         3952
  C:1F1AH         LINE#         3954
  C:1F1CH         LINE#         3955
  C:1F1EH         LINE#         3956
  C:1F21H         LINE#         3957
  C:1F23H         LINE#         3958
  C:1F26H         LINE#         3959
  C:1F29H         LINE#         3960
  C:1F2CH         LINE#         3961
  C:1F2FH         LINE#         3962
  C:1F31H         LINE#         3964
  C:1F34H         LINE#         3965
  C:1F37H         LINE#         3966
  C:1F3AH         LINE#         3967
  C:1F3CH         LINE#         3968
  C:1F3FH         LINE#         3969
  C:1F42H         LINE#         3972
  C:1F45H         LINE#         3973
  C:1F47H         LINE#         3974
  C:1F49H         LINE#         3975
  C:1F4BH         LINE#         3976
  C:1F4CH         LINE#         3977
  C:1F4EH         LINE#         3978
  C:1F50H         LINE#         3979
  C:1F53H         LINE#         3981
  C:1F55H         LINE#         3982
  C:1F57H         LINE#         3983
  C:1F5AH         LINE#         3984
  C:1F5DH         LINE#         3985
  C:1F60H         LINE#         3986
  C:1F63H         LINE#         3987
  C:1F66H         LINE#         3988
  C:1F69H         LINE#         3989
  C:1F6BH         LINE#         3991
  C:1F6DH         LINE#         3992
  C:1F6FH         LINE#         3993
  C:1F72H         LINE#         3994
  C:1F74H         LINE#         3995
  C:1F76H         LINE#         3996
  C:1F79H         LINE#         3997
  C:1F7CH         LINE#         3999
  C:1F7FH         LINE#         4002
  C:1F81H         LINE#         4003
  C:1F83H         LINE#         4004
  C:1F84H         LINE#         4005
  C:1F85H         LINE#         4006
  C:1F87H         LINE#         4007
  C:1F8AH         LINE#         4008
  C:1F8DH         LINE#         4009
  C:1F90H         LINE#         4010
  C:1F92H         LINE#         4011
BL51 BANKED LINKER/LOCATER V4.16a           01/09/2008  13:19:07  PAGE 65


  C:1F95H         LINE#         4012
  C:1F98H         LINE#         4013
  C:1F9BH         LINE#         4015
  C:1F9CH         LINE#         4016
  C:1F9FH         LINE#         4017
  C:1FA2H         LINE#         4018
  C:1FA5H         LINE#         4020
  C:1FA8H         LINE#         4021
  C:1FABH         LINE#         4022
  C:1FAEH         LINE#         4024
  C:1FB1H         LINE#         4025
  C:1FB3H         LINE#         4026
  C:1FB5H         LINE#         4027
  C:1FB7H         LINE#         4028
  C:1FBAH         LINE#         4029
  C:1FBDH         LINE#         4031
  C:1FBFH         LINE#         4034
  C:1FC1H         LINE#         4035
  C:1FC4H         LINE#         4036
  C:1FC7H         LINE#         4037
  C:1FCAH         LINE#         4038
  C:1FCDH         LINE#         4039
  C:1FD0H         LINE#         4040
  C:1FD3H         LINE#         4045
  C:1FD5H         LINE#         4046
  C:1FD7H         LINE#         4047
  C:1FD9H         LINE#         4048
  C:1FDCH         LINE#         4053
  C:1FDEH         LINE#         4054
  C:1FE0H         LINE#         4055
  C:1FE3H         LINE#         4056
  C:1FE5H         LINE#         4057
  C:1FE6H         LINE#         4059
  C:1FE9H         LINE#         4060
  C:1FEBH         LINE#         4061
  C:1FEEH         LINE#         4063
  C:1FF0H         LINE#         4064
  C:1FF2H         LINE#         4065
  C:1FF5H         LINE#         4066
  C:1FF8H         LINE#         4068
  C:1FFBH         LINE#         4069
  C:1FFEH         LINE#         4070
  C:2000H         LINE#         4071
  C:2003H         LINE#         4072
  C:2005H         LINE#         4073
  C:2007H         LINE#         4074
  C:200AH         LINE#         4076
  C:200DH         LINE#         4077
  C:2010H         LINE#         4079
  C:2013H         LINE#         4080
  C:2016H         LINE#         4081
  C:2019H         LINE#         4082
  C:201BH         LINE#         4083
  C:201DH         LINE#         4084
  C:201EH         LINE#         4085
  C:201FH         LINE#         4086
  C:2020H         LINE#         4087
  C:2022H         LINE#         4089
  C:2024H         LINE#         4090
  C:2025H         LINE#         4091
  C:2027H         LINE#         4092
  C:2029H         LINE#         4093
  C:202CH         LINE#         4094
  C:202DH         LINE#         4095
  C:2030H         LINE#         4097
BL51 BANKED LINKER/LOCATER V4.16a           01/09/2008  13:19:07  PAGE 66


  C:2033H         LINE#         4098
  C:2036H         LINE#         4099
  C:2039H         LINE#         4100
  C:203CH         LINE#         4103
  C:203FH         LINE#         4104
  C:2042H         LINE#         4105
  C:2045H         LINE#         4106
  C:2048H         LINE#         4107
  C:204BH         LINE#         4111
  C:204DH         LINE#         4112
  C:204FH         LINE#         4113
  C:2052H         LINE#         4121
  C:2054H         LINE#         4122
  C:2056H         LINE#         4123
  C:2058H         LINE#         4124
  C:2059H         LINE#         4125
  C:205AH         LINE#         4126
  C:205CH         LINE#         4127
  C:205DH         LINE#         4128
  C:205EH         LINE#         4129
  C:205FH         LINE#         4130
  C:2061H         LINE#         4131
  C:2063H         LINE#         4132
  C:2065H         LINE#         4133
  C:2068H         LINE#         4134
  C:206AH         LINE#         4135
  C:206CH         LINE#         4136
  C:206FH         LINE#         4137
  C:2071H         LINE#         4138
  C:2074H         LINE#         4139
  C:2076H         LINE#         4140
  C:2079H         LINE#         4142
  C:207BH         LINE#         4143
  C:207DH         LINE#         4144
  C:2080H         LINE#         4145
  C:2083H         LINE#         4148
  C:2086H         LINE#         4149
  C:2088H         LINE#         4150
  C:208AH         LINE#         4151
  C:208CH         LINE#         4152
  C:208EH         LINE#         4153
  C:2091H         LINE#         4154
  C:2094H         LINE#         4155
  C:2097H         LINE#         4156
  C:209AH         LINE#         4157
  C:209DH         LINE#         4158
  C:209FH         LINE#         4159
  C:20A1H         LINE#         4160
  C:20A2H         LINE#         4161
  C:20A5H         LINE#         4162
  C:20A7H         LINE#         4163
  C:20A8H         LINE#         4164
  C:20AAH         LINE#         4165
  C:20ACH         LINE#         4166
  C:20AFH         LINE#         4168
  C:20B1H         LINE#         4169
  C:20B2H         LINE#         4170
  C:20B4H         LINE#         4173
  C:20B6H         LINE#         4174
  C:20B8H         LINE#         4175
  C:20BBH         LINE#         4176
  C:20BEH         LINE#         4178
  C:20C1H         LINE#         4180
  C:20C4H         LINE#         4181
  C:20C7H         LINE#         4182
BL51 BANKED LINKER/LOCATER V4.16a           01/09/2008  13:19:07  PAGE 67


  C:20CAH         LINE#         4183
  C:20CDH         LINE#         4184
  C:20CFH         LINE#         4185
  C:20D1H         LINE#         4186
  C:20D3H         LINE#         4187
  C:20D5H         LINE#         4188
  C:20D8H         LINE#         4190
  C:20DBH         LINE#         4191
  C:20DEH         LINE#         4192
  C:20E1H         LINE#         4193
  C:20E4H         LINE#         4194
  C:20E6H         LINE#         4195
  C:20E9H         LINE#         4196
  C:20ECH         LINE#         4197
  C:20EFH         LINE#         4198
  C:20F2H         LINE#         4199
  C:20F4H         LINE#         4200
  C:20F7H         LINE#         4209
  C:20F9H         LINE#         4210
  C:20FBH         LINE#         4211
  C:20FCH         LINE#         4212
  C:20FDH         LINE#         4213
  C:20FEH         LINE#         4214
  C:2100H         LINE#         4216
  C:2102H         LINE#         4217
  C:2103H         LINE#         4218
  C:2105H         LINE#         4219
  C:2107H         LINE#         4220
  C:210AH         LINE#         4221
  C:210BH         LINE#         4222
  C:210EH         LINE#         4228
  C:2110H         LINE#         4229
  C:2112H         LINE#         4230
  C:2115H         LINE#         4238
  C:2117H         LINE#         4239
  C:2119H         LINE#         4240
  C:211BH         LINE#         4241
  C:211CH         LINE#         4242
  C:211DH         LINE#         4243
  C:211FH         LINE#         4244
  C:2120H         LINE#         4245
  C:2121H         LINE#         4246
  C:2122H         LINE#         4247
  C:2124H         LINE#         4249
  C:2126H         LINE#         4250
  C:2128H         LINE#         4251
  C:212BH         LINE#         4252
  C:212EH         LINE#         4253
  C:2131H         LINE#         4254
  C:2134H         LINE#         4255
  C:2137H         LINE#         4256
  C:213AH         LINE#         4257
  C:213CH         LINE#         4258
  C:213FH         LINE#         4259
  C:2141H         LINE#         4260
  C:2143H         LINE#         4261
  C:2146H         LINE#         4262
  C:2148H         LINE#         4263
  C:214AH         LINE#         4264
  C:214CH         LINE#         4265
  C:214EH         LINE#         4266
  C:2150H         LINE#         4267
  C:2151H         LINE#         4268
  C:2153H         LINE#         4269
  C:2156H         LINE#         4270
BL51 BANKED LINKER/LOCATER V4.16a           01/09/2008  13:19:07  PAGE 68


  C:2159H         LINE#         4273
  C:215CH         LINE#         4275
  C:215FH         LINE#         4277
  C:2162H         LINE#         4278
  C:2165H         LINE#         4279
  C:2168H         LINE#         4280
  C:216BH         LINE#         4281
  C:216EH         LINE#         4284
  C:2171H         LINE#         4287
  C:2174H         LINE#         4288
  C:2176H         LINE#         4289
  C:2179H         LINE#         4291
  C:217CH         LINE#         4293
  C:217FH         LINE#         4294
  C:2181H         LINE#         4295
  C:2184H         LINE#         4296
  C:2186H         LINE#         4297
  C:2188H         LINE#         4298
  C:218BH         LINE#         4299
  C:218EH         LINE#         4301
  C:2190H         LINE#         4302
  C:2191H         LINE#         4303
  C:2194H         LINE#         4305
  C:2197H         LINE#         4306
  C:2199H         LINE#         4315
  C:219BH         LINE#         4316
  C:219DH         LINE#         4317
  C:219EH         LINE#         4318
  C:219FH         LINE#         4319
  C:21A0H         LINE#         4320
  C:21A2H         LINE#         4322
  C:21A4H         LINE#         4323
  C:21A5H         LINE#         4324
  C:21A7H         LINE#         4325
  C:21A9H         LINE#         4326
  C:21ACH         LINE#         4327
  C:21AFH         LINE#         4328
  C:21B0H         LINE#         4330
  C:21B3H         LINE#         4331
  C:21B5H         LINE#         4332
  C:21B8H         LINE#         4333
  C:21BAH         LINE#         4334
  C:21BBH         LINE#         4335
  C:21BEH         LINE#         4336
  C:21C0H         LINE#         4339
  C:21C2H         LINE#         4340
  C:21C4H         LINE#         4341
  C:21C7H         LINE#         4342
  C:21CAH         LINE#         4344
  C:21CCH         LINE#         4345
  C:21CEH         LINE#         4346
  C:21D1H         LINE#         4347
  C:21D4H         LINE#         4348
  C:21D7H         LINE#         4349
  C:21D9H         LINE#         4350
  C:21DCH         LINE#         4351
  C:21DFH         LINE#         4352
  C:21E2H         LINE#         4353
  C:21E5H         LINE#         4354
  C:21E7H         LINE#         4356
  C:21E9H         LINE#         4357
  C:21EBH         LINE#         4359
  C:21EEH         LINE#         4360
  C:21F1H         LINE#         4362
  C:21F4H         LINE#         4364
BL51 BANKED LINKER/LOCATER V4.16a           01/09/2008  13:19:07  PAGE 69


  C:21F7H         LINE#         4366
  C:21F9H         LINE#         4367
  C:21FBH         LINE#         4368
  C:21FEH         LINE#         4369
  C:2201H         LINE#         4370
  C:2204H         LINE#         4371
  C:2207H         LINE#         4372
  C:2209H         LINE#         4373
  C:220BH         LINE#         4374
  C:220DH         LINE#         4375
  C:220FH         LINE#         4376
  C:2211H         LINE#         4377
  C:2213H         LINE#         4378
  C:2215H         LINE#         4379
  C:2217H         LINE#         4381
  C:221AH         LINE#         4382
  C:221CH         LINE#         4386
  C:221EH         LINE#         4387
  C:2220H         LINE#         4388
  C:2223H         LINE#         4389
  C:2226H         LINE#         4390
  C:2228H         LINE#         4391
  C:222AH         LINE#         4392
  C:222DH         LINE#         4393
  C:2230H         LINE#         4394
  C:2233H         LINE#         4395
  C:2236H         LINE#         4396
  C:2237H         LINE#         4397
  C:2239H         LINE#         4398
  C:223AH         LINE#         4402
  C:223CH         LINE#         4403
  C:223EH         LINE#         4404
  C:2240H         LINE#         4405
  C:2242H         LINE#         4406
  C:2245H         LINE#         4410
  C:2247H         LINE#         4411
  C:2249H         LINE#         4412
  C:224BH         LINE#         4413
  C:224DH         LINE#         4414
  C:224FH         LINE#         4415
  C:2251H         LINE#         4416
  C:2253H         LINE#         4417
  C:2255H         LINE#         4418
  C:2257H         LINE#         4419
  C:2259H         LINE#         4420
  C:225BH         LINE#         4421
  C:225DH         LINE#         4422
  C:2260H         LINE#         4423
  C:2263H         LINE#         4425
  C:2265H         LINE#         4426
  C:2267H         LINE#         4427
  C:2269H         LINE#         4428
  C:226BH         LINE#         4429
  C:226CH         LINE#         4430
  C:226DH         LINE#         4432
  C:226FH         LINE#         4433
  C:2271H         LINE#         4434
  C:2273H         LINE#         4436
  C:2275H         LINE#         4437
  C:2277H         LINE#         4438
  C:2279H         LINE#         4440
  C:227CH         LINE#         4441
  C:227FH         LINE#         4443
  C:2281H         LINE#         4444
  C:2283H         LINE#         4446
BL51 BANKED LINKER/LOCATER V4.16a           01/09/2008  13:19:07  PAGE 70


  C:2284H         LINE#         4452
  C:2286H         LINE#         4453
  C:2289H         LINE#         4454
  C:228CH         LINE#         4455
  C:228FH         LINE#         4456
  C:2290H         LINE#         4457
  C:2293H         LINE#         4458
  C:2296H         LINE#         4459
  C:2298H         LINE#         4460
  C:229BH         LINE#         4461
  C:229EH         LINE#         4462
  C:22A0H         LINE#         4463
  C:22A3H         LINE#         4464
  C:22A6H         LINE#         4465
  C:22A8H         LINE#         4466
  C:22ABH         LINE#         4467
  C:22AEH         LINE#         4468
  C:22B0H         LINE#         4470
  C:22B3H         LINE#         4471
  C:22B6H         LINE#         4472
  C:22B8H         LINE#         4473
  C:22BBH         LINE#         4474
  C:22BEH         LINE#         4475
  C:22C0H         LINE#         4476
  C:22C3H         LINE#         4477
  C:22C6H         LINE#         4478
  C:22C8H         LINE#         4479
  C:22CBH         LINE#         4480
  C:22CEH         LINE#         4481
  C:22D0H         LINE#         4484
  C:22D3H         LINE#         4485
  C:22D5H         LINE#         4487
  C:22D8H         LINE#         4489
  C:22DBH         LINE#         4490
  C:22DDH         LINE#         4491
  C:22E0H         LINE#         4493
  C:22E3H         LINE#         4494
  C:22E4H         LINE#         4495
  C:22E6H         LINE#         4496
  C:22E7H         LINE#         4497
  C:22EAH         LINE#         4498
  C:22ECH         LINE#         4499
  C:22EFH         LINE#         4500
  C:22F2H         LINE#         4502
  C:22F5H         LINE#         4503
  C:22F8H         LINE#         4504
  C:22FBH         LINE#         4505
  C:22FEH         LINE#         4507
  C:2300H         LINE#         4508
  C:2303H         LINE#         4511
  C:2305H         LINE#         4512
  C:2307H         LINE#         4513
  C:2309H         LINE#         4514
  C:230CH         LINE#         4516
  C:230FH         LINE#         4517
  C:2311H         LINE#         4518
  C:2314H         LINE#         4519
  C:2315H         LINE#         4520
  C:2316H         LINE#         4521
  C:2317H         LINE#         4522
  C:2318H         LINE#         4523
  C:2319H         LINE#         4524
  C:231AH         LINE#         4525
  C:231BH         LINE#         4526
  C:231CH         LINE#         4527
BL51 BANKED LINKER/LOCATER V4.16a           01/09/2008  13:19:07  PAGE 71


  C:231DH         LINE#         4528
  C:231EH         LINE#         4529
  C:231FH         LINE#         4533
  C:2322H         LINE#         4534
  C:2324H         LINE#         4535
  C:2327H         LINE#         4537
  C:2329H         LINE#         4538
  C:232BH         LINE#         4539
  C:232EH         LINE#         4540
  C:2331H         LINE#         4542
  C:2333H         LINE#         4543
  C:2336H         LINE#         4545
  C:2338H         LINE#         4547
  C:233BH         LINE#         4548
  C:233CH         LINE#         4549
  C:233DH         LINE#         4550
  C:233FH         LINE#         4551
  C:2340H         LINE#         4552
  C:2341H         LINE#         4553
  C:2342H         LINE#         4554
  C:2344H         LINE#         4555
  C:2347H         LINE#         4559
  C:2349H         LINE#         4560
  C:234BH         LINE#         4561
  C:234EH         LINE#         4562
  C:2351H         LINE#         4563
  C:2354H         LINE#         4564
  C:2357H         LINE#         4565
  C:235AH         LINE#         4566
  C:235DH         LINE#         4568
  C:235FH         LINE#         4569
  C:2361H         LINE#         4570
  C:2364H         LINE#         4571
  C:2367H         LINE#         4572
  C:2369H         LINE#         4573
  C:236BH         LINE#         4574
  C:236DH         LINE#         4575
  C:236FH         LINE#         4576
  C:2371H         LINE#         4577
  C:2373H         LINE#         4578
  C:2376H         LINE#         4579
  C:2379H         LINE#         4580
  C:237CH         LINE#         4581
  C:237EH         LINE#         4582
  C:2380H         LINE#         4583
  C:2382H         LINE#         4584
  C:2384H         LINE#         4585
  C:2387H         LINE#         4587
  C:238AH         LINE#         4588
  C:238DH         LINE#         4589
  C:2390H         LINE#         4590
  C:2392H         LINE#         4591
  C:2394H         LINE#         4592
  C:2396H         LINE#         4593
  C:2398H         LINE#         4595
  C:239AH         LINE#         4596
  C:239DH         LINE#         4597
  C:23A0H         LINE#         4598
  C:23A3H         LINE#         4599
  C:23A5H         LINE#         4600
  C:23A7H         LINE#         4601
  C:23A9H         LINE#         4602
  C:23ABH         LINE#         4603
  C:23AEH         LINE#         4605
  C:23B1H         LINE#         4606
BL51 BANKED LINKER/LOCATER V4.16a           01/09/2008  13:19:07  PAGE 72


  C:23B4H         LINE#         4607
  C:23B7H         LINE#         4608
  C:23BAH         LINE#         4609
  C:23BCH         LINE#         4610
  C:23BFH         LINE#         4612
  C:23C1H         LINE#         4613
  C:23C3H         LINE#         4614
  C:23C5H         LINE#         4615
  C:23C8H         LINE#         4617
  C:23CAH         LINE#         4618
  C:23CDH         LINE#         4619
  C:23CFH         LINE#         4621
  C:23D0H         LINE#         4622
  C:23D1H         LINE#         4623
  C:23D2H         LINE#         4624
  C:23D3H         LINE#         4625
  C:23D4H         LINE#         4626
  C:23D5H         LINE#         4627
  C:23D6H         LINE#         4628
  C:23D7H         LINE#         4629
  C:23D8H         LINE#         4630
  C:23D9H         LINE#         4631
  C:23DAH         LINE#         4635
  C:23DDH         LINE#         4636
  C:23DFH         LINE#         4637
  C:23E2H         LINE#         4639
  C:23E4H         LINE#         4640
  C:23E6H         LINE#         4641
  C:23E9H         LINE#         4642
  C:23ECH         LINE#         4644
  C:23EEH         LINE#         4645
  C:23F1H         LINE#         4646
  C:23F4H         LINE#         4652
  C:23F7H         LINE#         4653
  C:23F9H         LINE#         4654
  C:23FAH         LINE#         4655
  C:23FCH         LINE#         4656
  C:23FDH         LINE#         4657
  C:2400H         LINE#         4659
  C:2401H         LINE#         4660
  C:2403H         LINE#         4661
  C:2404H         LINE#         4662
  C:2405H         LINE#         4663
  C:2407H         LINE#         4664
  C:2409H         LINE#         4665
  C:240AH         LINE#         4666
  C:240BH         LINE#         4667
  C:240DH         LINE#         4670
  C:2410H         LINE#         4671
  C:2412H         LINE#         4672
  C:2414H         LINE#         4673
  C:2415H         LINE#         4674
  C:2416H         LINE#         4675
  C:2418H         LINE#         4676
  C:2419H         LINE#         4677
  C:241BH         LINE#         4678
  C:241EH         LINE#         4679
  C:2420H         LINE#         4680
  C:2422H         LINE#         4681
  C:2425H         LINE#         4682
  C:2427H         LINE#         4683
  C:2428H         LINE#         4684
  C:242AH         LINE#         4685
  C:242BH         LINE#         4687
  C:242DH         LINE#         4688
BL51 BANKED LINKER/LOCATER V4.16a           01/09/2008  13:19:07  PAGE 73


  C:242EH         LINE#         4689
  C:2430H         LINE#         4690
  C:2431H         LINE#         4691
  C:2432H         LINE#         4692
  C:2434H         LINE#         4694
  C:2435H         LINE#         4695
  C:2437H         LINE#         4696
  C:2439H         LINE#         4697
  C:243BH         LINE#         4698
  C:243DH         LINE#         4699
  C:243FH         LINE#         4700
  C:2441H         LINE#         4702
  C:2443H         LINE#         4703
  C:2445H         LINE#         4704
  C:2446H         LINE#         4705
  C:2447H         LINE#         4706
  C:2449H         LINE#         4707
  C:244AH         LINE#         4709
  C:244BH         LINE#         4710
  C:244DH         LINE#         4711
  C:244EH         LINE#         4712
  C:244FH         LINE#         4713
  C:2451H         LINE#         4714
  C:2453H         LINE#         4715
  C:2454H         LINE#         4716
  C:2455H         LINE#         4717
  C:2457H         LINE#         4721
  C:245AH         LINE#         4722
  C:245DH         LINE#         4723
  C:2460H         LINE#         4724
  C:2462H         LINE#         4725
  C:2465H         LINE#         4726
  C:2468H         LINE#         4727
  C:246AH         LINE#         4728
  C:246DH         LINE#         4729
  C:246FH         LINE#         4730
  C:2470H         LINE#         4731
  C:2472H         LINE#         4733
  C:2475H         LINE#         4734
  C:2478H         LINE#         4735
  C:247BH         LINE#         4736
  C:247DH         LINE#         4737
  C:2480H         LINE#         4738
  C:2483H         LINE#         4739
  C:2485H         LINE#         4740
  C:2488H         LINE#         4741
  C:2489H         LINE#         4742
  C:248AH         LINE#         4743
  C:248BH         LINE#         4744
  C:248CH         LINE#         4745
  C:248EH         LINE#         4746
  C:248FH         LINE#         4747
  C:2491H         LINE#         4748
  C:2492H         LINE#         4749
  C:2495H         LINE#         4750
  C:2498H         LINE#         4751
  C:249AH         LINE#         4752
  C:249DH         LINE#         4753
  C:24A0H         LINE#         4754
  C:24A3H         LINE#         4755
  C:24A6H         LINE#         4756
  C:24A9H         LINE#         4757
  C:24ACH         LINE#         4758
  C:24AFH         LINE#         4759
  C:24B1H         LINE#         4760
BL51 BANKED LINKER/LOCATER V4.16a           01/09/2008  13:19:07  PAGE 74


  C:24B4H         LINE#         4763
  C:24B6H         LINE#         4764
  C:24B8H         LINE#         4765
  C:24BBH         LINE#         4767
  C:24BDH         LINE#         4768
  C:24BFH         LINE#         4769
  C:24C1H         LINE#         4770
  C:24C2H         LINE#         4771
  C:24C4H         LINE#         4772
  C:24C5H         LINE#         4773
  C:24C6H         LINE#         4774
  C:24C7H         LINE#         4775
  C:24C9H         LINE#         4776
  C:24CBH         LINE#         4777
  C:24CDH         LINE#         4778
  C:24D0H         LINE#         4779
  C:24D2H         LINE#         4780
  C:24D5H         LINE#         4781
  C:24D6H         LINE#         4784
  C:24D7H         LINE#         4785
  C:24D8H         LINE#         4786
  C:24D9H         LINE#         4787
  C:24DAH         LINE#         4788
  C:24DBH         LINE#         4789
  C:24DCH         LINE#         4790
  C:24DDH         LINE#         4791
  C:24DEH         LINE#         4792
  C:24DFH         LINE#         4793
  C:24E0H         LINE#         4794
  C:24E1H         LINE#         4795
  C:24E2H         LINE#         4797
  C:24E3H         LINE#         4798
  C:24E5H         LINE#         4799
  C:24E7H         LINE#         4800
  C:24E9H         LINE#         4801
  C:24EBH         LINE#         4802
  C:24EDH         LINE#         4803
  C:24EFH         LINE#         4804
  C:24F0H         LINE#         4806
  C:24F3H         LINE#         4809
  C:24F6H         LINE#         4810
  C:24F8H         LINE#         4811
  C:24F9H         LINE#         4812
  C:24FBH         LINE#         4813
  C:24FCH         LINE#         4814
  C:24FFH         LINE#         4816
  C:2500H         LINE#         4817
  C:2502H         LINE#         4818
  C:2503H         LINE#         4819
  C:2504H         LINE#         4820
  C:2506H         LINE#         4821
  C:2508H         LINE#         4822
  C:2509H         LINE#         4823
  C:250AH         LINE#         4824
  C:250CH         LINE#         4827
  C:250FH         LINE#         4830
  C:2512H         LINE#         4832
  C:2514H         LINE#         4834
  C:2515H         LINE#         4835
  C:2516H         LINE#         4836
  C:2517H         LINE#         4837
  C:2518H         LINE#         4838
  C:2519H         LINE#         4839
  C:251AH         LINE#         4840
  C:251BH         LINE#         4841
BL51 BANKED LINKER/LOCATER V4.16a           01/09/2008  13:19:07  PAGE 75


  C:251CH         LINE#         4842
  C:251DH         LINE#         4843
  C:251EH         LINE#         4844
  C:251FH         LINE#         4845
  C:2520H         LINE#         4846
  C:2521H         LINE#         4847
  C:2522H         LINE#         4848
  C:2523H         LINE#         4850
  C:2525H         LINE#         4851
  C:2528H         LINE#         4852
  C:252BH         LINE#         4853
  C:252DH         LINE#         4854
  C:2530H         LINE#         4856
  C:2533H         LINE#         4859
  C:2535H         LINE#         4860
  C:2537H         LINE#         4861
  C:2538H         LINE#         4862
  C:2539H         LINE#         4863
  C:253BH         LINE#         4864
  C:253CH         LINE#         4866
  C:253EH         LINE#         4867
  C:2540H         LINE#         4868
  C:2543H         LINE#         4869
  C:2545H         LINE#         4870
  C:2546H         LINE#         4871
  C:2548H         LINE#         4872
  C:2549H         LINE#         4874
  C:254BH         LINE#         4875
  C:254CH         LINE#         4876
  C:254EH         LINE#         4877
  C:254FH         LINE#         4878
  C:2550H         LINE#         4879
  C:2552H         LINE#         4881
  C:2553H         LINE#         4882
  C:2555H         LINE#         4883
  C:2557H         LINE#         4884
  C:2559H         LINE#         4885
  C:255BH         LINE#         4886
  C:255DH         LINE#         4887
  C:255FH         LINE#         4889
  C:2561H         LINE#         4890
  C:2563H         LINE#         4891
  C:2564H         LINE#         4892
  C:2565H         LINE#         4893
  C:2567H         LINE#         4894
  C:2568H         LINE#         4896
  C:2569H         LINE#         4897
  C:256BH         LINE#         4898
  C:256CH         LINE#         4899
  C:256DH         LINE#         4900
  C:256FH         LINE#         4901
  C:2571H         LINE#         4902
  C:2572H         LINE#         4903
  C:2573H         LINE#         4904
  C:2575H         LINE#         4908
  C:2577H         LINE#         4909
  C:257AH         LINE#         4911
  C:257DH         LINE#         4912
  C:2580H         LINE#         4914
  C:2583H         LINE#         4916
  C:2586H         LINE#         4917
  C:2588H         LINE#         4918
  C:258AH         LINE#         4919
  C:258DH         LINE#         4920
  C:258FH         LINE#         4921
BL51 BANKED LINKER/LOCATER V4.16a           01/09/2008  13:19:07  PAGE 76


  C:2590H         LINE#         4922
  C:2592H         LINE#         4924
  C:2594H         LINE#         4925
  C:2597H         LINE#         4927
  C:259AH         LINE#         4928
  C:259DH         LINE#         4930
  C:25A0H         LINE#         4932
  C:25A3H         LINE#         4933
  C:25A5H         LINE#         4934
  C:25A7H         LINE#         4935
  C:25AAH         LINE#         4938
  C:25ACH         LINE#         4939
  C:25AFH         LINE#         4943
  C:25B2H         LINE#         4944
  C:25B5H         LINE#         4945
  C:25B8H         LINE#         4946
  C:25BBH         LINE#         4948
  C:25BEH         LINE#         4949
  C:25C0H         LINE#         4950
  C:25C3H         LINE#         4953
  C:25C5H         LINE#         4954
  C:25C7H         LINE#         4955
  C:25CAH         LINE#         4957
  C:25CCH         LINE#         4958
  C:25CEH         LINE#         4959
  C:25D0H         LINE#         4960
  C:25D1H         LINE#         4961
  C:25D3H         LINE#         4962
  C:25D4H         LINE#         4963
  C:25D5H         LINE#         4964
  C:25D6H         LINE#         4965
  C:25D8H         LINE#         4966
  C:25DAH         LINE#         4967
  C:25DCH         LINE#         4968
  C:25DFH         LINE#         4969
  C:25E1H         LINE#         4970
  C:25E4H         LINE#         4971
  C:25E5H         LINE#         4975
  C:25E8H         LINE#         4978
  C:25EBH         LINE#         4979
  C:25EDH         LINE#         4980
  C:25EEH         LINE#         4981
  C:25F0H         LINE#         4982
  C:25F1H         LINE#         4983
  C:25F4H         LINE#         4985
  C:25F5H         LINE#         4986
  C:25F7H         LINE#         4987
  C:25F8H         LINE#         4988
  C:25F9H         LINE#         4989
  C:25FBH         LINE#         4990
  C:25FDH         LINE#         4991
  C:25FEH         LINE#         4992
  C:25FFH         LINE#         4993
  C:2601H         LINE#         4996
  C:2604H         LINE#         5000
  C:2607H         LINE#         5002
  C:2609H         LINE#         5004
  C:260AH         LINE#         5005
  C:260BH         LINE#         5006
  C:260CH         LINE#         5007
  C:260DH         LINE#         5008
  C:260EH         LINE#         5009
  C:260FH         LINE#         5010
  C:2610H         LINE#         5011
  C:2611H         LINE#         5012
BL51 BANKED LINKER/LOCATER V4.16a           01/09/2008  13:19:07  PAGE 77


  C:2612H         LINE#         5013
  C:2613H         LINE#         5014
  C:2614H         LINE#         5015
  C:2615H         LINE#         5016
  C:2616H         LINE#         5017
  C:2617H         LINE#         5018
  C:2618H         LINE#         5020
  C:261AH         LINE#         5021
  C:261DH         LINE#         5022
  C:2620H         LINE#         5023
  C:2622H         LINE#         5024
  C:2625H         LINE#         5026
  C:2628H         LINE#         5029
  C:262AH         LINE#         5030
  C:262CH         LINE#         5031
  C:262DH         LINE#         5032
  C:262EH         LINE#         5033
  C:2630H         LINE#         5034
  C:2631H         LINE#         5036
  C:2633H         LINE#         5037
  C:2635H         LINE#         5038
  C:2638H         LINE#         5039
  C:263AH         LINE#         5040
  C:263BH         LINE#         5041
  C:263DH         LINE#         5042
  C:263EH         LINE#         5044
  C:2640H         LINE#         5045
  C:2641H         LINE#         5046
  C:2643H         LINE#         5047
  C:2644H         LINE#         5048
  C:2645H         LINE#         5049
  C:2647H         LINE#         5051
  C:2648H         LINE#         5052
  C:264AH         LINE#         5053
  C:264CH         LINE#         5054
  C:264EH         LINE#         5055
  C:2650H         LINE#         5056
  C:2652H         LINE#         5057
  C:2654H         LINE#         5059
  C:2656H         LINE#         5060
  C:2658H         LINE#         5061
  C:2659H         LINE#         5062
  C:265AH         LINE#         5063
  C:265CH         LINE#         5064
  C:265DH         LINE#         5066
  C:265EH         LINE#         5067
  C:2660H         LINE#         5068
  C:2661H         LINE#         5069
  C:2662H         LINE#         5070
  C:2664H         LINE#         5071
  C:2666H         LINE#         5072
  C:2667H         LINE#         5073
  C:2668H         LINE#         5074
  C:266AH         LINE#         5078
  C:266CH         LINE#         5079
  C:266FH         LINE#         5081
  C:2672H         LINE#         5082
  C:2675H         LINE#         5084
  C:2678H         LINE#         5086
  C:267BH         LINE#         5087
  C:267DH         LINE#         5088
  C:267FH         LINE#         5089
  C:2682H         LINE#         5090
  C:2684H         LINE#         5091
  C:2685H         LINE#         5092
BL51 BANKED LINKER/LOCATER V4.16a           01/09/2008  13:19:07  PAGE 78


  C:2687H         LINE#         5093
  C:2689H         LINE#         5094
  C:268CH         LINE#         5096
  C:268FH         LINE#         5097
  C:2692H         LINE#         5099
  C:2695H         LINE#         5101
  C:2698H         LINE#         5102
  C:269AH         LINE#         5103
  C:269CH         LINE#         5104
  C:269FH         LINE#         5107
  C:26A2H         LINE#         5110
  C:26A4H         LINE#         5111
  C:26A7H         LINE#         5112
  C:26AAH         LINE#         5113
  C:26ADH         LINE#         5114
  C:26B0H         LINE#         5115
  C:26B2H         LINE#         5116
  C:26B5H         LINE#         5117
  C:26B6H         LINE#         5120
  C:26B8H         LINE#         5121
  C:26BAH         LINE#         5122
  C:26BCH         LINE#         5125
  C:26BFH         LINE#         5126
  C:26C1H         LINE#         5127
  C:26C2H         LINE#         5131
  C:26C4H         LINE#         5132
  C:26C5H         LINE#         5133
  C:26C8H         LINE#         5135
  C:26CBH         LINE#         5136
  C:26CDH         LINE#         5137
  C:26CFH         LINE#         5138
  C:26D1H         LINE#         5139
  C:26D2H         LINE#         5140
  C:26D4H         LINE#         5141
  C:26D7H         LINE#         5142
  C:26D9H         LINE#         5143
  C:26DCH         LINE#         5144
  C:26DDH         LINE#         5145
  C:26DFH         LINE#         5146
  C:26E0H         LINE#         5147
  C:26E2H         LINE#         5149
  -------         ENDMOD        MAIN

LINK/LOCATE RUN COMPLETE.  0 WARNING(S),  0 ERROR(S)
