BL51 BANKED LINKER/LOCATER V4.16a             02/14/2007  11:03:22  PAGE 1


BL51 BANKED LINKER/LOCATER V4.16a, INVOKED BY:
D:\PROGRAM FILES\CYGNAL\IDEFILES\C51\BIN\BL51.EXE D:\AMP\AMP31.OBJ TO D:\AMP\A
>> MP31 RS (256) PL (68) PW (78)


INPUT MODULES INCLUDED:
  D:\AMP\AMP31.OBJ (MAIN)


LINK MAP OF MODULE:  D:\AMP\AMP31 (MAIN)


            TYPE    BASE      LENGTH    RELOCATION   SEGMENT NAME
            -----------------------------------------------------

            * * * * * * *   D A T A   M E M O R Y   * * * * * * *
            REG     0000H     0008H     ABSOLUTE     "REG BANK 0"

            * * * * * * *   C O D E   M E M O R Y   * * * * * * *
            CODE    0000H     04C9H     ABSOLUTE     
            CODE    04C9H     2AF7H     UNIT         MAIN



SYMBOL TABLE OF MODULE:  D:\AMP\AMP31 (MAIN)

  VALUE           TYPE          NAME
  ----------------------------------

  -------         MODULE        MAIN
  C:04C9H         SEGMENT       MAIN
  X:0100H         PUBLIC        MASS0
  B:00C0H.2       SYMBOL        AA
  C:086BH         SYMBOL        AAPAR
  D:004FH         SYMBOL        ABIN
  C:27D2H         SYMBOL        ABRET
  C:03F3H         SYMBOL        ABTOF
  B:00D0H.6       SYMBOL        AC
  D:00E0H         SYMBOL        ACC
  B:00E8H.4       SYMBOL        AD0BUSY
  B:00E8H.7       SYMBOL        AD0EN
  B:00E8H.5       SYMBOL        AD0INT
  B:00E8H.0       SYMBOL        AD0LJST
  B:00E8H.2       SYMBOL        AD0STM0
  B:00E8H.3       SYMBOL        AD0STM1
  B:00E8H.6       SYMBOL        AD0TM
  B:00E8H.1       SYMBOL        AD0WINT
  D:00BCH         SYMBOL        ADC0CF
  D:00E8H         SYMBOL        ADC0CN
  D:00C5H         SYMBOL        ADC0GTH
  D:00C4H         SYMBOL        ADC0GTL
  D:00BFH         SYMBOL        ADC0H
  D:00BEH         SYMBOL        ADC0L
  D:00C7H         SYMBOL        ADC0LTH
  D:00C6H         SYMBOL        ADC0LTL
  D:009CH         SYMBOL        ADC1
  D:00ABH         SYMBOL        ADC1CF
  D:00AAH         SYMBOL        ADC1CN
  C:2F97H         SYMBOL        ADDX
  D:0053H         SYMBOL        ADEC
  C:2C4BH         SYMBOL        ADRBLOK
  C:0B62H         SYMBOL        AFTERK
  C:0705H         SYMBOL        AGE2
  C:0D22H         SYMBOL        AGE9
  C:0713H         SYMBOL        AGEON
  C:0E57H         SYMBOL        ALESS0
BL51 BANKED LINKER/LOCATER V4.16a           02/14/2007  11:03:22  PAGE 2


  C:0809H         SYMBOL        ALLSUM
  C:2EDEH         SYMBOL        ALMUL
  C:0402H         SYMBOL        ALTOF
  C:041EH         SYMBOL        ALTOF1
  D:00BAH         SYMBOL        AMX0CF
  D:00BBH         SYMBOL        AMX0SL
  D:00ACH         SYMBOL        AMX1SL
  C:0AC8H         SYMBOL        ANKOR
  C:1634H         SYMBOL        AN_T7
  C:10E2H         SYMBOL        AUTOKA
  C:0C8FH         SYMBOL        AVPGO
  C:0B24H         SYMBOL        AVTDEC1
  C:03FCH         SYMBOL        AWTOF
  D:00F0H         SYMBOL        B
  C:05C9H         SYMBOL        BEGIN
  C:2B88H         SYMBOL        BFORM
  B:0021H.5       SYMBOL        BIFL_KT
  C:2CFAH         SYMBOL        BIN30
  C:2CFEH         SYMBOL        BIN31
  C:2D0EH         SYMBOL        BIN32
  C:2D1FH         SYMBOL        BIN41
  C:2CEEH         SYMBOL        BINDEC
  B:0023H.2       SYMBOL        BITAKT
  B:0020H.5       SYMBOL        BITAVP
  B:0021H.2       SYMBOL        BITBON
  B:0021H.0       SYMBOL        BITBUF
  B:0022H.5       SYMBOL        BITEIZM
  B:0020H.4       SYMBOL        BITIZM
  B:0022H.2       SYMBOL        BITKLB
  B:0020H.1       SYMBOL        BITMAS
  B:0021H.3       SYMBOL        BITMEM
  B:0022H.1       SYMBOL        BITMENU
  B:0023H.1       SYMBOL        BITMIG
  B:0021H.7       SYMBOL        BITNUL
  B:0022H.7       SYMBOL        BITOLL
  B:0022H.6       SYMBOL        BITPAR
  B:0021H.1       SYMBOL        BITPRD
  B:0020H.3       SYMBOL        BITRS
  B:0022H.0       SYMBOL        BITT2
  B:0022H.3       SYMBOL        BITV19
  B:0020H.6       SYMBOL        BITVI11
  B:0022H.4       SYMBOL        BITVICH
  B:0020H.0       SYMBOL        BITZNAK
  B:0023H.3       SYMBOL        BITZNB
  B:0020H.7       SYMBOL        BITZUS
  C:1ABEH         SYMBOL        BLOIN
  C:1A90H         SYMBOL        BLOKVV
  C:1A9AH         SYMBOL        BLOKVVC
  C:1A5BH         SYMBOL        BL_LI
  C:17F9H         SYMBOL        BOUT7
  C:261BH         SYMBOL        BRET
  C:0E89H         SYMBOL        BUFDEC
  D:0040H         SYMBOL        BUFIND
  C:233CH         SYMBOL        BUFMEA
  C:242FH         SYMBOL        BUFMIN
  C:1234H         SYMBOL        BUFON
  C:0DC7H         SYMBOL        BUFR
  C:0DA9H         SYMBOL        BUFR2
  C:0DA2H         SYMBOL        BUFR3
  C:0DA5H         SYMBOL        BUFR30
  B:00D8H.0       SYMBOL        CCF0
  B:00D8H.1       SYMBOL        CCF1
  B:00D8H.2       SYMBOL        CCF2
  B:00D8H.3       SYMBOL        CCF3
  B:00D8H.4       SYMBOL        CCF4
BL51 BANKED LINKER/LOCATER V4.16a           02/14/2007  11:03:22  PAGE 3


  C:01F7H         SYMBOL        CDONE
  D:0020H         SYMBOL        CELLBIT
  D:0021H         SYMBOL        CELLBIT1
  D:0022H         SYMBOL        CELLBIT2
  D:0023H         SYMBOL        CELLBIT3
  C:01E2H         SYMBOL        CEXP
  B:00D8H.7       SYMBOL        CF
  C:26BEH         SYMBOL        CH0
  C:26DEH         SYMBOL        CH1
  C:26C2H         SYMBOL        CH10
  C:26D6H         SYMBOL        CH100
  C:26D2H         SYMBOL        CH10000
  C:2722H         SYMBOL        CH150H
  C:26DAH         SYMBOL        CH2
  C:2899H         SYMBOL        CH20
  C:2702H         SYMBOL        CH2THO
  C:271EH         SYMBOL        CH320H
  C:26CAH         SYMBOL        CH4
  C:1CC9H         SYMBOL        CH43
  C:1D6FH         SYMBOL        CH43_42
  C:26C6H         SYMBOL        CH5
  C:2895H         SYMBOL        CH57
  C:26CEH         SYMBOL        CH954
  C:1909H         SYMBOL        CHAIBL
  C:1C1EH         SYMBOL        CHAIPR
  C:1401H         SYMBOL        CHANMA
  C:13E8H         SYMBOL        CHANZ
  D:0081H         SYMBOL        CHAVT
  D:009BH         SYMBOL        CHBEFORE
  D:00D6H         SYMBOL        CHBLOK
  D:00CFH         SYMBOL        CHBUF
  C:25BEH         SYMBOL        CHCMP
  C:25D1H         SYMBOL        CHDEC
  D:0083H         SYMBOL        CHDEL
  C:10CAH         SYMBOL        CHDELMO
  C:28DEH         SYMBOL        CHIF
  C:28E6H         SYMBOL        CHIF5
  C:2909H         SYMBOL        CHIFB
  C:290FH         SYMBOL        CHIFB1
  C:2917H         SYMBOL        CHIFL5
  C:28F8H         SYMBOL        CHIFOUR
  D:00ACH         SYMBOL        CHIND
  D:0033H         SYMBOL        CHIND2
  D:0098H         SYMBOL        CHINKOR
  C:271AH         SYMBOL        CHK
  D:003DH         SYMBOL        CHKL
  D:006EH         SYMBOL        CHMAS
  D:003FH         SYMBOL        CHMASN
  C:2C30H         SYMBOL        CHMINUS
  C:2568H         SYMBOL        CHTADC
  C:26FAH         SYMBOL        CHTHO
  C:279DH         SYMBOL        CHTHOU
  C:26BAH         SYMBOL        CHZAP
  C:26E6H         SYMBOL        CH_1
  C:2712H         SYMBOL        CH_10
  C:270EH         SYMBOL        CH_10TH
  C:26EAH         SYMBOL        CH_2
  C:270AH         SYMBOL        CH_200
  C:2706H         SYMBOL        CH_220
  C:27DBH         SYMBOL        CH_22T
  C:2716H         SYMBOL        CH_250
  C:26EEH         SYMBOL        CH_4
  C:26F2H         SYMBOL        CH_5
  C:27D7H         SYMBOL        CH_500
  C:26F6H         SYMBOL        CH_953
BL51 BANKED LINKER/LOCATER V4.16a           02/14/2007  11:03:22  PAGE 4


  C:27D3H         SYMBOL        CH_B
  C:27DFH         SYMBOL        CH_FL
  C:26E2H         SYMBOL        CH_MLN
  C:2B5EH         SYMBOL        CIKLWR
  D:008EH         SYMBOL        CKCON
  C:2734H         SYMBOL        CL4
  C:273AH         SYMBOL        CL4N
  C:1D5CH         SYMBOL        CLE20
  C:043EH         SYMBOL        CLE256
  C:2CE8H         SYMBOL        CLEAR
  C:2731H         SYMBOL        CLEAR4
  C:2739H         SYMBOL        CLEARN
  C:2B4EH         SYMBOL        CLMASSIX
  C:0C94H         SYMBOL        CLMASV
  C:2B53H         SYMBOL        CLMAX
  C:2CE9H         SYMBOL        CLR11
  C:2CE2H         SYMBOL        CLRDEC
  C:2CE6H         SYMBOL        CLRNUM
  C:1769H         SYMBOL        CLRVICH
  N:0006H         SYMBOL        CNTR
  C:26A2H         SYMBOL        CO02S
  C:26AFH         SYMBOL        CO05S
  C:2699H         SYMBOL        CO1S
  C:2695H         SYMBOL        CO2S
  C:0D3EH         SYMBOL        COMPA1
  C:0D74H         SYMBOL        COMPA2
  C:2BC2H         SYMBOL        COND
  C:049FH         SYMBOL        COPY1
  C:0499H         SYMBOL        COPYPP
  D:00D7H         SYMBOL        COPY_HL
  C:2677H         SYMBOL        COUNT
  B:00C8H.0       SYMBOL        CPRL2
  D:009EH         SYMBOL        CPT0CN
  D:009FH         SYMBOL        CPT1CN
  B:00D8H.6       SYMBOL        CR
  C:267EH         SYMBOL        CT
  B:00C8H.1       SYMBOL        CT2
  B:00D0H.7       SYMBOL        CY
  D:00D4H         SYMBOL        DAC0CN
  D:00D3H         SYMBOL        DAC0H
  D:00D2H         SYMBOL        DAC0L
  D:00D7H         SYMBOL        DAC1CN
  D:00D6H         SYMBOL        DAC1H
  D:00D5H         SYMBOL        DAC1L
  C:2BC7H         SYMBOL        DCOA
  C:2BCEH         SYMBOL        DCOB
  C:2BD9H         SYMBOL        DCOC
  C:2BE6H         SYMBOL        DCOD
  C:1A10H         SYMBOL        DDOUTF
  C:18EDH         SYMBOL        DDOUTFR
  C:2D3BH         SYMBOL        DEC30
  C:2D40H         SYMBOL        DEC31
  C:2D50H         SYMBOL        DEC32
  C:2D2EH         SYMBOL        DECBIN
  N:000AH         SYMBOL        DECSIZE
  C:2D59H         SYMBOL        DECT2
  C:2FAEH         SYMBOL        DEDPTR
  C:0133H         SYMBOL        DENORM
  C:1BA2H         SYMBOL        DGOTO7
  D:00AEH         SYMBOL        DIAP
  C:1259H         SYMBOL        DIINC
  C:286DH         SYMBOL        DIKDN
  C:2785H         SYMBOL        DIKDW
  C:279BH         SYMBOL        DIKM
  C:2799H         SYMBOL        DIPAR
BL51 BANKED LINKER/LOCATER V4.16a           02/14/2007  11:03:22  PAGE 5


  C:02DDH         SYMBOL        DIV1
  C:0320H         SYMBOL        DIV2
  C:030DH         SYMBOL        DIV3
  C:0336H         SYMBOL        DIV9
  C:2E19H         SYMBOL        DIVIDE
  C:2D88H         SYMBOL        DONE
  C:2D86H         SYMBOL        DONE1
  C:2EA2H         SYMBOL        DOSH
  C:2E90H         SYMBOL        DOSUB
  D:0083H         SYMBOL        DPH
  D:0082H         SYMBOL        DPL
  C:0F64H         SYMBOL        DVIG0
  C:0F59H         SYMBOL        DVIG1
  C:0F4EH         SYMBOL        DVIG2
  C:0F42H         SYMBOL        DVIG3
  C:0F70H         SYMBOL        DVIG4
  C:0F92H         SYMBOL        DVIG6
  C:0F90H         SYMBOL        DVM
  B:00A8H.7       SYMBOL        EA
  D:00E6H         SYMBOL        EIE1
  D:00E7H         SYMBOL        EIE2
  D:00F6H         SYMBOL        EIP1
  D:00F7H         SYMBOL        EIP2
  D:00A3H         SYMBOL        EMI0CF
  D:00AFH         SYMBOL        EMI0CN
  D:00A1H         SYMBOL        EMI0TC
  C:216CH         SYMBOL        ENDKALIB
  C:0F96H         SYMBOL        ENDSDV
  C:0A56H         SYMBOL        ENDSUM
  B:00C0H.6       SYMBOL        ENSMB
  C:0D6FH         SYMBOL        EQU0
  C:0D8DH         SYMBOL        EQU00
  C:1534H         SYMBOL        EQU1L
  C:1A76H         SYMBOL        EQU2L
  C:209BH         SYMBOL        ERRA0
  C:0CA8H         SYMBOL        ERRA01
  C:2974H         SYMBOL        ERROR
  B:00A8H.4       SYMBOL        ES
  B:00A8H.1       SYMBOL        ET0
  B:00A8H.3       SYMBOL        ET1
  B:00A8H.5       SYMBOL        ET2
  B:00A8H.0       SYMBOL        EX0
  B:00A8H.2       SYMBOL        EX1
  B:00C8H.3       SYMBOL        EXEN2
  B:00C8H.6       SYMBOL        EXF2
  N:0000H         SYMBOL        EXP1
  N:0001H         SYMBOL        EXP2
  C:0675H         SYMBOL        EXTCLE
  B:00D0H.5       SYMBOL        F0
  B:00D0H.1       SYMBOL        F1
  C:277EH         SYMBOL        FINDEXT
  C:276FH         SYMBOL        FINDKOEF
  C:1498H         SYMBOL        FINDMEM
  C:28C6H         SYMBOL        FINDR
  C:2ECDH         SYMBOL        FINIS
  D:00B7H         SYMBOL        FLACL
  C:0166H         SYMBOL        FLADD
  C:01D6H         SYMBOL        FLCMP
  C:02B7H         SYMBOL        FLDIV
  C:0203H         SYMBOL        FLMUL
  C:01E1H         SYMBOL        FLOUT
  D:00B6H         SYMBOL        FLSCL
  C:01D1H         SYMBOL        FLSUB
  C:01F8H         SYMBOL        FND
  C:2B85H         SYMBOL        FO1M
BL51 BANKED LINKER/LOCATER V4.16a           02/14/2007  11:03:22  PAGE 6


  C:2B8EH         SYMBOL        FO2M
  C:2B8FH         SYMBOL        FORM4
  C:1341H         SYMBOL        FT1IZM
  C:0343H         SYMBOL        FTOL
  C:037CH         SYMBOL        FTOL1
  C:039EH         SYMBOL        FTOL2
  C:03C4H         SYMBOL        FTOL22
  C:03A2H         SYMBOL        FTOL23
  C:03B5H         SYMBOL        FTOL24
  C:03C2H         SYMBOL        FTOL25
  C:03E4H         SYMBOL        FTOL26
  C:038AH         SYMBOL        FTOL3
  C:038EH         SYMBOL        FTOL33
  C:0371H         SYMBOL        FTOL4
  C:0381H         SYMBOL        FTOL9
  C:21DBH         SYMBOL        FULKALIB
  C:060EH         SYMBOL        GENER
  C:19D5H         SYMBOL        GO23NO
  C:153AH         SYMBOL        GO31L
  C:153FH         SYMBOL        GO41L
  C:0C4AH         SYMBOL        GOA2
  C:0C54H         SYMBOL        GOA3A2
  C:1068H         SYMBOL        GOCIKLE
  C:1A08H         SYMBOL        GOFULL
  C:20B9H         SYMBOL        GOGO7
  C:0C72H         SYMBOL        GOKAA2
  C:121CH         SYMBOL        GOKLB
  C:195CH         SYMBOL        GOOFF1
  C:197AH         SYMBOL        GOOFF2
  C:1998H         SYMBOL        GOOFF3
  C:19B6H         SYMBOL        GOOFF4
  C:0C64H         SYMBOL        GOONIN
  C:0E60H         SYMBOL        GOONIND
  C:1915H         SYMBOL        GOONOFF
  C:1009H         SYMBOL        GOONT
  C:1F2CH         SYMBOL        GOPAROL
  C:1E42H         SYMBOL        GOPAROM
  C:07E7H         SYMBOL        GOPART
  C:1469H         SYMBOL        GOSK19
  C:1634H         SYMBOL        GOTO7
  C:0AE9H         SYMBOL        GOTOKD
  C:0FFBH         SYMBOL        GOTOSTROB
  C:11D1H         SYMBOL        GOUT6
  C:1C42H         SYMBOL        GOVVLIST
  C:0799H         SYMBOL        GOZNAK
  C:1774H         SYMBOL        HNOR11
  C:171CH         SYMBOL        HNOR12
  C:17BDH         SYMBOL        HNOT1
  C:16EAH         SYMBOL        HNOT2
  C:1712H         SYMBOL        HR12
  C:170CH         SYMBOL        HVI1113
  D:00A8H         SYMBOL        IE
  B:0088H.1       SYMBOL        IE0
  B:0088H.3       SYMBOL        IE1
  C:16E6H         SYMBOL        INCT
  C:2536H         SYMBOL        IND
  C:0E27H         SYMBOL        INDA3
  C:0DFEH         SYMBOL        INDOLL
  C:27E3H         SYMBOL        INIACP
  C:1AF9H         SYMBOL        INNOT1_2
  C:1AEAH         SYMBOL        INNOT3
  C:1ADEH         SYMBOL        INNOT6
  D:00CDH         SYMBOL        INTERVA
  C:1021H         SYMBOL        INTMUL
  C:1024H         SYMBOL        INTMUL1
BL51 BANKED LINKER/LOCATER V4.16a           02/14/2007  11:03:22  PAGE 7


  C:1B8BH         SYMBOL        INTN
  D:00B8H         SYMBOL        IP
  B:0088H.0       SYMBOL        IT0
  B:0088H.2       SYMBOL        IT1
  C:17A5H         SYMBOL        IZCHI
  C:12B8H         SYMBOL        IZMAN
  C:12C7H         SYMBOL        IZMFUN
  C:12CBH         SYMBOL        IZMPAT
  C:12DAH         SYMBOL        IZMT2
  C:12E5H         SYMBOL        IZMT3
  C:2E34H         SYMBOL        JFINIS
  C:26FEH         SYMBOL        KD
  C:11A4H         SYMBOL        KEYB1
  C:15C8H         SYMBOL        KEYB2
  C:19DFH         SYMBOL        KFULL
  C:18DCH         SYMBOL        KFULLR
  C:1949H         SYMBOL        KGO23
  C:18B6H         SYMBOL        KLEV1
  C:18BBH         SYMBOL        KLEV2
  C:18DFH         SYMBOL        KLEV21
  C:18C5H         SYMBOL        KLEV22
  C:18F0H         SYMBOL        KLEV23
  C:18C0H         SYMBOL        KLEV3
  C:0894H         SYMBOL        KLMAS
  C:1682H         SYMBOL        KNAVP
  B:0023H.0       SYMBOL        KNIZM
  C:12C2H         SYMBOL        KNIZMON
  C:15B9H         SYMBOL        KNKMP
  C:1692H         SYMBOL        KNLEFT
  C:181AH         SYMBOL        KNMEM
  C:1656H         SYMBOL        KNMENU
  C:16B0H         SYMBOL        KNNUL
  C:12EDH         SYMBOL        KNOPT
  C:1302H         SYMBOL        KNRAZR
  C:124FH         SYMBOL        KNRIGHT
  C:126EH         SYMBOL        KNVICH
  D:00A0H         SYMBOL        KOEFKD
  D:0094H         SYMBOL        KOEFKM
  D:0090H         SYMBOL        KOEFKP
  C:0C12H         SYMBOL        KOMUL
  C:0C0CH         SYMBOL        KOMULPZ
  D:00BCH         SYMBOL        KONSTA
  C:13CCH         SYMBOL        KON_B
  C:262FH         SYMBOL        KOR0US
  D:0084H         SYMBOL        KOR0_AN
  C:0B3AH         SYMBOL        KORDEC1
  C:0B1AH         SYMBOL        KORDEC10
  C:109DH         SYMBOL        KORNUL
  C:19FBH         SYMBOL        KVVOD0
  C:1C39H         SYMBOL        LABEL43
  C:1D22H         SYMBOL        LABEL7
  C:0760H         SYMBOL        LABELA
  C:0F3BH         SYMBOL        LABELB
  C:1302H         SYMBOL        LABELC
  C:12CBH         SYMBOL        LABELE
  C:132DH         SYMBOL        LABELF
  C:16D2H         SYMBOL        LABELH
  C:2015H         SYMBOL        LABELI
  C:1759H         SYMBOL        LABELI2
  C:185AH         SYMBOL        LABELK
  C:14F5H         SYMBOL        LABELL
  C:1409H         SYMBOL        LABELL1
  C:1559H         SYMBOL        LABELN
  C:1C0FH         SYMBOL        LABELP
  C:1BD4H         SYMBOL        LABELS
BL51 BANKED LINKER/LOCATER V4.16a           02/14/2007  11:03:22  PAGE 8


  C:1EA3H         SYMBOL        LABELS1
  C:1F9EH         SYMBOL        LABELS13
  C:2028H         SYMBOL        LABELS3
  C:2003H         SYMBOL        LABELS4
  C:151BH         SYMBOL        LABL2
  C:1A7FH         SYMBOL        LABM
  C:2F75H         SYMBOL        LADD
  C:2F86H         SYMBOL        LADDX
  C:042DH         SYMBOL        LBTOF
  C:2D73H         SYMBOL        LCMP
  C:2D89H         SYMBOL        LDC_LONG
  C:2DABH         SYMBOL        LDC_LTEMP
  C:2DD1H         SYMBOL        LDX_LONG
  C:2DF7H         SYMBOL        LDX_LTEMP
  C:1B0AH         SYMBOL        LEFCUR
  C:169CH         SYMBOL        LEFKL
  C:1868H         SYMBOL        LEFMEM11
  C:1A29H         SYMBOL        LEFT21
  C:1EA0H         SYMBOL        LEFT_S
  C:1F85H         SYMBOL        LEFT_SK
  C:18C8H         SYMBOL        LEV220
  C:157FH         SYMBOL        LEV2GO
  D:00B0H         SYMBOL        LEVEL
  C:17AFH         SYMBOL        LI21
  C:1CA8H         SYMBOL        LI42_43
  C:1D2CH         SYMBOL        LIST_43
  C:12B1H         SYMBOL        LLDI2
  C:12A5H         SYMBOL        LLDI23
  C:12ACH         SYMBOL        LLDI3
  C:1544H         SYMBOL        LLEV2
  C:2EDEH         SYMBOL        LLMUL
  C:2F63H         SYMBOL        LLSUB
  C:0432H         SYMBOL        LLTOF
  C:2EDEH         SYMBOL        LMUL
  C:2CBEH         SYMBOL        LOA3_X
  C:2832H         SYMBOL        LOAB12
  D:00B7H         SYMBOL        LOAD
  C:17D0H         SYMBOL        LOADB
  C:17FCH         SYMBOL        LOADB2
  C:1886H         SYMBOL        LOADCLE
  C:284FH         SYMBOL        LOADKD
  C:2841H         SYMBOL        LOADR2
  C:264AH         SYMBOL        LOADT
  C:25E9H         SYMBOL        LOADUS
  C:2351H         SYMBOL        LOAHL_R2
  C:1A34H         SYMBOL        LOBLOK
  C:1881H         SYMBOL        LOCLE
  C:2659H         SYMBOL        LOD1
  C:2668H         SYMBOL        LODT
  C:171FH         SYMBOL        LOIZMK
  C:1DF5H         SYMBOL        LOKAME1
  C:264CH         SYMBOL        LOLEVT
  C:1875H         SYMBOL        LOLIST
  C:2120H         SYMBOL        LOME1
  C:2118H         SYMBOL        LOMENU
  C:25A5H         SYMBOL        LOOP
  C:2E37H         SYMBOL        LOOPS
  C:2623H         SYMBOL        LOSPUS
  C:189DH         SYMBOL        LOSTAT
  C:2664H         SYMBOL        LOTEXT
  C:28A5H         SYMBOL        LOTP
  C:289DH         SYMBOL        LOTPUS
  C:12B7H         SYMBOL        LOU
  C:1294H         SYMBOL        LOUIZM
  C:1537H         SYMBOL        LOUTF
BL51 BANKED LINKER/LOCATER V4.16a           02/14/2007  11:03:22  PAGE 9


  C:1715H         SYMBOL        LOVICH
  C:188FH         SYMBOL        LOWR
  C:1894H         SYMBOL        LOWR1
  C:2F63H         SYMBOL        LSUB
  N:0008H         SYMBOL        LTEMP
  C:2B60H         SYMBOL        LWR
  C:2B24H         SYMBOL        LWRX
  C:042FH         SYMBOL        LWTOF
  D:006FH         SYMBOL        MABIN
  C:2B7BH         SYMBOL        MAFORM
  N:0002H         SYMBOL        MANT1
  N:0008H         SYMBOL        MANT2
  C:13D3H         SYMBOL        MARK0_8
  D:00B2H         SYMBOL        MARKER
  C:2919H         SYMBOL        MARLE
  C:2926H         SYMBOL        MARRI
  C:08B3H         SYMBOL        MAS10
  C:0933H         SYMBOL        MAS20
  C:0A27H         SYMBOL        MAS4
  C:0A9BH         SYMBOL        MAS5DIV
  C:0A62H         SYMBOL        MASFULL
  X:0104H         SYMBOL        MASS1
  X:0128H         SYMBOL        MASS10
  X:012CH         SYMBOL        MASS11
  X:0130H         SYMBOL        MASS12
  X:0134H         SYMBOL        MASS13
  X:0138H         SYMBOL        MASS14
  X:013CH         SYMBOL        MASS15
  X:0140H         SYMBOL        MASS16
  X:0144H         SYMBOL        MASS17
  X:0148H         SYMBOL        MASS18
  X:014CH         SYMBOL        MASS19
  X:0108H         SYMBOL        MASS2
  X:010CH         SYMBOL        MASS3
  X:0110H         SYMBOL        MASS4
  X:0114H         SYMBOL        MASS5
  X:0118H         SYMBOL        MASS6
  X:011CH         SYMBOL        MASS7
  X:0120H         SYMBOL        MASS8
  X:0124H         SYMBOL        MASS9
  C:0A91H         SYMBOL        MASX5
  C:2478H         SYMBOL        MAXG
  C:24E2H         SYMBOL        MAXVIX
  C:1BCBH         SYMBOL        ME11_15DE
  C:1DF4H         SYMBOL        ME11_15DEC
  C:14FFH         SYMBOL        ME21_22
  C:1E5EH         SYMBOL        ME21_23
  C:1E7AH         SYMBOL        ME21_23DEC
  C:168DH         SYMBOL        MEAVP
  C:0662H         SYMBOL        MECLE
  C:0669H         SYMBOL        MEFF
  C:075BH         SYMBOL        MEM10MS
  C:19F6H         SYMBOL        MEM12NO
  C:229DH         SYMBOL        MENG
  C:2124H         SYMBOL        MENU12
  C:212CH         SYMBOL        MENU13
  C:2134H         SYMBOL        MENU14
  C:213CH         SYMBOL        MENU15
  C:2144H         SYMBOL        MENU21
  C:214CH         SYMBOL        MENU22
  C:2154H         SYMBOL        MENU23
  C:215CH         SYMBOL        MENU31
  C:2164H         SYMBOL        MENU41
  C:1670H         SYMBOL        MENUOFF
  C:1C01H         SYMBOL        MENUON
BL51 BANKED LINKER/LOCATER V4.16a           02/14/2007  11:03:22  PAGE 10


  C:1653H         SYMBOL        MERR
  C:18A8H         SYMBOL        ME_14
  C:1EEFH         SYMBOL        ME_41
  C:2E6AH         SYMBOL        MIDL
  C:2956H         SYMBOL        MIGN
  C:295EH         SYMBOL        MIGNN
  C:235DH         SYMBOL        MIN4_HL
  C:239FH         SYMBOL        MING
  C:2409H         SYMBOL        MINIVIX
  C:1A5FH         SYMBOL        MLABL2
  C:1C3FH         SYMBOL        MLABL2R
  C:0756H         SYMBOL        MMM
  C:0DF3H         SYMBOL        MO220
  C:0D63H         SYMBOL        MO500I
  C:0D57H         SYMBOL        MO500R
  B:00F8H.5       SYMBOL        MODF
  C:1492H         SYMBOL        MOUTF
  C:1BCEH         SYMBOL        MOUTKMEM
  C:2BE8H         SYMBOL        MOVE28
  C:27A1H         SYMBOL        MOVE82
  C:0E60H         SYMBOL        MOVEA3
  D:003AH         SYMBOL        MOVLEFT
  D:003BH         SYMBOL        MOVRIG
  B:00F8H.1       SYMBOL        MSTEN
  C:021AH         SYMBOL        MUP1
  C:0257H         SYMBOL        MUP11
  C:0297H         SYMBOL        MUP2
  C:026CH         SYMBOL        MUP3
  C:1A2FH         SYMBOL        MVV11
  C:1A47H         SYMBOL        MVV12
  C:1191H         SYMBOL        N12DELCH
  C:113DH         SYMBOL        N4DELCH
  C:117FH         SYMBOL        N8DELCH
  C:1498H         SYMBOL        NBIMENU
  D:0038H         SYMBOL        NBLOK
  C:0358H         SYMBOL        NE05
  D:0037H         SYMBOL        NELEM
  C:2540H         SYMBOL        NEXIN
  C:24ADH         SYMBOL        NEXTMAX
  C:22D2H         SYMBOL        NEXTMEA
  C:23D4H         SYMBOL        NEXTMIN
  C:1BD1H         SYMBOL        NMEM_MENU
  C:0B57H         SYMBOL        NMINUS
  C:0ABBH         SYMBOL        NMINUS3
  C:10FDH         SYMBOL        NNDELCH
  C:158BH         SYMBOL        NNMEMB
  C:0ED7H         SYMBOL        NNNUL
  C:2E52H         SYMBOL        NO
  C:076DH         SYMBOL        NO0KEY
  C:1B72H         SYMBOL        NO10MSV
  C:1385H         SYMBOL        NO11V6
  C:1398H         SYMBOL        NO12V6
  C:13ABH         SYMBOL        NO13V6
  C:20C0H         SYMBOL        NO21P7
  C:144FH         SYMBOL        NO23RI
  C:1B6FH         SYMBOL        NO2MSV
  C:0E4CH         SYMBOL        NO2PARN
  C:1B29H         SYMBOL        NO31N
  C:147AH         SYMBOL        NO31RI
  C:0E42H         SYMBOL        NO3PARN
  C:10D0H         SYMBOL        NO4DEL
  C:0B29H         SYMBOL        NOAVK
  C:0C4AH         SYMBOL        NOAVP
  C:0EF3H         SYMBOL        NOBAVP
  C:0824H         SYMBOL        NOBEF99
BL51 BANKED LINKER/LOCATER V4.16a           02/14/2007  11:03:22  PAGE 11


  C:0245H         SYMBOL        NOBIT
  C:0EFCH         SYMBOL        NOBITIZM
  C:1508H         SYMBOL        NOBL21
  C:1512H         SYMBOL        NOBL22
  C:0F31H         SYMBOL        NOBUF
  C:1078H         SYMBOL        NOBUF0
  C:0E23H         SYMBOL        NOCHI0
  C:078CH         SYMBOL        NOCHIND
  C:0A7EH         SYMBOL        NOCHN10
  C:0A73H         SYMBOL        NOCHN2
  C:0A89H         SYMBOL        NOCHN20
  C:0E09H         SYMBOL        NODI2
  C:169EH         SYMBOL        NODI6
  C:0EAEH         SYMBOL        NODI8
  C:1F59H         SYMBOL        NODI8K
  C:1D05H         SYMBOL        NODI8_43
  C:0E0EH         SYMBOL        NODI9
  C:1D10H         SYMBOL        NODI9_43
  C:0EBDH         SYMBOL        NODIS9
  C:1F61H         SYMBOL        NODISK9
  C:2C8AH         SYMBOL        NOENDLI
  C:1570H         SYMBOL        NOEQU1
  C:1B23H         SYMBOL        NOEQU2
  C:1367H         SYMBOL        NOFIZM
  C:1340H         SYMBOL        NOFT1
  C:1073H         SYMBOL        NOFZ
  C:1734H         SYMBOL        NOH37
  C:180FH         SYMBOL        NOHNOT1
  C:1804H         SYMBOL        NOHNOT2
  C:0F2BH         SYMBOL        NOKLB
  C:0AD1H         SYMBOL        NOKORR
  C:16F6H         SYMBOL        NOLAH
  C:1D80H         SYMBOL        NOLI_43
  C:1B01H         SYMBOL        NOM31
  C:1B7AH         SYMBOL        NOM32
  C:1BA8H         SYMBOL        NOM33
  C:203DH         SYMBOL        NOMARL
  C:24C5H         SYMBOL        NOMAXI
  C:19E6H         SYMBOL        NOME11
  C:14B3H         SYMBOL        NOMEM11
  C:14C9H         SYMBOL        NOMEM12
  C:14DFH         SYMBOL        NOMEM13
  C:19E3H         SYMBOL        NOMEMK
  C:23ECH         SYMBOL        NOMINI
  C:1313H         SYMBOL        NON1C
  C:0B0EH         SYMBOL        NONULAVT
  C:10B2H         SYMBOL        NONULDEL
  C:0E27H         SYMBOL        NOP3_0
  C:0828H         SYMBOL        NOPART1
  C:0848H         SYMBOL        NOPART2
  C:0868H         SYMBOL        NOPART3
  C:0888H         SYMBOL        NOPART4
  C:13FBH         SYMBOL        NOPLUS
  C:2054H         SYMBOL        NOPOIN7
  C:2020H         SYMBOL        NOPOINT
  C:140FH         SYMBOL        NOR11
  C:00F6H         SYMBOL        NORDN
  C:0107H         SYMBOL        NORDN1
  C:154DH         SYMBOL        NORIG2
  C:158BH         SYMBOL        NORIM6
  C:1435H         SYMBOL        NORIME
  C:142FH         SYMBOL        NORIME1
  C:00F0H         SYMBOL        NORM1
  C:174CH         SYMBOL        NORR11
  C:175CH         SYMBOL        NORR12
BL51 BANKED LINKER/LOCATER V4.16a           02/14/2007  11:03:22  PAGE 12


  C:0119H         SYMBOL        NORUP
  C:011EH         SYMBOL        NORUP1
  C:0132H         SYMBOL        NORUP2
  C:0F34H         SYMBOL        NORVICH
  C:0FE9H         SYMBOL        NOSAV1
  C:0FF0H         SYMBOL        NOSAV2
  C:0FF7H         SYMBOL        NOSAV3
  C:2E8DH         SYMBOL        NOSUB
  C:1088H         SYMBOL        NOT1IN
  C:1643H         SYMBOL        NOT1_7
  C:1090H         SYMBOL        NOT2IN
  C:164EH         SYMBOL        NOT2_7
  C:1098H         SYMBOL        NOT3IN
  C:0F06H         SYMBOL        NOTAKT
  C:0BCEH         SYMBOL        NOTE21
  C:0BE9H         SYMBOL        NOTE22
  C:0C01H         SYMBOL        NOTESTIZM
  C:102BH         SYMBOL        NOTT1
  C:1036H         SYMBOL        NOTT2
  C:1041H         SYMBOL        NOTT3
  C:1055H         SYMBOL        NOTT4
  C:1060H         SYMBOL        NOTT5
  C:131AH         SYMBOL        NOT_1
  C:131AH         SYMBOL        NOT_10
  C:1417H         SYMBOL        NOVIR
  C:1351H         SYMBOL        NOVIR1
  C:234DH         SYMBOL        NOZMEA
  C:2440H         SYMBOL        NOZMIN
  C:1CF7H         SYMBOL        NOZZBL
  C:0E9EH         SYMBOL        NOZZMI
  C:1CE7H         SYMBOL        NOZZMI1
  C:1CEEH         SYMBOL        NOZZMI2
  C:1CF5H         SYMBOL        NOZZMI3
  C:1CDEH         SYMBOL        NOZZMI43
  C:0EE0H         SYMBOL        NSEC1
  C:0EE9H         SYMBOL        NSEC10
  C:0EE7H         SYMBOL        NSEC11
  D:0039H         SYMBOL        NUERR
  C:10E2H         SYMBOL        NULAVT
  N:0004H         SYMBOL        NUMSIZE
  C:2DC3H         SYMBOL        OBOARD
  C:2E0BH         SYMBOL        OBOARD1
  C:0186H         SYMBOL        OK1
  C:01A0H         SYMBOL        OK2
  C:01C4H         SYMBOL        OK3
  C:2DE9H         SYMBOL        ONBOAR1
  C:2D9DH         SYMBOL        ONBOARD
  C:1831H         SYMBOL        ONMEM11
  C:1E81H         SYMBOL        ONMEM12
  C:2000H         SYMBOL        ONMEM13
  C:296CH         SYMBOL        ONMIG
  C:128CH         SYMBOL        ONVICH
  D:00B2H         SYMBOL        OSCICN
  D:00B1H         SYMBOL        OSCXCN
  C:1D19H         SYMBOL        OUT43
  C:158BH         SYMBOL        OUT6
  C:20E9H         SYMBOL        OUT7
  C:2933H         SYMBOL        OUTA
  C:294DH         SYMBOL        OUTA2
  C:1347H         SYMBOL        OUTF
  C:140CH         SYMBOL        OUTFL
  C:183EH         SYMBOL        OUTKMEM
  C:13E5H         SYMBOL        OUTMA
  C:24CAH         SYMBOL        OUTMAX
  C:22EDH         SYMBOL        OUTMEA
BL51 BANKED LINKER/LOCATER V4.16a           02/14/2007  11:03:22  PAGE 13


  C:1E3DH         SYMBOL        OUTMENU
  C:23F1H         SYMBOL        OUTMIN
  C:0DBAH         SYMBOL        OUTR
  C:0DD6H         SYMBOL        OUTR5
  C:1EE2H         SYMBOL        OUTSKO
  C:1EDFH         SYMBOL        OUTSKO1
  C:1354H         SYMBOL        OUTVICH
  C:1215H         SYMBOL        OUTVIR
  C:21E8H         SYMBOL        OUT_KALI
  B:00D0H.2       SYMBOL        OV
  B:00D0H.0       SYMBOL        P
  D:0080H         SYMBOL        P0
  D:00A4H         SYMBOL        P0MDOUT
  D:0090H         SYMBOL        P1
  D:00BDH         SYMBOL        P1MDIN
  D:00A5H         SYMBOL        P1MDOUT
  D:00A0H         SYMBOL        P2
  D:00A6H         SYMBOL        P2MDOUT
  D:00B0H         SYMBOL        P3
  D:00ADH         SYMBOL        P3IF
  D:00A7H         SYMBOL        P3MDOUT
  D:0084H         SYMBOL        P4
  D:0085H         SYMBOL        P5
  D:0086H         SYMBOL        P6
  D:0096H         SYMBOL        P7
  D:00B5H         SYMBOL        P74OUT
  C:00DEH         SYMBOL        PACK1
  C:1F6EH         SYMBOL        PARERR
  D:00AFH         SYMBOL        PARN
  D:00A8H         SYMBOL        PAROL
  D:009AH         SYMBOL        PART
  D:00D8H         SYMBOL        PCA0CN
  D:00FAH         SYMBOL        PCA0CPH0
  D:00FBH         SYMBOL        PCA0CPH1
  D:00FCH         SYMBOL        PCA0CPH2
  D:00FDH         SYMBOL        PCA0CPH3
  D:00FEH         SYMBOL        PCA0CPH4
  D:00EAH         SYMBOL        PCA0CPL0
  D:00EBH         SYMBOL        PCA0CPL1
  D:00ECH         SYMBOL        PCA0CPL2
  D:00EDH         SYMBOL        PCA0CPL3
  D:00EEH         SYMBOL        PCA0CPL4
  D:00DAH         SYMBOL        PCA0CPM0
  D:00DBH         SYMBOL        PCA0CPM1
  D:00DCH         SYMBOL        PCA0CPM2
  D:00DDH         SYMBOL        PCA0CPM3
  D:00DEH         SYMBOL        PCA0CPM4
  D:00F9H         SYMBOL        PCA0H
  D:00E9H         SYMBOL        PCA0L
  D:00D9H         SYMBOL        PCA0MD
  D:0087H         SYMBOL        PCON
  C:2053H         SYMBOL        POIN3
  C:20BBH         SYMBOL        POINA
  C:2038H         SYMBOL        POINA1
  C:2032H         SYMBOL        POINA2
  C:20DEH         SYMBOL        POZB
  N:000CH         SYMBOL        PROD
  B:00B8H.4       SYMBOL        PS
  D:008FH         SYMBOL        PSCTL
  D:00D0H         SYMBOL        PSW
  B:00B8H.1       SYMBOL        PT0
  B:00B8H.3       SYMBOL        PT1
  B:00B8H.5       SYMBOL        PT2
  B:00B8H.0       SYMBOL        PX0
  B:00B8H.2       SYMBOL        PX1
BL51 BANKED LINKER/LOCATER V4.16a           02/14/2007  11:03:22  PAGE 14


  C:121FH         SYMBOL        PYSKST
  C:18EAH         SYMBOL        QUES
  C:0C47H         SYMBOL        QU_AVP
  N:000AH         SYMBOL        R10
  N:000BH         SYMBOL        R11
  N:0008H         SYMBOL        R8
  N:0009H         SYMBOL        R9
  C:0AE7H         SYMBOL        RAFTERK
  B:0098H.2       SYMBOL        RB8
  D:00CBH         SYMBOL        RCAP2H
  D:00CAH         SYMBOL        RCAP2L
  D:00E5H         SYMBOL        RCAP4H
  D:00E4H         SYMBOL        RCAP4L
  B:00C8H.5       SYMBOL        RCLK
  C:1943H         SYMBOL        RDDOUTF
  C:25AEH         SYMBOL        RE1
  C:0B8FH         SYMBOL        RE11_7
  C:0454H         SYMBOL        RE4BYTE
  C:2CD0H         SYMBOL        REA3_X
  D:0077H         SYMBOL        REACP
  C:25ACH         SYMBOL        READ
  C:07DFH         SYMBOL        READYACP
  C:2594H         SYMBOL        READ_X2
  C:072FH         SYMBOL        REBYTE
  C:046CH         SYMBOL        REBYTE2
  D:00D1H         SYMBOL        REF0CN
  B:0098H.4       SYMBOL        REN
  C:167FH         SYMBOL        RENDKALIB
  C:2BF4H         SYMBOL        RESAR2
  C:2BB2H         SYMBOL        RESAR8
  C:2C9DH         SYMBOL        RESA_HL
  D:008CH         SYMBOL        REZAM
  D:0088H         SYMBOL        REZAP
  C:0B3FH         SYMBOL        REZMUL
  D:0062H         SYMBOL        REZ_A
  D:006AH         SYMBOL        REZ_A0
  D:0066H         SYMBOL        REZ_A1
  D:007BH         SYMBOL        REZ_A2
  D:009CH         SYMBOL        REZ_A3
  D:00A4H         SYMBOL        REZ_AK
  D:005EH         SYMBOL        REZ_AME
  D:00C5H         SYMBOL        REZ_DEL
  D:00C9H         SYMBOL        REZ_R
  C:2CA4H         SYMBOL        RE_HL
  C:2CACH         SYMBOL        RE_HL1
  C:2CB3H         SYMBOL        RE_HL2
  C:2CBAH         SYMBOL        RE_HL3
  C:1946H         SYMBOL        RGO23NO
  C:1AFEH         SYMBOL        RGOTO7
  C:1726H         SYMBOL        RHNOR11
  C:16EDH         SYMBOL        RHNOT1
  B:0098H.0       SYMBOL        RI
  C:1438H         SYMBOL        RI21_23
  C:1432H         SYMBOL        RI6
  C:1515H         SYMBOL        RIGBLO
  C:1553H         SYMBOL        RIGBLOK
  C:1246H         SYMBOL        RIGHT2
  C:124AH         SYMBOL        RIGHT3
  C:13BDH         SYMBOL        RIKN
  C:11A1H         SYMBOL        RIZMAN
  C:1452H         SYMBOL        RI_31
  C:15C5H         SYMBOL        RKNLEFT
  C:15B6H         SYMBOL        RKNMEM
  C:15C2H         SYMBOL        RKNNUL
  C:119EH         SYMBOL        RKNOPT
BL51 BANKED LINKER/LOCATER V4.16a           02/14/2007  11:03:22  PAGE 15


  C:119BH         SYMBOL        RKNRAZR
  C:187EH         SYMBOL        RKVVOD0
  C:1198H         SYMBOL        RLABELF
  C:15BFH         SYMBOL        RLABELH
  C:16F3H         SYMBOL        RLABELI
  C:16F0H         SYMBOL        RLABELK
  C:1414H         SYMBOL        RLABELL
  C:1588H         SYMBOL        RLABELL1
  C:148FH         SYMBOL        RLABELN
  C:1DD8H         SYMBOL        RLABELP
  C:1EECH         SYMBOL        RLABELS13
  C:1EE9H         SYMBOL        RLABELS4
  C:18E4H         SYMBOL        RLABL2
  C:18E7H         SYMBOL        RLABM
  C:1BA5H         SYMBOL        RLEFCUR
  C:2925H         SYMBOL        RLER
  C:1C3CH         SYMBOL        RLIST_43
  C:0930H         SYMBOL        RMAS4
  C:1C0CH         SYMBOL        RME21_23
  C:0B21H         SYMBOL        RMO220
  C:1495H         SYMBOL        RNNMEMB
  C:0EBBH         SYMBOL        RNO3PARN
  C:0FCFH         SYMBOL        RNOBUF0
  C:0C6FH         SYMBOL        RNOCHI0
  C:174AH         SYMBOL        RNOH37
  C:1A7CH         SYMBOL        RNOM31
  C:183BH         SYMBOL        RNOMEMK
  C:0EB9H         SYMBOL        RNORVICH
  C:0F8DH         SYMBOL        RNOT1IN
  C:0B37H         SYMBOL        RNOTESTIZM
  C:1DC4H         SYMBOL        ROUSTA
  C:1DD5H         SYMBOL        ROUSTA1
  C:1195H         SYMBOL        ROUT6
  C:15BCH         SYMBOL        ROUT7
  C:1747H         SYMBOL        ROUTF
  N:0000H         SYMBOL        RR0
  N:0001H         SYMBOL        RR1
  N:0002H         SYMBOL        RR2
  N:0003H         SYMBOL        RR3
  N:0004H         SYMBOL        RR4
  N:0005H         SYMBOL        RR5
  N:0006H         SYMBOL        RR6
  N:0007H         SYMBOL        RR7
  C:2932H         SYMBOL        RRIR
  C:0C6CH         SYMBOL        RRMO220
  B:00D0H.3       SYMBOL        RS0
  B:00D0H.4       SYMBOL        RS1
  C:0E55H         SYMBOL        RSEEIND
  D:00EFH         SYMBOL        RSTSRC
  C:131EH         SYMBOL        RTIZMRI
  C:1728H         SYMBOL        RVVIZKO
  B:00F8H.4       SYMBOL        RXOVRN
  D:00A9H         SYMBOL        SADDR0
  D:00F3H         SYMBOL        SADDR1
  D:00B9H         SYMBOL        SADEN0
  D:00AEH         SYMBOL        SADEN1
  D:0034H         SYMBOL        SADIAP
  D:0032H         SYMBOL        SADIAP2
  D:0031H         SYMBOL        SADIAP3
  D:0030H         SYMBOL        SADIAP4
  D:0036H         SYMBOL        SAUS
  D:003CH         SYMBOL        SAVBA
  C:2B36H         SYMBOL        SAVEIR2
  C:04A7H         SYMBOL        SAVELTE
  D:00D3H         SYMBOL        SAVEN_BL
BL51 BANKED LINKER/LOCATER V4.16a           02/14/2007  11:03:22  PAGE 16


  D:00C0H         SYMBOL        SAVEN_BL2
  D:00C2H         SYMBOL        SAVEN_BL3
  D:00D9H         SYMBOL        SAVEN_BL4
  C:2B42H         SYMBOL        SAVER2
  C:2C69H         SYMBOL        SAVE_HL
  C:2C70H         SYMBOL        SA_HL
  C:2C8BH         SYMBOL        SA_HL1
  C:2C92H         SYMBOL        SA_HL2
  C:2C99H         SYMBOL        SA_HL3
  D:0099H         SYMBOL        SBUF0
  D:00F2H         SYMBOL        SBUF1
  D:0098H         SYMBOL        SCON0
  D:00F1H         SYMBOL        SCON1
  C:2556H         SYMBOL        SDV
  C:256AH         SYMBOL        SDV1
  C:07C0H         SYMBOL        SDVIG0
  C:07B5H         SYMBOL        SDVIG1
  C:07AAH         SYMBOL        SDVIG2
  C:079EH         SYMBOL        SDVIG3
  C:07CFH         SYMBOL        SDVIG4
  C:07D9H         SYMBOL        SDVIG6
  C:07D7H         SYMBOL        SDVM
  C:0EC0H         SYMBOL        SEEGOON
  C:0ECEH         SYMBOL        SEEIND
  C:1D13H         SYMBOL        SEE_L43
  B:00C0H.3       SYMBOL        SI
  N:0007H         SYMBOL        SIGN
  C:1E23H         SYMBOL        SKOR19
  B:00F8H.2       SYMBOL        SLVSEL
  B:0098H.7       SYMBOL        SM0
  B:0098H.6       SYMBOL        SM1
  B:0098H.5       SYMBOL        SM2
  D:00C3H         SYMBOL        SMB0ADR
  D:00C0H         SYMBOL        SMB0CN
  D:00CFH         SYMBOL        SMB0CR
  D:00C2H         SYMBOL        SMB0DAT
  D:00C1H         SYMBOL        SMB0STA
  B:00C0H.1       SYMBOL        SMBFTE
  B:00C0H.0       SYMBOL        SMBTOE
  C:17B7H         SYMBOL        SOOTV
  D:0081H         SYMBOL        SP
  D:009AH         SYMBOL        SPI0CFG
  D:009DH         SYMBOL        SPI0CKR
  D:00F8H         SYMBOL        SPI0CN
  D:009BH         SYMBOL        SPI0DAT
  B:00F8H.0       SYMBOL        SPIEN
  B:00F8H.7       SYMBOL        SPIF
  C:1EC4H         SYMBOL        SPWRI
  C:268CH         SYMBOL        SS1
  B:00C0H.5       SYMBOL        STA
  B:00C0H.4       SYMBOL        STO
  D:00B3H         SYMBOL        SUMMA
  C:082BH         SYMBOL        SUMT2
  D:00C8H         SYMBOL        T2CON
  C:1B69H         SYMBOL        T2MSME
  D:00C9H         SYMBOL        T4CON
  C:2824H         SYMBOL        TABB1_2
  C:28BCH         SYMBOL        TABN
  C:2644H         SYMBOL        TABT11
  C:2648H         SYMBOL        TABT7
  C:2646H         SYMBOL        TABT9
  C:2630H         SYMBOL        TABUS
  C:0F0BH         SYMBOL        TAKTIND
  B:0098H.3       SYMBOL        TB8
  B:00C8H.4       SYMBOL        TCLK
BL51 BANKED LINKER/LOCATER V4.16a           02/14/2007  11:03:22  PAGE 17


  D:0088H         SYMBOL        TCON
  C:2988H         SYMBOL        TE10MS
  C:28AFH         SYMBOL        TE22
  C:28B7H         SYMBOL        TE23
  C:297EH         SYMBOL        TE2MS
  C:29C4H         SYMBOL        TEAEQU0
  C:2A00H         SYMBOL        TEAVK
  C:29CEH         SYMBOL        TEBEQU0
  C:2AB4H         SYMBOL        TEBL
  C:2ABEH         SYMBOL        TEBL0
  C:2AC8H         SYMBOL        TECH
  C:2A79H         SYMBOL        TECLE
  C:2B18H         SYMBOL        TEEND
  C:2B0EH         SYMBOL        TEERR
  C:2AA0H         SYMBOL        TEFULL
  C:2AAAH         SYMBOL        TEINT
  C:2A5BH         SYMBOL        TEIZMK
  C:2A0AH         SYMBOL        TEKALIB
  C:2A51H         SYMBOL        TEKD
  C:2A95H         SYMBOL        TELIST
  C:2AE6H         SYMBOL        TEMAX
  C:2A83H         SYMBOL        TEMEM
  C:29D8H         SYMBOL        TEMENU
  C:2AF0H         SYMBOL        TEMID
  C:2ADCH         SYMBOL        TEMIN
  C:0C1EH         SYMBOL        TEMUL
  C:2726H         SYMBOL        TENMIN
  C:2AFAH         SYMBOL        TEOLI
  C:2A6FH         SYMBOL        TEOLL
  C:2B04H         SYMBOL        TEOLR
  C:2A65H         SYMBOL        TEOUT
  C:2A47H         SYMBOL        TEPAR
  C:2A3DH         SYMBOL        TES19_2
  C:2A33H         SYMBOL        TES57_6
  C:29F6H         SYMBOL        TESKOR
  C:24F1H         SYMBOL        TEST01
  C:2520H         SYMBOL        TEST02
  C:2501H         SYMBOL        TEST04
  C:24E7H         SYMBOL        TEST1
  C:2519H         SYMBOL        TEST2
  C:1E99H         SYMBOL        TEST22
  C:1E9EH         SYMBOL        TEST23
  C:250BH         SYMBOL        TEST3
  C:24F9H         SYMBOL        TEST4
  C:2523H         SYMBOL        TEST5
  C:0F23H         SYMBOL        TEST7I
  C:0F1CH         SYMBOL        TEST9I
  C:2AD2H         SYMBOL        TESTAT
  C:24E5H         SYMBOL        TESTRS
  C:1E8DH         SYMBOL        TESTS
  C:2A15H         SYMBOL        TETE11
  C:2A29H         SYMBOL        TETE7
  C:2A1FH         SYMBOL        TETE9
  C:29E2H         SYMBOL        TETESI
  C:29ECH         SYMBOL        TETESR
  C:29BAH         SYMBOL        TEVICH
  C:2A8BH         SYMBOL        TEWR
  C:297EH         SYMBOL        TEXTT
  B:0088H.5       SYMBOL        TF0
  B:0088H.7       SYMBOL        TF1
  B:00C8H.7       SYMBOL        TF2
  D:008CH         SYMBOL        TH0
  D:008DH         SYMBOL        TH1
  D:00CDH         SYMBOL        TH2
  D:00F5H         SYMBOL        TH4
BL51 BANKED LINKER/LOCATER V4.16a           02/14/2007  11:03:22  PAGE 18


  B:0098H.1       SYMBOL        TI
  C:257AH         SYMBOL        TIM
  C:257CH         SYMBOL        TIM1
  C:257FH         SYMBOL        TIM2
  C:2581H         SYMBOL        TIM3
  C:123FH         SYMBOL        TIZMRI
  D:008AH         SYMBOL        TL0
  D:008BH         SYMBOL        TL1
  D:00CCH         SYMBOL        TL2
  D:00F4H         SYMBOL        TL4
  C:17B4H         SYMBOL        TLABELI
  D:0089H         SYMBOL        TMOD
  D:00CBH         SYMBOL        TMR2RLH
  D:00CAH         SYMBOL        TMR2RLL
  D:0091H         SYMBOL        TMR3CN
  D:0095H         SYMBOL        TMR3H
  D:0094H         SYMBOL        TMR3L
  D:0093H         SYMBOL        TMR3RLH
  D:0092H         SYMBOL        TMR3RLL
  C:1E04H         SYMBOL        TOME13
  C:1E31H         SYMBOL        TOME14
  C:1E49H         SYMBOL        TOME15
  C:1DFBH         SYMBOL        TOME21
  C:1F93H         SYMBOL        TOSK19
  C:1731H         SYMBOL        TOUTF
  B:0088H.4       SYMBOL        TR0
  B:0088H.6       SYMBOL        TR1
  B:00C8H.2       SYMBOL        TR2
  C:1321H         SYMBOL        TTOUT
  B:00F8H.3       SYMBOL        TXBSY
  C:009EH         SYMBOL        UNPACK1
  C:00BAH         SYMBOL        UNPACK2
  C:0138H         SYMBOL        UP1
  C:014BH         SYMBOL        UP2
  C:0161H         SYMBOL        UP2A
  C:2755H         SYMBOL        UPA
  C:2765H         SYMBOL        UPA1
  C:2745H         SYMBOL        UPA2
  C:2C41H         SYMBOL        UPAA
  C:27B0H         SYMBOL        UPAA4
  C:27C0H         SYMBOL        UPAB
  C:274FH         SYMBOL        UPAK
  C:2C1BH         SYMBOL        UPAK1
  C:273FH         SYMBOL        UPAK2
  C:275FH         SYMBOL        UPAK3
  C:2C3BH         SYMBOL        UPAK4
  C:27AAH         SYMBOL        UPAKA
  C:27BAH         SYMBOL        UPAKB
  C:1F0BH         SYMBOL        UPAV1
  C:1FC2H         SYMBOL        UPAV2
  C:2C2DH         SYMBOL        UPK1
  C:2C2EH         SYMBOL        UPK2
  C:2444H         SYMBOL        VICHMAX
  C:2288H         SYMBOL        VICHMEAN
  C:236BH         SYMBOL        VICHMIN
  D:00B1H         SYMBOL        VICHR
  C:0F79H         SYMBOL        VIG0
  C:0F87H         SYMBOL        VIG4
  C:12F8H         SYMBOL        VIOUT
  C:172AH         SYMBOL        VIOUTF
  C:126BH         SYMBOL        VIT2_10
  C:1BC8H         SYMBOL        VODM11_15
  D:00D5H         SYMBOL        VOLUME
  C:1E84H         SYMBOL        VV21_23
  C:28F3H         SYMBOL        VVCHIBL
BL51 BANKED LINKER/LOCATER V4.16a           02/14/2007  11:03:22  PAGE 19


  C:28CEH         SYMBOL        VVCHIF
  C:1B29H         SYMBOL        VVINTE
  C:1781H         SYMBOL        VVIZKO
  C:1FB5H         SYMBOL        VVKALI52
  C:1F6BH         SYMBOL        VVMENU
  C:28EEH         SYMBOL        VVNOL23
  C:28E9H         SYMBOL        VVNOL31
  C:28E7H         SYMBOL        VVNOL41
  C:1B61H         SYMBOL        VVOD2_10
  C:1D3FH         SYMBOL        VVOD43
  C:1DDBH         SYMBOL        VVODM11_15
  C:1D9CH         SYMBOL        VVOSTA
  C:1DB0H         SYMBOL        VVOSTAD
  C:137DH         SYMBOL        VVRR6
  B:00F8H.6       SYMBOL        WCOL
  D:00FFH         SYMBOL        WDTCN
  D:00B8H         SYMBOL        WORK
  C:2C08H         SYMBOL        WR1
  C:2C05H         SYMBOL        WRITE
  C:2585H         SYMBOL        WRITED_X1
  C:2584H         SYMBOL        WRITE_X1
  C:0480H         SYMBOL        WRPAGE
  C:0483H         SYMBOL        WW5
  D:00E1H         SYMBOL        XBR0
  D:00E2H         SYMBOL        XBR1
  D:00E3H         SYMBOL        XBR2
  C:2B22H         SYMBOL        XCIKLWR
  N:000CH         SYMBOL        XTEMP
  C:16C2H         SYMBOL        YBNUL
  C:2E70H         SYMBOL        YES
  C:077AH         SYMBOL        YES0KEY
  C:0787H         SYMBOL        YES0KEY1
  C:0C79H         SYMBOL        YESAVP
  C:0FD4H         SYMBOL        YESBUF
  C:0F25H         SYMBOL        YESIND
  C:0FD2H         SYMBOL        YESPRD
  C:261FH         SYMBOL        YESTEST
  C:1076H         SYMBOL        YESTT5
  C:0CC2H         SYMBOL        YESVICH
  C:21F1H         SYMBOL        YESVI_KM
  C:2169H         SYMBOL        YESVI_KR
  C:0659H         SYMBOL        YST1
  C:0651H         SYMBOL        YST19
  C:26A4H         SYMBOL        Z01S
  C:26B1H         SYMBOL        Z05S
  C:2675H         SYMBOL        Z100
  C:2683H         SYMBOL        Z15
  C:2697H         SYMBOL        Z1S
  C:2554H         SYMBOL        ZAPADC
  C:2BA4H         SYMBOL        ZCMP
  C:2B71H         SYMBOL        ZDIV
  C:00B3H         SYMBOL        ZER1
  C:00D4H         SYMBOL        ZER2
  C:2B67H         SYMBOL        ZMUL
  B:0020H.2       SYMBOL        ZNMAT
  C:0791H         SYMBOL        ZNPLUS
  C:2685H         SYMBOL        ZZ
  C:26A0H         SYMBOL        Z_01S
  C:26ADH         SYMBOL        Z_05S
  C:2673H         SYMBOL        Z_100
  C:2681H         SYMBOL        Z_15
  C:268AH         SYMBOL        Z_1MS
  C:2693H         SYMBOL        Z_1S
  C:267CH         SYMBOL        Z_5
  C:2C00H         SYMBOL        Z_9
BL51 BANKED LINKER/LOCATER V4.16a           02/14/2007  11:03:22  PAGE 20


  C:0000H         LINE#         15
  C:0003H         LINE#         18
  C:000BH         LINE#         20
  C:0013H         LINE#         22
  C:001BH         LINE#         24
  C:0023H         LINE#         26
  C:002BH         LINE#         28
  C:0033H         LINE#         30
  C:003BH         LINE#         32
  C:0043H         LINE#         34
  C:004BH         LINE#         36
  C:0053H         LINE#         38
  C:005BH         LINE#         41
  C:0063H         LINE#         43
  C:006BH         LINE#         45
  C:0073H         LINE#         47
  C:0093H         LINE#         49
  C:009BH         LINE#         52
  C:05C9H         LINE#         227
  C:05CCH         LINE#         228
  C:05CFH         LINE#         229
  C:05D2H         LINE#         230
  C:05D5H         LINE#         231
  C:05D8H         LINE#         232
  C:05DBH         LINE#         234
  C:05DEH         LINE#         235
  C:05E1H         LINE#         236
  C:05E4H         LINE#         238
  C:05E7H         LINE#         239
  C:05EAH         LINE#         240
  C:05EDH         LINE#         241
  C:05F0H         LINE#         242
  C:05F3H         LINE#         243
  C:05F6H         LINE#         244
  C:05F9H         LINE#         245
  C:05FCH         LINE#         246
  C:05FFH         LINE#         247
  C:0602H         LINE#         248
  C:0605H         LINE#         250
  C:0608H         LINE#         251
  C:060BH         LINE#         252
  C:060EH         LINE#         256
  C:0610H         LINE#         257
  C:0613H         LINE#         259
  C:0616H         LINE#         260
  C:0619H         LINE#         261
  C:061CH         LINE#         263
  C:061EH         LINE#         264
  C:0620H         LINE#         266
  C:0623H         LINE#         269
  C:0626H         LINE#         270
  C:0629H         LINE#         271
  C:062CH         LINE#         272
  C:062FH         LINE#         274
  C:0632H         LINE#         275
  C:0635H         LINE#         276
  C:0638H         LINE#         277
  C:063BH         LINE#         278
  C:063EH         LINE#         279
  C:0640H         LINE#         280
  C:0642H         LINE#         281
  C:0645H         LINE#         282
  C:0647H         LINE#         283
  C:064AH         LINE#         284
  C:064CH         LINE#         285
BL51 BANKED LINKER/LOCATER V4.16a           02/14/2007  11:03:22  PAGE 21


  C:064FH         LINE#         286
  C:0651H         LINE#         287
  C:0654H         LINE#         288
  C:0656H         LINE#         289
  C:0659H         LINE#         291
  C:065CH         LINE#         293
  C:065FH         LINE#         295
  C:0660H         LINE#         296
  C:0662H         LINE#         297
  C:0663H         LINE#         298
  C:0664H         LINE#         299
  C:0667H         LINE#         300
  C:0669H         LINE#         301
  C:066AH         LINE#         302
  C:066BH         LINE#         303
  C:066CH         LINE#         304
  C:066FH         LINE#         305
  C:0672H         LINE#         307
  C:0675H         LINE#         308
  C:0676H         LINE#         309
  C:0677H         LINE#         310
  C:0678H         LINE#         311
  C:067AH         LINE#         312
  C:067DH         LINE#         314
  C:067FH         LINE#         315
  C:0681H         LINE#         316
  C:0682H         LINE#         317
  C:0684H         LINE#         319
  C:0686H         LINE#         320
  C:0688H         LINE#         321
  C:0689H         LINE#         322
  C:068BH         LINE#         324
  C:068DH         LINE#         325
  C:068FH         LINE#         329
  C:0691H         LINE#         330
  C:0693H         LINE#         331
  C:0695H         LINE#         332
  C:0697H         LINE#         333
  C:0699H         LINE#         334
  C:069BH         LINE#         335
  C:069EH         LINE#         336
  C:06A0H         LINE#         337
  C:06A2H         LINE#         338
  C:06A4H         LINE#         339
  C:06A6H         LINE#         340
  C:06A8H         LINE#         342
  C:06AAH         LINE#         343
  C:06ACH         LINE#         345
  C:06AFH         LINE#         346
  C:06B2H         LINE#         347
  C:06B4H         LINE#         348
  C:06B7H         LINE#         349
  C:06B9H         LINE#         350
  C:06BCH         LINE#         351
  C:06BEH         LINE#         352
  C:06C1H         LINE#         353
  C:06C3H         LINE#         354
  C:06C6H         LINE#         355
  C:06C9H         LINE#         356
  C:06CBH         LINE#         357
  C:06CDH         LINE#         358
  C:06CEH         LINE#         359
  C:06CFH         LINE#         360
  C:06D1H         LINE#         361
  C:06D2H         LINE#         363
BL51 BANKED LINKER/LOCATER V4.16a           02/14/2007  11:03:22  PAGE 22


  C:06D5H         LINE#         364
  C:06D7H         LINE#         365
  C:06D9H         LINE#         366
  C:06DAH         LINE#         367
  C:06DBH         LINE#         368
  C:06DDH         LINE#         369
  C:06DEH         LINE#         370
  C:06E1H         LINE#         371
  C:06E3H         LINE#         372
  C:06E5H         LINE#         373
  C:06E6H         LINE#         374
  C:06E7H         LINE#         375
  C:06E9H         LINE#         376
  C:06EAH         LINE#         377
  C:06EDH         LINE#         378
  C:06EFH         LINE#         379
  C:06F1H         LINE#         380
  C:06F2H         LINE#         381
  C:06F3H         LINE#         382
  C:06F5H         LINE#         383
  C:06F6H         LINE#         384
  C:06F9H         LINE#         385
  C:06FCH         LINE#         386
  C:06FEH         LINE#         387
  C:0700H         LINE#         388
  C:0701H         LINE#         389
  C:0703H         LINE#         390
  C:0705H         LINE#         392
  C:0707H         LINE#         393
  C:0708H         LINE#         394
  C:070BH         LINE#         395
  C:070EH         LINE#         396
  C:0711H         LINE#         399
  C:0713H         LINE#         400
  C:0715H         LINE#         401
  C:0716H         LINE#         402
  C:0719H         LINE#         403
  C:071CH         LINE#         404
  C:071FH         LINE#         407
  C:0722H         LINE#         408
  C:0725H         LINE#         410
  C:0727H         LINE#         411
  C:0729H         LINE#         412
  C:072CH         LINE#         413
  C:072FH         LINE#         415
  C:0731H         LINE#         416
  C:0734H         LINE#         417
  C:0737H         LINE#         427
  C:0739H         LINE#         428
  C:073CH         LINE#         430
  C:073FH         LINE#         431
  C:0741H         LINE#         432
  C:0744H         LINE#         433
  C:0746H         LINE#         434
  C:0749H         LINE#         435
  C:074BH         LINE#         437
  C:074DH         LINE#         438
  C:074EH         LINE#         439
  C:0751H         LINE#         440
  C:0753H         LINE#         441
  C:0755H         LINE#         442
  C:0756H         LINE#         444
  C:0757H         LINE#         445
  C:0759H         LINE#         446
  C:075BH         LINE#         448
BL51 BANKED LINKER/LOCATER V4.16a           02/14/2007  11:03:22  PAGE 23


  C:075EH         LINE#         449
  C:0760H         LINE#         453
  C:0762H         LINE#         454
  C:0764H         LINE#         455
  C:0766H         LINE#         456
  C:0768H         LINE#         457
  C:076BH         LINE#         458
  C:076DH         LINE#         462
  C:076EH         LINE#         463
  C:0770H         LINE#         464
  C:0772H         LINE#         465
  C:0774H         LINE#         466
  C:0776H         LINE#         467
  C:0778H         LINE#         468
  C:077AH         LINE#         471
  C:077DH         LINE#         473
  C:077FH         LINE#         474
  C:0781H         LINE#         475
  C:0784H         LINE#         476
  C:0787H         LINE#         477
  C:078AH         LINE#         480
  C:078CH         LINE#         482
  C:078DH         LINE#         483
  C:078FH         LINE#         484
  C:0791H         LINE#         486
  C:0793H         LINE#         487
  C:0795H         LINE#         488
  C:0796H         LINE#         489
  C:0797H         LINE#         490
  C:0799H         LINE#         494
  C:079BH         LINE#         495
  C:079CH         LINE#         496
  C:079EH         LINE#         497
  C:079FH         LINE#         498
  C:07A0H         LINE#         499
  C:07A2H         LINE#         500
  C:07A3H         LINE#         501
  C:07A4H         LINE#         502
  C:07A5H         LINE#         503
  C:07A7H         LINE#         504
  C:07A8H         LINE#         505
  C:07AAH         LINE#         506
  C:07ABH         LINE#         507
  C:07ACH         LINE#         508
  C:07AEH         LINE#         509
  C:07AFH         LINE#         510
  C:07B1H         LINE#         511
  C:07B3H         LINE#         513
  C:07B5H         LINE#         514
  C:07B6H         LINE#         515
  C:07B7H         LINE#         516
  C:07B9H         LINE#         517
  C:07BAH         LINE#         518
  C:07BCH         LINE#         519
  C:07BEH         LINE#         521
  C:07C0H         LINE#         522
  C:07C1H         LINE#         523
  C:07C2H         LINE#         524
  C:07C4H         LINE#         525
  C:07C5H         LINE#         526
  C:07C7H         LINE#         527
  C:07C9H         LINE#         529
  C:07CCH         LINE#         530
  C:07CDH         LINE#         531
  C:07CFH         LINE#         532
BL51 BANKED LINKER/LOCATER V4.16a           02/14/2007  11:03:22  PAGE 24


  C:07D0H         LINE#         533
  C:07D1H         LINE#         534
  C:07D3H         LINE#         535
  C:07D5H         LINE#         536
  C:07D7H         LINE#         538
  C:07D9H         LINE#         539
  C:07DAH         LINE#         540
  C:07DBH         LINE#         541
  C:07DDH         LINE#         542
  C:07DFH         LINE#         547
  C:07E1H         LINE#         548
  C:07E2H         LINE#         549
  C:07E5H         LINE#         550
  C:07E7H         LINE#         553
  C:07E9H         LINE#         554
  C:07EBH         LINE#         555
  C:07EEH         LINE#         557
  C:07F0H         LINE#         558
  C:07F3H         LINE#         559
  C:07F5H         LINE#         560
  C:07F8H         LINE#         561
  C:07FAH         LINE#         562
  C:07FDH         LINE#         563
  C:07FFH         LINE#         564
  C:0801H         LINE#         565
  C:0803H         LINE#         566
  C:0806H         LINE#         568
  C:0809H         LINE#         569
  C:080CH         LINE#         570
  C:080FH         LINE#         571
  C:0811H         LINE#         572
  C:0814H         LINE#         573
  C:0816H         LINE#         574
  C:0819H         LINE#         576
  C:081BH         LINE#         577
  C:081EH         LINE#         579
  C:0820H         LINE#         580
  C:0822H         LINE#         581
  C:0824H         LINE#         582
  C:0825H         LINE#         583
  C:0828H         LINE#         589
  C:082BH         LINE#         592
  C:082DH         LINE#         593
  C:0830H         LINE#         594
  C:0832H         LINE#         595
  C:0835H         LINE#         596
  C:0837H         LINE#         597
  C:083AH         LINE#         598
  C:083CH         LINE#         599
  C:083EH         LINE#         600
  C:0840H         LINE#         601
  C:0843H         LINE#         603
  C:0846H         LINE#         604
  C:0848H         LINE#         608
  C:084BH         LINE#         610
  C:084DH         LINE#         611
  C:0850H         LINE#         612
  C:0852H         LINE#         613
  C:0855H         LINE#         614
  C:0857H         LINE#         615
  C:085AH         LINE#         616
  C:085CH         LINE#         617
  C:085EH         LINE#         618
  C:0860H         LINE#         619
  C:0863H         LINE#         621
BL51 BANKED LINKER/LOCATER V4.16a           02/14/2007  11:03:22  PAGE 25


  C:0866H         LINE#         622
  C:0868H         LINE#         624
  C:086BH         LINE#         626
  C:086DH         LINE#         627
  C:0870H         LINE#         628
  C:0872H         LINE#         629
  C:0875H         LINE#         630
  C:0877H         LINE#         631
  C:087AH         LINE#         632
  C:087CH         LINE#         633
  C:087EH         LINE#         634
  C:0880H         LINE#         635
  C:0883H         LINE#         637
  C:0886H         LINE#         638
  C:0888H         LINE#         641
  C:088AH         LINE#         642
  C:088CH         LINE#         643
  C:088FH         LINE#         644
  C:0891H         LINE#         645
  C:0894H         LINE#         649
  C:0896H         LINE#         650
  C:0899H         LINE#         651
  C:089CH         LINE#         652
  C:089FH         LINE#         654
  C:08A1H         LINE#         655
  C:08A4H         LINE#         656
  C:08A7H         LINE#         657
  C:08AAH         LINE#         659
  C:08ADH         LINE#         660
  C:08B0H         LINE#         661
  C:08B3H         LINE#         663
  C:08B6H         LINE#         664
  C:08B9H         LINE#         665
  C:08BCH         LINE#         666
  C:08BFH         LINE#         667
  C:08C2H         LINE#         668
  C:08C5H         LINE#         669
  C:08C8H         LINE#         670
  C:08CBH         LINE#         672
  C:08CEH         LINE#         673
  C:08D1H         LINE#         675
  C:08D4H         LINE#         676
  C:08D7H         LINE#         678
  C:08DAH         LINE#         679
  C:08DDH         LINE#         681
  C:08E0H         LINE#         682
  C:08E3H         LINE#         684
  C:08E6H         LINE#         685
  C:08E9H         LINE#         687
  C:08ECH         LINE#         690
  C:08EEH         LINE#         691
  C:08F1H         LINE#         693
  C:08F4H         LINE#         694
  C:08F7H         LINE#         696
  C:08FAH         LINE#         697
  C:08FDH         LINE#         698
  C:0900H         LINE#         699
  C:0903H         LINE#         700
  C:0906H         LINE#         701
  C:0909H         LINE#         702
  C:090CH         LINE#         703
  C:090FH         LINE#         704
  C:0912H         LINE#         705
  C:0915H         LINE#         706
  C:0918H         LINE#         707
BL51 BANKED LINKER/LOCATER V4.16a           02/14/2007  11:03:22  PAGE 26


  C:091BH         LINE#         708
  C:091EH         LINE#         709
  C:0921H         LINE#         710
  C:0924H         LINE#         711
  C:0927H         LINE#         712
  C:092AH         LINE#         713
  C:092DH         LINE#         714
  C:0930H         LINE#         716
  C:0933H         LINE#         718
  C:0936H         LINE#         719
  C:0939H         LINE#         720
  C:093CH         LINE#         721
  C:093FH         LINE#         722
  C:0942H         LINE#         723
  C:0945H         LINE#         724
  C:0948H         LINE#         725
  C:094BH         LINE#         727
  C:094EH         LINE#         728
  C:0951H         LINE#         730
  C:0954H         LINE#         731
  C:0957H         LINE#         733
  C:095AH         LINE#         734
  C:095DH         LINE#         736
  C:0960H         LINE#         737
  C:0963H         LINE#         739
  C:0966H         LINE#         740
  C:0969H         LINE#         742
  C:096CH         LINE#         743
  C:096FH         LINE#         744
  C:0972H         LINE#         746
  C:0975H         LINE#         747
  C:0978H         LINE#         748
  C:097BH         LINE#         749
  C:097EH         LINE#         750
  C:0981H         LINE#         751
  C:0984H         LINE#         752
  C:0987H         LINE#         754
  C:098AH         LINE#         755
  C:098DH         LINE#         757
  C:0990H         LINE#         758
  C:0993H         LINE#         760
  C:0996H         LINE#         761
  C:0999H         LINE#         763
  C:099CH         LINE#         764
  C:099FH         LINE#         766
  C:09A2H         LINE#         767
  C:09A5H         LINE#         769
  C:09A8H         LINE#         772
  C:09AAH         LINE#         773
  C:09ADH         LINE#         775
  C:09B0H         LINE#         776
  C:09B3H         LINE#         778
  C:09B6H         LINE#         779
  C:09B9H         LINE#         780
  C:09BCH         LINE#         781
  C:09BFH         LINE#         782
  C:09C2H         LINE#         783
  C:09C5H         LINE#         784
  C:09C8H         LINE#         785
  C:09CBH         LINE#         786
  C:09CEH         LINE#         787
  C:09D1H         LINE#         788
  C:09D4H         LINE#         789
  C:09D7H         LINE#         790
  C:09DAH         LINE#         791
BL51 BANKED LINKER/LOCATER V4.16a           02/14/2007  11:03:22  PAGE 27


  C:09DDH         LINE#         792
  C:09E0H         LINE#         793
  C:09E3H         LINE#         794
  C:09E6H         LINE#         795
  C:09E9H         LINE#         797
  C:09ECH         LINE#         798
  C:09EFH         LINE#         799
  C:09F2H         LINE#         800
  C:09F5H         LINE#         801
  C:09F8H         LINE#         802
  C:09FBH         LINE#         803
  C:09FEH         LINE#         804
  C:0A01H         LINE#         805
  C:0A04H         LINE#         806
  C:0A07H         LINE#         807
  C:0A0AH         LINE#         808
  C:0A0DH         LINE#         809
  C:0A10H         LINE#         810
  C:0A13H         LINE#         811
  C:0A16H         LINE#         812
  C:0A19H         LINE#         813
  C:0A1CH         LINE#         814
  C:0A1FH         LINE#         815
  C:0A22H         LINE#         816
  C:0A25H         LINE#         817
  C:0A27H         LINE#         820
  C:0A2AH         LINE#         821
  C:0A2DH         LINE#         822
  C:0A30H         LINE#         823
  C:0A33H         LINE#         824
  C:0A36H         LINE#         825
  C:0A39H         LINE#         828
  C:0A3BH         LINE#         829
  C:0A3EH         LINE#         831
  C:0A41H         LINE#         832
  C:0A44H         LINE#         834
  C:0A47H         LINE#         835
  C:0A4AH         LINE#         836
  C:0A4DH         LINE#         837
  C:0A50H         LINE#         838
  C:0A53H         LINE#         839
  C:0A56H         LINE#         843
  C:0A58H         LINE#         844
  C:0A59H         LINE#         845
  C:0A5AH         LINE#         846
  C:0A5DH         LINE#         848
  C:0A60H         LINE#         849
  C:0A62H         LINE#         850
  C:0A65H         LINE#         851
  C:0A67H         LINE#         852
  C:0A68H         LINE#         854
  C:0A6BH         LINE#         855
  C:0A6EH         LINE#         856
  C:0A71H         LINE#         857
  C:0A73H         LINE#         859
  C:0A76H         LINE#         860
  C:0A79H         LINE#         861
  C:0A7CH         LINE#         862
  C:0A7EH         LINE#         864
  C:0A81H         LINE#         865
  C:0A84H         LINE#         866
  C:0A87H         LINE#         867
  C:0A89H         LINE#         869
  C:0A8CH         LINE#         870
  C:0A8FH         LINE#         871
BL51 BANKED LINKER/LOCATER V4.16a           02/14/2007  11:03:22  PAGE 28


  C:0A91H         LINE#         873
  C:0A94H         LINE#         874
  C:0A95H         LINE#         875
  C:0A97H         LINE#         876
  C:0A99H         LINE#         877
  C:0A9BH         LINE#         880
  C:0A9EH         LINE#         887
  C:0AA0H         LINE#         888
  C:0AA3H         LINE#         892
  C:0AA4H         LINE#         893
  C:0AA6H         LINE#         894
  C:0AA8H         LINE#         895
  C:0AA9H         LINE#         896
  C:0AABH         LINE#         898
  C:0AAEH         LINE#         899
  C:0AB0H         LINE#         900
  C:0AB3H         LINE#         902
  C:0AB5H         LINE#         903
  C:0AB6H         LINE#         904
  C:0AB9H         LINE#         905
  C:0ABBH         LINE#         906
  C:0ABEH         LINE#         907
  C:0AC1H         LINE#         908
  C:0AC3H         LINE#         909
  C:0AC6H         LINE#         910
  C:0AC8H         LINE#         913
  C:0ACAH         LINE#         914
  C:0ACBH         LINE#         915
  C:0ACEH         LINE#         917
  C:0AD1H         LINE#         921
  C:0AD3H         LINE#         922
  C:0AD4H         LINE#         923
  C:0AD7H         LINE#         924
  C:0ADAH         LINE#         925
  C:0ADDH         LINE#         926
  C:0ADFH         LINE#         927
  C:0AE2H         LINE#         928
  C:0AE4H         LINE#         930
  C:0AE7H         LINE#         932
  C:0AE9H         LINE#         934
  C:0AEAH         LINE#         935
  C:0AECH         LINE#         936
  C:0AEEH         LINE#         937
  C:0AEFH         LINE#         938
  C:0AF1H         LINE#         949
  C:0AF3H         LINE#         950
  C:0AF6H         LINE#         952
  C:0AF9H         LINE#         953
  C:0AFBH         LINE#         954
  C:0AFEH         LINE#         955
  C:0B00H         LINE#         956
  C:0B03H         LINE#         957
  C:0B06H         LINE#         958
  C:0B08H         LINE#         959
  C:0B0BH         LINE#         960
  C:0B0EH         LINE#         962
  C:0B10H         LINE#         963
  C:0B11H         LINE#         964
  C:0B13H         LINE#         965
  C:0B15H         LINE#         966
  C:0B17H         LINE#         967
  C:0B1AH         LINE#         968
  C:0B1CH         LINE#         969
  C:0B1FH         LINE#         970
  C:0B21H         LINE#         972
BL51 BANKED LINKER/LOCATER V4.16a           02/14/2007  11:03:22  PAGE 29


  C:0B24H         LINE#         974
  C:0B26H         LINE#         975
  C:0B29H         LINE#         977
  C:0B2BH         LINE#         978
  C:0B2CH         LINE#         979
  C:0B2EH         LINE#         980
  C:0B30H         LINE#         982
  C:0B32H         LINE#         983
  C:0B35H         LINE#         984
  C:0B37H         LINE#         986
  C:0B3AH         LINE#         987
  C:0B3CH         LINE#         988
  C:0B3FH         LINE#         994
  C:0B41H         LINE#         995
  C:0B44H         LINE#         996
  C:0B47H         LINE#         997
  C:0B49H         LINE#         998
  C:0B4CH         LINE#         999
  C:0B4FH         LINE#         1000
  C:0B51H         LINE#         1001
  C:0B52H         LINE#         1002
  C:0B55H         LINE#         1005
  C:0B57H         LINE#         1006
  C:0B5AH         LINE#         1007
  C:0B5DH         LINE#         1008
  C:0B5FH         LINE#         1009
  C:0B62H         LINE#         1013
  C:0B63H         LINE#         1014
  C:0B65H         LINE#         1015
  C:0B66H         LINE#         1016
  C:0B69H         LINE#         1017
  C:0B6CH         LINE#         1018
  C:0B6FH         LINE#         1019
  C:0B71H         LINE#         1021
  C:0B74H         LINE#         1022
  C:0B76H         LINE#         1023
  C:0B79H         LINE#         1024
  C:0B7BH         LINE#         1025
  C:0B7DH         LINE#         1026
  C:0B80H         LINE#         1027
  C:0B83H         LINE#         1028
  C:0B85H         LINE#         1029
  C:0B87H         LINE#         1030
  C:0B89H         LINE#         1031
  C:0B8BH         LINE#         1032
  C:0B8DH         LINE#         1033
  C:0B8FH         LINE#         1034
  C:0B92H         LINE#         1035
  C:0B95H         LINE#         1036
  C:0B98H         LINE#         1037
  C:0B9AH         LINE#         1038
  C:0B9CH         LINE#         1039
  C:0B9EH         LINE#         1040
  C:0BA0H         LINE#         1041
  C:0BA3H         LINE#         1046
  C:0BA5H         LINE#         1047
  C:0BA7H         LINE#         1048
  C:0BA9H         LINE#         1049
  C:0BABH         LINE#         1050
  C:0BADH         LINE#         1051
  C:0BAFH         LINE#         1052
  C:0BB2H         LINE#         1053
  C:0BB5H         LINE#         1054
  C:0BB8H         LINE#         1055
  C:0BBAH         LINE#         1056
BL51 BANKED LINKER/LOCATER V4.16a           02/14/2007  11:03:22  PAGE 30


  C:0BBCH         LINE#         1057
  C:0BBEH         LINE#         1058
  C:0BC0H         LINE#         1059
  C:0BC3H         LINE#         1060
  C:0BC6H         LINE#         1061
  C:0BC9H         LINE#         1062
  C:0BCCH         LINE#         1064
  C:0BCEH         LINE#         1065
  C:0BD1H         LINE#         1066
  C:0BD3H         LINE#         1067
  C:0BD5H         LINE#         1068
  C:0BD8H         LINE#         1069
  C:0BDBH         LINE#         1070
  C:0BDDH         LINE#         1071
  C:0BDFH         LINE#         1072
  C:0BE1H         LINE#         1073
  C:0BE3H         LINE#         1074
  C:0BE5H         LINE#         1075
  C:0BE7H         LINE#         1076
  C:0BE9H         LINE#         1077
  C:0BEBH         LINE#         1078
  C:0BEDH         LINE#         1079
  C:0BF0H         LINE#         1080
  C:0BF3H         LINE#         1081
  C:0BF5H         LINE#         1082
  C:0BF7H         LINE#         1083
  C:0BF9H         LINE#         1084
  C:0BFBH         LINE#         1085
  C:0BFDH         LINE#         1086
  C:0BFFH         LINE#         1087
  C:0C01H         LINE#         1090
  C:0C04H         LINE#         1091
  C:0C07H         LINE#         1092
  C:0C0AH         LINE#         1093
  C:0C0CH         LINE#         1094
  C:0C0FH         LINE#         1095
  C:0C12H         LINE#         1097
  C:0C15H         LINE#         1098
  C:0C18H         LINE#         1099
  C:0C1BH         LINE#         1100
  C:0C1EH         LINE#         1101
  C:0C21H         LINE#         1102
  C:0C23H         LINE#         1103
  C:0C26H         LINE#         1105
  C:0C29H         LINE#         1107
  C:0C2CH         LINE#         1108
  C:0C2EH         LINE#         1109
  C:0C31H         LINE#         1110
  C:0C34H         LINE#         1111
  C:0C37H         LINE#         1112
  C:0C3AH         LINE#         1113
  C:0C3DH         LINE#         1114
  C:0C3FH         LINE#         1117
  C:0C42H         LINE#         1118
  C:0C45H         LINE#         1119
  C:0C47H         LINE#         1120
  C:0C4AH         LINE#         1123
  C:0C4CH         LINE#         1124
  C:0C4FH         LINE#         1125
  C:0C51H         LINE#         1126
  C:0C54H         LINE#         1128
  C:0C56H         LINE#         1129
  C:0C59H         LINE#         1130
  C:0C5CH         LINE#         1131
  C:0C5EH         LINE#         1132
BL51 BANKED LINKER/LOCATER V4.16a           02/14/2007  11:03:22  PAGE 31


  C:0C61H         LINE#         1134
  C:0C64H         LINE#         1136
  C:0C66H         LINE#         1137
  C:0C69H         LINE#         1138
  C:0C6CH         LINE#         1140
  C:0C6FH         LINE#         1141
  C:0C72H         LINE#         1142
  C:0C74H         LINE#         1143
  C:0C77H         LINE#         1144
  C:0C79H         LINE#         1146
  C:0C7AH         LINE#         1147
  C:0C7CH         LINE#         1148
  C:0C7DH         LINE#         1149
  C:0C80H         LINE#         1150
  C:0C83H         LINE#         1151
  C:0C86H         LINE#         1152
  C:0C88H         LINE#         1153
  C:0C8AH         LINE#         1154
  C:0C8DH         LINE#         1155
  C:0C8FH         LINE#         1157
  C:0C90H         LINE#         1158
  C:0C93H         LINE#         1159
  C:0C94H         LINE#         1161
  C:0C97H         LINE#         1163
  C:0C9AH         LINE#         1164
  C:0C9CH         LINE#         1165
  C:0C9FH         LINE#         1166
  C:0CA1H         LINE#         1167
  C:0CA4H         LINE#         1168
  C:0CA6H         LINE#         1169
  C:0CA8H         LINE#         1171
  C:0CAAH         LINE#         1172
  C:0CACH         LINE#         1173
  C:0CAEH         LINE#         1174
  C:0CB0H         LINE#         1175
  C:0CB2H         LINE#         1176
  C:0CB4H         LINE#         1177
  C:0CB7H         LINE#         1178
  C:0CBAH         LINE#         1179
  C:0CBDH         LINE#         1180
  C:0CC0H         LINE#         1181
  C:0CC2H         LINE#         1188
  C:0CC4H         LINE#         1189
  C:0CC7H         LINE#         1191
  C:0CCAH         LINE#         1192
  C:0CCBH         LINE#         1193
  C:0CCDH         LINE#         1194
  C:0CCEH         LINE#         1197
  C:0CD1H         LINE#         1198
  C:0CD4H         LINE#         1199
  C:0CD7H         LINE#         1200
  C:0CD9H         LINE#         1201
  C:0CDCH         LINE#         1202
  C:0CDFH         LINE#         1203
  C:0CE2H         LINE#         1204
  C:0CE4H         LINE#         1206
  C:0CE7H         LINE#         1207
  C:0CE9H         LINE#         1208
  C:0CEBH         LINE#         1209
  C:0CEDH         LINE#         1210
  C:0CEFH         LINE#         1211
  C:0CF1H         LINE#         1212
  C:0CF4H         LINE#         1213
  C:0CF7H         LINE#         1214
  C:0CFAH         LINE#         1215
BL51 BANKED LINKER/LOCATER V4.16a           02/14/2007  11:03:22  PAGE 32


  C:0CFDH         LINE#         1216
  C:0CFFH         LINE#         1217
  C:0D02H         LINE#         1218
  C:0D05H         LINE#         1219
  C:0D08H         LINE#         1220
  C:0D0AH         LINE#         1221
  C:0D0CH         LINE#         1222
  C:0D0EH         LINE#         1223
  C:0D10H         LINE#         1224
  C:0D13H         LINE#         1225
  C:0D15H         LINE#         1226
  C:0D18H         LINE#         1227
  C:0D1BH         LINE#         1229
  C:0D1DH         LINE#         1230
  C:0D20H         LINE#         1232
  C:0D22H         LINE#         1234
  C:0D24H         LINE#         1235
  C:0D25H         LINE#         1236
  C:0D28H         LINE#         1238
  C:0D2AH         LINE#         1239
  C:0D2DH         LINE#         1241
  C:0D30H         LINE#         1242
  C:0D33H         LINE#         1243
  C:0D36H         LINE#         1245
  C:0D38H         LINE#         1246
  C:0D3AH         LINE#         1247
  C:0D3CH         LINE#         1248
  C:0D3EH         LINE#         1249
  C:0D41H         LINE#         1250
  C:0D44H         LINE#         1251
  C:0D47H         LINE#         1252
  C:0D49H         LINE#         1253
  C:0D4BH         LINE#         1254
  C:0D4CH         LINE#         1255
  C:0D4FH         LINE#         1256
  C:0D52H         LINE#         1257
  C:0D55H         LINE#         1258
  C:0D57H         LINE#         1260
  C:0D5AH         LINE#         1261
  C:0D5DH         LINE#         1262
  C:0D60H         LINE#         1263
  C:0D63H         LINE#         1264
  C:0D66H         LINE#         1265
  C:0D69H         LINE#         1266
  C:0D6CH         LINE#         1267
  C:0D6FH         LINE#         1269
  C:0D71H         LINE#         1270
  C:0D74H         LINE#         1272
  C:0D77H         LINE#         1273
  C:0D7AH         LINE#         1274
  C:0D7DH         LINE#         1275
  C:0D7FH         LINE#         1276
  C:0D81H         LINE#         1277
  C:0D82H         LINE#         1278
  C:0D85H         LINE#         1279
  C:0D88H         LINE#         1280
  C:0D8BH         LINE#         1281
  C:0D8DH         LINE#         1285
  C:0D8FH         LINE#         1286
  C:0D91H         LINE#         1287
  C:0D94H         LINE#         1292
  C:0D96H         LINE#         1293
  C:0D99H         LINE#         1294
  C:0D9AH         LINE#         1295
  C:0D9DH         LINE#         1296
BL51 BANKED LINKER/LOCATER V4.16a           02/14/2007  11:03:22  PAGE 33


  C:0D9EH         LINE#         1297
  C:0DA0H         LINE#         1298
  C:0DA2H         LINE#         1300
  C:0DA3H         LINE#         1301
  C:0DA5H         LINE#         1302
  C:0DA7H         LINE#         1303
  C:0DA9H         LINE#         1304
  C:0DAAH         LINE#         1305
  C:0DACH         LINE#         1306
  C:0DADH         LINE#         1307
  C:0DAEH         LINE#         1308
  C:0DAFH         LINE#         1309
  C:0DB1H         LINE#         1311
  C:0DB3H         LINE#         1312
  C:0DB6H         LINE#         1313
  C:0DB8H         LINE#         1314
  C:0DBAH         LINE#         1316
  C:0DBCH         LINE#         1317
  C:0DBDH         LINE#         1318
  C:0DBFH         LINE#         1319
  C:0DC0H         LINE#         1320
  C:0DC1H         LINE#         1321
  C:0DC2H         LINE#         1322
  C:0DC3H         LINE#         1323
  C:0DC5H         LINE#         1324
  C:0DC7H         LINE#         1325
  C:0DC8H         LINE#         1326
  C:0DCAH         LINE#         1327
  C:0DCBH         LINE#         1328
  C:0DCCH         LINE#         1329
  C:0DCDH         LINE#         1330
  C:0DCFH         LINE#         1332
  C:0DD1H         LINE#         1333
  C:0DD4H         LINE#         1334
  C:0DD6H         LINE#         1335
  C:0DD7H         LINE#         1336
  C:0DD9H         LINE#         1338
  C:0DDCH         LINE#         1339
  C:0DDEH         LINE#         1340
  C:0DE0H         LINE#         1341
  C:0DE2H         LINE#         1342
  C:0DE4H         LINE#         1343
  C:0DE7H         LINE#         1344
  C:0DEAH         LINE#         1345
  C:0DEDH         LINE#         1346
  C:0DF0H         LINE#         1347
  C:0DF3H         LINE#         1352
  C:0DF6H         LINE#         1353
  C:0DF9H         LINE#         1354
  C:0DFBH         LINE#         1355
  C:0DFEH         LINE#         1357
  C:0E01H         LINE#         1358
  C:0E04H         LINE#         1359
  C:0E06H         LINE#         1360
  C:0E09H         LINE#         1362
  C:0E0AH         LINE#         1364
  C:0E0DH         LINE#         1365
  C:0E0EH         LINE#         1367
  C:0E11H         LINE#         1370
  C:0E14H         LINE#         1371
  C:0E16H         LINE#         1372
  C:0E19H         LINE#         1373
  C:0E1BH         LINE#         1374
  C:0E1EH         LINE#         1375
  C:0E20H         LINE#         1376
BL51 BANKED LINKER/LOCATER V4.16a           02/14/2007  11:03:22  PAGE 34


  C:0E23H         LINE#         1378
  C:0E24H         LINE#         1379
  C:0E27H         LINE#         1391
  C:0E29H         LINE#         1392
  C:0E2CH         LINE#         1393
  C:0E2FH         LINE#         1394
  C:0E32H         LINE#         1395
  C:0E35H         LINE#         1397
  C:0E36H         LINE#         1398
  C:0E39H         LINE#         1399
  C:0E3BH         LINE#         1400
  C:0E3DH         LINE#         1402
  C:0E3EH         LINE#         1403
  C:0E40H         LINE#         1404
  C:0E42H         LINE#         1406
  C:0E45H         LINE#         1408
  C:0E47H         LINE#         1409
  C:0E49H         LINE#         1410
  C:0E4CH         LINE#         1413
  C:0E4EH         LINE#         1414
  C:0E50H         LINE#         1415
  C:0E51H         LINE#         1416
  C:0E53H         LINE#         1417
  C:0E55H         LINE#         1418
  C:0E57H         LINE#         1419
  C:0E58H         LINE#         1420
  C:0E5AH         LINE#         1421
  C:0E5CH         LINE#         1423
  C:0E5DH         LINE#         1424
  C:0E5EH         LINE#         1425
  C:0E60H         LINE#         1434
  C:0E63H         LINE#         1435
  C:0E66H         LINE#         1436
  C:0E69H         LINE#         1438
  C:0E6CH         LINE#         1439
  C:0E6FH         LINE#         1445
  C:0E71H         LINE#         1446
  C:0E74H         LINE#         1448
  C:0E77H         LINE#         1449
  C:0E79H         LINE#         1450
  C:0E7CH         LINE#         1453
  C:0E7EH         LINE#         1454
  C:0E80H         LINE#         1455
  C:0E83H         LINE#         1457
  C:0E85H         LINE#         1458
  C:0E87H         LINE#         1459
  C:0E89H         LINE#         1460
  C:0E8AH         LINE#         1461
  C:0E8CH         LINE#         1462
  C:0E8DH         LINE#         1463
  C:0E8EH         LINE#         1464
  C:0E8FH         LINE#         1465
  C:0E91H         LINE#         1466
  C:0E93H         LINE#         1467
  C:0E95H         LINE#         1468
  C:0E97H         LINE#         1469
  C:0E99H         LINE#         1470
  C:0E9CH         LINE#         1471
  C:0E9EH         LINE#         1472
  C:0EA0H         LINE#         1473
  C:0EA2H         LINE#         1474
  C:0EA3H         LINE#         1475
  C:0EA6H         LINE#         1476
  C:0EA8H         LINE#         1477
  C:0EA9H         LINE#         1478
BL51 BANKED LINKER/LOCATER V4.16a           02/14/2007  11:03:22  PAGE 35


  C:0EABH         LINE#         1479
  C:0EACH         LINE#         1480
  C:0EAEH         LINE#         1481
  C:0EB1H         LINE#         1483
  C:0EB3H         LINE#         1484
  C:0EB4H         LINE#         1485
  C:0EB6H         LINE#         1487
  C:0EB7H         LINE#         1488
  C:0EB9H         LINE#         1490
  C:0EBBH         LINE#         1491
  C:0EBDH         LINE#         1493
  C:0EBFH         LINE#         1494
  C:0EC0H         LINE#         1495
  C:0EC1H         LINE#         1496
  C:0EC3H         LINE#         1497
  C:0EC4H         LINE#         1498
  C:0EC6H         LINE#         1499
  C:0EC7H         LINE#         1500
  C:0EC9H         LINE#         1504
  C:0ECBH         LINE#         1505
  C:0ECEH         LINE#         1508
  C:0ED0H         LINE#         1509
  C:0ED1H         LINE#         1510
  C:0ED4H         LINE#         1511
  C:0ED6H         LINE#         1512
  C:0ED7H         LINE#         1513
  C:0ED9H         LINE#         1514
  C:0EDCH         LINE#         1515
  C:0EDEH         LINE#         1516
  C:0EE0H         LINE#         1517
  C:0EE3H         LINE#         1518
  C:0EE5H         LINE#         1519
  C:0EE7H         LINE#         1521
  C:0EE9H         LINE#         1527
  C:0EEBH         LINE#         1528
  C:0EECH         LINE#         1529
  C:0EEFH         LINE#         1530
  C:0EF1H         LINE#         1531
  C:0EF2H         LINE#         1532
  C:0EF3H         LINE#         1533
  C:0EF5H         LINE#         1534
  C:0EF6H         LINE#         1535
  C:0EF9H         LINE#         1536
  C:0EFBH         LINE#         1537
  C:0EFCH         LINE#         1539
  C:0EFFH         LINE#         1540
  C:0F01H         LINE#         1541
  C:0F04H         LINE#         1542
  C:0F06H         LINE#         1543
  C:0F08H         LINE#         1544
  C:0F0BH         LINE#         1547
  C:0F0EH         LINE#         1548
  C:0F10H         LINE#         1549
  C:0F12H         LINE#         1550
  C:0F14H         LINE#         1551
  C:0F15H         LINE#         1552
  C:0F18H         LINE#         1553
  C:0F1AH         LINE#         1556
  C:0F1CH         LINE#         1557
  C:0F1FH         LINE#         1558
  C:0F21H         LINE#         1559
  C:0F23H         LINE#         1560
  C:0F25H         LINE#         1563
  C:0F28H         LINE#         1564
  C:0F2BH         LINE#         1565
BL51 BANKED LINKER/LOCATER V4.16a           02/14/2007  11:03:22  PAGE 36


  C:0F2EH         LINE#         1566
  C:0F31H         LINE#         1567
  C:0F34H         LINE#         1569
  C:0F36H         LINE#         1570
  C:0F38H         LINE#         1571
  C:0F3BH         LINE#         1574
  C:0F3DH         LINE#         1576
  C:0F3FH         LINE#         1577
  C:0F40H         LINE#         1578
  C:0F42H         LINE#         1579
  C:0F43H         LINE#         1580
  C:0F44H         LINE#         1581
  C:0F46H         LINE#         1582
  C:0F47H         LINE#         1583
  C:0F48H         LINE#         1584
  C:0F49H         LINE#         1585
  C:0F4BH         LINE#         1586
  C:0F4CH         LINE#         1587
  C:0F4EH         LINE#         1588
  C:0F4FH         LINE#         1589
  C:0F50H         LINE#         1590
  C:0F52H         LINE#         1591
  C:0F53H         LINE#         1592
  C:0F54H         LINE#         1593
  C:0F55H         LINE#         1594
  C:0F57H         LINE#         1596
  C:0F59H         LINE#         1597
  C:0F5AH         LINE#         1598
  C:0F5BH         LINE#         1599
  C:0F5DH         LINE#         1600
  C:0F5EH         LINE#         1601
  C:0F5FH         LINE#         1602
  C:0F60H         LINE#         1603
  C:0F62H         LINE#         1605
  C:0F64H         LINE#         1606
  C:0F65H         LINE#         1607
  C:0F66H         LINE#         1608
  C:0F68H         LINE#         1609
  C:0F69H         LINE#         1610
  C:0F6AH         LINE#         1611
  C:0F6BH         LINE#         1612
  C:0F6DH         LINE#         1615
  C:0F6EH         LINE#         1616
  C:0F70H         LINE#         1617
  C:0F71H         LINE#         1618
  C:0F72H         LINE#         1619
  C:0F74H         LINE#         1620
  C:0F75H         LINE#         1621
  C:0F76H         LINE#         1622
  C:0F77H         LINE#         1624
  C:0F79H         LINE#         1625
  C:0F7AH         LINE#         1626
  C:0F7BH         LINE#         1627
  C:0F7DH         LINE#         1628
  C:0F7EH         LINE#         1629
  C:0F7FH         LINE#         1630
  C:0F80H         LINE#         1631
  C:0F81H         LINE#         1633
  C:0F84H         LINE#         1634
  C:0F85H         LINE#         1635
  C:0F87H         LINE#         1636
  C:0F88H         LINE#         1637
  C:0F89H         LINE#         1638
  C:0F8BH         LINE#         1639
  C:0F8DH         LINE#         1641
BL51 BANKED LINKER/LOCATER V4.16a           02/14/2007  11:03:22  PAGE 37


  C:0F90H         LINE#         1644
  C:0F92H         LINE#         1645
  C:0F93H         LINE#         1646
  C:0F94H         LINE#         1647
  C:0F96H         LINE#         1648
  C:0F97H         LINE#         1652
  C:0F9AH         LINE#         1653
  C:0F9DH         LINE#         1654
  C:0F9FH         LINE#         1655
  C:0FA2H         LINE#         1656
  C:0FA3H         LINE#         1657
  C:0FA5H         LINE#         1659
  C:0FA6H         LINE#         1660
  C:0FA8H         LINE#         1663
  C:0FAAH         LINE#         1664
  C:0FADH         LINE#         1665
  C:0FB0H         LINE#         1666
  C:0FB3H         LINE#         1667
  C:0FB6H         LINE#         1668
  C:0FB8H         LINE#         1669
  C:0FBBH         LINE#         1670
  C:0FBEH         LINE#         1671
  C:0FC1H         LINE#         1672
  C:0FC4H         LINE#         1676
  C:0FC6H         LINE#         1677
  C:0FC9H         LINE#         1678
  C:0FCCH         LINE#         1679
  C:0FCFH         LINE#         1680
  C:0FD2H         LINE#         1682
  C:0FD4H         LINE#         1684
  C:0FD7H         LINE#         1685
  C:0FDAH         LINE#         1687
  C:0FDDH         LINE#         1688
  C:0FDFH         LINE#         1689
  C:0FE0H         LINE#         1690
  C:0FE2H         LINE#         1691
  C:0FE5H         LINE#         1692
  C:0FE7H         LINE#         1693
  C:0FE9H         LINE#         1694
  C:0FECH         LINE#         1695
  C:0FEEH         LINE#         1696
  C:0FF0H         LINE#         1697
  C:0FF3H         LINE#         1698
  C:0FF5H         LINE#         1699
  C:0FF7H         LINE#         1701
  C:0FF9H         LINE#         1702
  C:0FFBH         LINE#         1706
  C:0FFDH         LINE#         1707
  C:0FFFH         LINE#         1708
  C:1001H         LINE#         1709
  C:1002H         LINE#         1710
  C:1003H         LINE#         1712
  C:1005H         LINE#         1713
  C:1007H         LINE#         1714
  C:1009H         LINE#         1715
  C:100BH         LINE#         1716
  C:100CH         LINE#         1717
  C:100DH         LINE#         1718
  C:100EH         LINE#         1719
  C:100FH         LINE#         1720
  C:1010H         LINE#         1721
  C:1011H         LINE#         1722
  C:1012H         LINE#         1723
  C:1013H         LINE#         1724
  C:1016H         LINE#         1726
BL51 BANKED LINKER/LOCATER V4.16a           02/14/2007  11:03:22  PAGE 38


  C:1018H         LINE#         1727
  C:101BH         LINE#         1729
  C:101EH         LINE#         1730
  C:1021H         LINE#         1731
  C:1024H         LINE#         1732
  C:1026H         LINE#         1733
  C:1029H         LINE#         1734
  C:102BH         LINE#         1736
  C:102EH         LINE#         1737
  C:1031H         LINE#         1738
  C:1034H         LINE#         1739
  C:1036H         LINE#         1741
  C:1039H         LINE#         1742
  C:103CH         LINE#         1743
  C:103FH         LINE#         1744
  C:1041H         LINE#         1747
  C:1044H         LINE#         1748
  C:1047H         LINE#         1749
  C:104AH         LINE#         1750
  C:104DH         LINE#         1751
  C:1050H         LINE#         1752
  C:1053H         LINE#         1753
  C:1055H         LINE#         1755
  C:1058H         LINE#         1756
  C:105BH         LINE#         1757
  C:105EH         LINE#         1758
  C:1060H         LINE#         1759
  C:1063H         LINE#         1760
  C:1066H         LINE#         1761
  C:1068H         LINE#         1764
  C:106BH         LINE#         1765
  C:106EH         LINE#         1766
  C:1071H         LINE#         1767
  C:1073H         LINE#         1768
  C:1076H         LINE#         1771
  C:1078H         LINE#         1773
  C:107AH         LINE#         1774
  C:107DH         LINE#         1775
  C:1080H         LINE#         1776
  C:1083H         LINE#         1777
  C:1086H         LINE#         1778
  C:1088H         LINE#         1781
  C:108BH         LINE#         1782
  C:108DH         LINE#         1783
  C:1090H         LINE#         1785
  C:1093H         LINE#         1786
  C:1095H         LINE#         1787
  C:1098H         LINE#         1788
  C:109AH         LINE#         1789
  C:109DH         LINE#         1795
  C:109FH         LINE#         1796
  C:10A2H         LINE#         1798
  C:10A4H         LINE#         1799
  C:10A6H         LINE#         1800
  C:10A8H         LINE#         1801
  C:10AAH         LINE#         1803
  C:10ADH         LINE#         1804
  C:10B0H         LINE#         1805
  C:10B2H         LINE#         1808
  C:10B5H         LINE#         1810
  C:10B7H         LINE#         1811
  C:10BAH         LINE#         1814
  C:10BDH         LINE#         1815
  C:10BFH         LINE#         1816
  C:10C2H         LINE#         1818
BL51 BANKED LINKER/LOCATER V4.16a           02/14/2007  11:03:22  PAGE 39


  C:10C4H         LINE#         1819
  C:10C6H         LINE#         1820
  C:10C8H         LINE#         1821
  C:10CAH         LINE#         1822
  C:10CCH         LINE#         1823
  C:10CDH         LINE#         1824
  C:10D0H         LINE#         1827
  C:10D3H         LINE#         1828
  C:10D5H         LINE#         1829
  C:10D7H         LINE#         1830
  C:10D9H         LINE#         1831
  C:10DAH         LINE#         1832
  C:10DCH         LINE#         1833
  C:10DFH         LINE#         1834
  C:10E2H         LINE#         1844
  C:10E4H         LINE#         1845
  C:10E7H         LINE#         1846
  C:10E9H         LINE#         1847
  C:10EBH         LINE#         1848
  C:10EDH         LINE#         1849
  C:10EFH         LINE#         1851
  C:10F1H         LINE#         1852
  C:10F3H         LINE#         1853
  C:10F4H         LINE#         1854
  C:10F5H         LINE#         1855
  C:10F7H         LINE#         1856
  C:10F9H         LINE#         1857
  C:10FAH         LINE#         1858
  C:10FDH         LINE#         1860
  C:1100H         LINE#         1865
  C:1102H         LINE#         1866
  C:1103H         LINE#         1867
  C:1105H         LINE#         1868
  C:1106H         LINE#         1869
  C:1108H         LINE#         1870
  C:1109H         LINE#         1871
  C:110BH         LINE#         1872
  C:110CH         LINE#         1874
  C:110FH         LINE#         1875
  C:1111H         LINE#         1876
  C:1114H         LINE#         1877
  C:1116H         LINE#         1878
  C:1119H         LINE#         1879
  C:111CH         LINE#         1880
  C:111FH         LINE#         1881
  C:1122H         LINE#         1882
  C:1125H         LINE#         1883
  C:1128H         LINE#         1884
  C:1129H         LINE#         1885
  C:112BH         LINE#         1886
  C:112CH         LINE#         1887
  C:112EH         LINE#         1888
  C:1131H         LINE#         1891
  C:1133H         LINE#         1892
  C:1135H         LINE#         1893
  C:1137H         LINE#         1894
  C:1139H         LINE#         1895
  C:113AH         LINE#         1896
  C:113DH         LINE#         1898
  C:1140H         LINE#         1903
  C:1142H         LINE#         1904
  C:1143H         LINE#         1905
  C:1145H         LINE#         1906
  C:1146H         LINE#         1907
  C:1148H         LINE#         1908
BL51 BANKED LINKER/LOCATER V4.16a           02/14/2007  11:03:22  PAGE 40


  C:1149H         LINE#         1909
  C:114BH         LINE#         1910
  C:114CH         LINE#         1912
  C:114FH         LINE#         1913
  C:1151H         LINE#         1914
  C:1154H         LINE#         1915
  C:1156H         LINE#         1916
  C:1159H         LINE#         1917
  C:115CH         LINE#         1918
  C:115FH         LINE#         1919
  C:1162H         LINE#         1920
  C:1165H         LINE#         1921
  C:1168H         LINE#         1922
  C:1169H         LINE#         1923
  C:116BH         LINE#         1924
  C:116CH         LINE#         1925
  C:116EH         LINE#         1926
  C:1171H         LINE#         1928
  C:1173H         LINE#         1929
  C:1175H         LINE#         1930
  C:1177H         LINE#         1931
  C:1179H         LINE#         1932
  C:117BH         LINE#         1933
  C:117CH         LINE#         1934
  C:117FH         LINE#         1936
  C:1182H         LINE#         1937
  C:1184H         LINE#         1938
  C:1186H         LINE#         1939
  C:1188H         LINE#         1940
  C:1189H         LINE#         1941
  C:118BH         LINE#         1942
  C:118EH         LINE#         1943
  C:1191H         LINE#         1944
  C:1192H         LINE#         1945
  C:1195H         LINE#         1950
  C:1198H         LINE#         1951
  C:119BH         LINE#         1952
  C:119EH         LINE#         1953
  C:11A1H         LINE#         1954
  C:11A4H         LINE#         1956
  C:11A7H         LINE#         1957
  C:11AAH         LINE#         1959
  C:11ACH         LINE#         1960
  C:11AEH         LINE#         1961
  C:11B0H         LINE#         1962
  C:11B2H         LINE#         1963
  C:11B4H         LINE#         1964
  C:11B6H         LINE#         1965
  C:11B8H         LINE#         1966
  C:11BAH         LINE#         1967
  C:11BCH         LINE#         1968
  C:11BEH         LINE#         1971
  C:11C1H         LINE#         1972
  C:11C4H         LINE#         1975
  C:11C6H         LINE#         1976
  C:11C8H         LINE#         1977
  C:11C9H         LINE#         1978
  C:11CAH         LINE#         1979
  C:11CCH         LINE#         1981
  C:11CEH         LINE#         1982
  C:11D1H         LINE#         1983
  C:11D3H         LINE#         1984
  C:11D5H         LINE#         1985
  C:11D7H         LINE#         1986
  C:11D9H         LINE#         1987
BL51 BANKED LINKER/LOCATER V4.16a           02/14/2007  11:03:22  PAGE 41


  C:11DCH         LINE#         1988
  C:11DFH         LINE#         1989
  C:11E2H         LINE#         1990
  C:11E4H         LINE#         1991
  C:11E7H         LINE#         1993
  C:11EAH         LINE#         1994
  C:11EDH         LINE#         1995
  C:11EFH         LINE#         1996
  C:11F2H         LINE#         1997
  C:11F5H         LINE#         1998
  C:11F7H         LINE#         1999
  C:11FAH         LINE#         2000
  C:11FDH         LINE#         2001
  C:11FFH         LINE#         2002
  C:1202H         LINE#         2003
  C:1205H         LINE#         2004
  C:1207H         LINE#         2005
  C:120AH         LINE#         2006
  C:120DH         LINE#         2007
  C:120FH         LINE#         2008
  C:1212H         LINE#         2009
  C:1215H         LINE#         2011
  C:1218H         LINE#         2012
  C:121AH         LINE#         2013
  C:121CH         LINE#         2015
  C:121FH         LINE#         2017
  C:1222H         LINE#         2018
  C:1224H         LINE#         2019
  C:1226H         LINE#         2020
  C:1228H         LINE#         2021
  C:1229H         LINE#         2022
  C:122BH         LINE#         2023
  C:122EH         LINE#         2024
  C:1231H         LINE#         2025
  C:1234H         LINE#         2026
  C:1236H         LINE#         2027
  C:1239H         LINE#         2028
  C:123CH         LINE#         2029
  C:123FH         LINE#         2031
  C:1241H         LINE#         2032
  C:1244H         LINE#         2034
  C:1246H         LINE#         2036
  C:1247H         LINE#         2037
  C:124AH         LINE#         2039
  C:124DH         LINE#         2040
  C:124FH         LINE#         2046
  C:1251H         LINE#         2048
  C:1252H         LINE#         2049
  C:1255H         LINE#         2050
  C:1257H         LINE#         2051
  C:1259H         LINE#         2052
  C:125CH         LINE#         2053
  C:125EH         LINE#         2054
  C:1261H         LINE#         2055
  C:1263H         LINE#         2056
  C:1266H         LINE#         2057
  C:1269H         LINE#         2058
  C:126BH         LINE#         2060
  C:126EH         LINE#         2062
  C:1270H         LINE#         2063
  C:1271H         LINE#         2064
  C:1273H         LINE#         2065
  C:1274H         LINE#         2066
  C:1276H         LINE#         2067
  C:1279H         LINE#         2068
BL51 BANKED LINKER/LOCATER V4.16a           02/14/2007  11:03:22  PAGE 42


  C:127BH         LINE#         2069
  C:127DH         LINE#         2071
  C:127FH         LINE#         2072
  C:1281H         LINE#         2074
  C:1284H         LINE#         2075
  C:1287H         LINE#         2076
  C:128AH         LINE#         2077
  C:128CH         LINE#         2079
  C:128EH         LINE#         2080
  C:1290H         LINE#         2081
  C:1292H         LINE#         2082
  C:1294H         LINE#         2084
  C:1297H         LINE#         2085
  C:1299H         LINE#         2086
  C:129AH         LINE#         2087
  C:129CH         LINE#         2088
  C:129DH         LINE#         2089
  C:129FH         LINE#         2091
  C:12A1H         LINE#         2092
  C:12A3H         LINE#         2093
  C:12A5H         LINE#         2094
  C:12A6H         LINE#         2095
  C:12A8H         LINE#         2096
  C:12AAH         LINE#         2097
  C:12ACH         LINE#         2098
  C:12ADH         LINE#         2099
  C:12AFH         LINE#         2100
  C:12B1H         LINE#         2101
  C:12B3H         LINE#         2102
  C:12B5H         LINE#         2103
  C:12B7H         LINE#         2104
  C:12B8H         LINE#         2106
  C:12BBH         LINE#         2107
  C:12BDH         LINE#         2109
  C:12C0H         LINE#         2110
  C:12C2H         LINE#         2111
  C:12C4H         LINE#         2112
  C:12C7H         LINE#         2114
  C:12C9H         LINE#         2115
  C:12CBH         LINE#         2131
  C:12CDH         LINE#         2132
  C:12CFH         LINE#         2133
  C:12D2H         LINE#         2134
  C:12D4H         LINE#         2135
  C:12D5H         LINE#         2136
  C:12D7H         LINE#         2137
  C:12DAH         LINE#         2138
  C:12DDH         LINE#         2139
  C:12DFH         LINE#         2140
  C:12E0H         LINE#         2141
  C:12E2H         LINE#         2142
  C:12E5H         LINE#         2144
  C:12E7H         LINE#         2145
  C:12E8H         LINE#         2146
  C:12EAH         LINE#         2147
  C:12EDH         LINE#         2153
  C:12EFH         LINE#         2154
  C:12F1H         LINE#         2155
  C:12F3H         LINE#         2156
  C:12F5H         LINE#         2157
  C:12F8H         LINE#         2159
  C:12FAH         LINE#         2160
  C:12FCH         LINE#         2161
  C:12FDH         LINE#         2162
  C:12FFH         LINE#         2163
BL51 BANKED LINKER/LOCATER V4.16a           02/14/2007  11:03:22  PAGE 43


  C:1302H         LINE#         2166
  C:1303H         LINE#         2167
  C:1305H         LINE#         2168
  C:1307H         LINE#         2169
  C:1309H         LINE#         2170
  C:130AH         LINE#         2171
  C:130CH         LINE#         2172
  C:130FH         LINE#         2173
  C:1311H         LINE#         2174
  C:1313H         LINE#         2176
  C:1316H         LINE#         2177
  C:1318H         LINE#         2178
  C:131AH         LINE#         2181
  C:131CH         LINE#         2182
  C:131EH         LINE#         2184
  C:1321H         LINE#         2186
  C:1324H         LINE#         2187
  C:1327H         LINE#         2188
  C:1329H         LINE#         2189
  C:132BH         LINE#         2190
  C:132DH         LINE#         2192
  C:1330H         LINE#         2193
  C:1333H         LINE#         2194
  C:1335H         LINE#         2195
  C:1338H         LINE#         2196
  C:133AH         LINE#         2197
  C:133DH         LINE#         2199
  C:1340H         LINE#         2201
  C:1341H         LINE#         2202
  C:1344H         LINE#         2204
  C:1347H         LINE#         2207
  C:1349H         LINE#         2208
  C:134BH         LINE#         2209
  C:134CH         LINE#         2210
  C:134EH         LINE#         2211
  C:1351H         LINE#         2213
  C:1354H         LINE#         2214
  C:1356H         LINE#         2215
  C:1358H         LINE#         2216
  C:135AH         LINE#         2217
  C:135CH         LINE#         2218
  C:135EH         LINE#         2219
  C:1360H         LINE#         2220
  C:1362H         LINE#         2221
  C:1364H         LINE#         2222
  C:1367H         LINE#         2224
  C:136AH         LINE#         2225
  C:136DH         LINE#         2226
  C:1370H         LINE#         2227
  C:1372H         LINE#         2228
  C:1375H         LINE#         2229
  C:1378H         LINE#         2230
  C:137BH         LINE#         2231
  C:137DH         LINE#         2232
  C:1380H         LINE#         2233
  C:1383H         LINE#         2234
  C:1385H         LINE#         2236
  C:1388H         LINE#         2237
  C:138BH         LINE#         2238
  C:138EH         LINE#         2239
  C:1390H         LINE#         2240
  C:1393H         LINE#         2241
  C:1396H         LINE#         2242
  C:1398H         LINE#         2244
  C:139BH         LINE#         2245
BL51 BANKED LINKER/LOCATER V4.16a           02/14/2007  11:03:22  PAGE 44


  C:139EH         LINE#         2246
  C:13A1H         LINE#         2247
  C:13A3H         LINE#         2248
  C:13A6H         LINE#         2249
  C:13A9H         LINE#         2250
  C:13ABH         LINE#         2254
  C:13AEH         LINE#         2255
  C:13B0H         LINE#         2256
  C:13B3H         LINE#         2257
  C:13B5H         LINE#         2258
  C:13B8H         LINE#         2259
  C:13BAH         LINE#         2260
  C:13BDH         LINE#         2261
  C:13BFH         LINE#         2262
  C:13C0H         LINE#         2269
  C:13C2H         LINE#         2270
  C:13C4H         LINE#         2271
  C:13C5H         LINE#         2272
  C:13C6H         LINE#         2273
  C:13C7H         LINE#         2274
  C:13C9H         LINE#         2275
  C:13CCH         LINE#         2277
  C:13CEH         LINE#         2278
  C:13D1H         LINE#         2279
  C:13D3H         LINE#         2287
  C:13D5H         LINE#         2288
  C:13D7H         LINE#         2289
  C:13D8H         LINE#         2290
  C:13D9H         LINE#         2291
  C:13DAH         LINE#         2292
  C:13DCH         LINE#         2293
  C:13DEH         LINE#         2294
  C:13DFH         LINE#         2295
  C:13E1H         LINE#         2296
  C:13E4H         LINE#         2297
  C:13E5H         LINE#         2298
  C:13E8H         LINE#         2300
  C:13EBH         LINE#         2301
  C:13EDH         LINE#         2302
  C:13F0H         LINE#         2304
  C:13F2H         LINE#         2305
  C:13F5H         LINE#         2306
  C:13F8H         LINE#         2307
  C:13FBH         LINE#         2309
  C:13FEH         LINE#         2310
  C:1401H         LINE#         2311
  C:1404H         LINE#         2312
  C:1406H         LINE#         2313
  C:1409H         LINE#         2315
  C:140CH         LINE#         2317
  C:140FH         LINE#         2320
  C:1411H         LINE#         2321
  C:1414H         LINE#         2328
  C:1417H         LINE#         2330
  C:141AH         LINE#         2332
  C:141CH         LINE#         2333
  C:141EH         LINE#         2334
  C:141FH         LINE#         2335
  C:1420H         LINE#         2336
  C:1422H         LINE#         2338
  C:1425H         LINE#         2339
  C:1428H         LINE#         2340
  C:142AH         LINE#         2341
  C:142DH         LINE#         2342
  C:142FH         LINE#         2343
BL51 BANKED LINKER/LOCATER V4.16a           02/14/2007  11:03:22  PAGE 45


  C:1432H         LINE#         2344
  C:1435H         LINE#         2345
  C:1436H         LINE#         2346
  C:1438H         LINE#         2348
  C:143AH         LINE#         2349
  C:143BH         LINE#         2350
  C:143CH         LINE#         2351
  C:143EH         LINE#         2352
  C:1441H         LINE#         2353
  C:1444H         LINE#         2354
  C:1447H         LINE#         2355
  C:1449H         LINE#         2356
  C:144CH         LINE#         2357
  C:144FH         LINE#         2358
  C:1450H         LINE#         2359
  C:1452H         LINE#         2360
  C:1455H         LINE#         2361
  C:1458H         LINE#         2362
  C:145BH         LINE#         2363
  C:145EH         LINE#         2364
  C:1461H         LINE#         2365
  C:1464H         LINE#         2366
  C:1466H         LINE#         2367
  C:1469H         LINE#         2368
  C:146CH         LINE#         2369
  C:146FH         LINE#         2370
  C:1472H         LINE#         2371
  C:1475H         LINE#         2372
  C:1477H         LINE#         2373
  C:147AH         LINE#         2379
  C:147CH         LINE#         2380
  C:147DH         LINE#         2381
  C:147EH         LINE#         2382
  C:1480H         LINE#         2383
  C:1483H         LINE#         2384
  C:1486H         LINE#         2385
  C:1489H         LINE#         2386
  C:148CH         LINE#         2387
  C:148FH         LINE#         2388
  C:1492H         LINE#         2389
  C:1495H         LINE#         2391
  C:1498H         LINE#         2394
  C:149BH         LINE#         2395
  C:149DH         LINE#         2396
  C:14A0H         LINE#         2398
  C:14A3H         LINE#         2399
  C:14A5H         LINE#         2400
  C:14A8H         LINE#         2401
  C:14AAH         LINE#         2402
  C:14ADH         LINE#         2403
  C:14B0H         LINE#         2404
  C:14B3H         LINE#         2406
  C:14B6H         LINE#         2407
  C:14B9H         LINE#         2408
  C:14BBH         LINE#         2409
  C:14BEH         LINE#         2410
  C:14C0H         LINE#         2411
  C:14C3H         LINE#         2412
  C:14C6H         LINE#         2413
  C:14C9H         LINE#         2414
  C:14CCH         LINE#         2415
  C:14CFH         LINE#         2416
  C:14D1H         LINE#         2417
  C:14D4H         LINE#         2418
  C:14D6H         LINE#         2419
BL51 BANKED LINKER/LOCATER V4.16a           02/14/2007  11:03:22  PAGE 46


  C:14D9H         LINE#         2420
  C:14DCH         LINE#         2421
  C:14DFH         LINE#         2423
  C:14E2H         LINE#         2424
  C:14E5H         LINE#         2425
  C:14E7H         LINE#         2426
  C:14EAH         LINE#         2427
  C:14ECH         LINE#         2428
  C:14EFH         LINE#         2429
  C:14F2H         LINE#         2430
  C:14F5H         LINE#         2433
  C:14F7H         LINE#         2434
  C:14FAH         LINE#         2435
  C:14FCH         LINE#         2436
  C:14FFH         LINE#         2437
  C:1502H         LINE#         2439
  C:1505H         LINE#         2440
  C:1508H         LINE#         2442
  C:150BH         LINE#         2443
  C:150EH         LINE#         2444
  C:1510H         LINE#         2446
  C:1512H         LINE#         2462
  C:1515H         LINE#         2463
  C:1518H         LINE#         2464
  C:151BH         LINE#         2472
  C:151DH         LINE#         2473
  C:151FH         LINE#         2474
  C:1520H         LINE#         2475
  C:1521H         LINE#         2476
  C:1522H         LINE#         2477
  C:1524H         LINE#         2478
  C:1526H         LINE#         2480
  C:1528H         LINE#         2481
  C:152AH         LINE#         2482
  C:152BH         LINE#         2483
  C:152CH         LINE#         2484
  C:152EH         LINE#         2485
  C:1530H         LINE#         2486
  C:1531H         LINE#         2487
  C:1534H         LINE#         2488
  C:1536H         LINE#         2489
  C:1537H         LINE#         2490
  C:153AH         LINE#         2493
  C:153DH         LINE#         2494
  C:153FH         LINE#         2495
  C:1542H         LINE#         2496
  C:1544H         LINE#         2498
  C:1547H         LINE#         2499
  C:154AH         LINE#         2500
  C:154DH         LINE#         2503
  C:154EH         LINE#         2504
  C:1550H         LINE#         2505
  C:1551H         LINE#         2506
  C:1553H         LINE#         2507
  C:1556H         LINE#         2508
  C:1559H         LINE#         2516
  C:155BH         LINE#         2517
  C:155DH         LINE#         2518
  C:155EH         LINE#         2519
  C:155FH         LINE#         2520
  C:1560H         LINE#         2521
  C:1562H         LINE#         2523
  C:1564H         LINE#         2524
  C:1566H         LINE#         2525
  C:1567H         LINE#         2526
BL51 BANKED LINKER/LOCATER V4.16a           02/14/2007  11:03:22  PAGE 47


  C:1568H         LINE#         2527
  C:156AH         LINE#         2528
  C:156CH         LINE#         2529
  C:156DH         LINE#         2530
  C:1570H         LINE#         2535
  C:1572H         LINE#         2536
  C:1574H         LINE#         2537
  C:1575H         LINE#         2538
  C:1576H         LINE#         2540
  C:1577H         LINE#         2541
  C:1579H         LINE#         2543
  C:157CH         LINE#         2544
  C:157FH         LINE#         2545
  C:1582H         LINE#         2546
  C:1585H         LINE#         2547
  C:1588H         LINE#         2549
  C:158BH         LINE#         2557
  C:158DH         LINE#         2558
  C:158FH         LINE#         2559
  C:1591H         LINE#         2560
  C:1593H         LINE#         2561
  C:1595H         LINE#         2562
  C:1597H         LINE#         2563
  C:1599H         LINE#         2564
  C:159BH         LINE#         2565
  C:159DH         LINE#         2566
  C:159FH         LINE#         2574
  C:15A2H         LINE#         2575
  C:15A5H         LINE#         2576
  C:15A7H         LINE#         2577
  C:15A9H         LINE#         2578
  C:15ABH         LINE#         2579
  C:15ADH         LINE#         2580
  C:15AEH         LINE#         2581
  C:15AFH         LINE#         2583
  C:15B1H         LINE#         2584
  C:15B3H         LINE#         2585
  C:15B5H         LINE#         2586
  C:15B6H         LINE#         2588
  C:15B9H         LINE#         2589
  C:15BCH         LINE#         2590
  C:15BFH         LINE#         2591
  C:15C2H         LINE#         2592
  C:15C5H         LINE#         2593
  C:15C8H         LINE#         2595
  C:15CBH         LINE#         2596
  C:15CEH         LINE#         2598
  C:15D0H         LINE#         2599
  C:15D2H         LINE#         2600
  C:15D4H         LINE#         2601
  C:15D6H         LINE#         2602
  C:15D8H         LINE#         2603
  C:15DAH         LINE#         2604
  C:15DCH         LINE#         2605
  C:15DEH         LINE#         2606
  C:15E0H         LINE#         2607
  C:15E2H         LINE#         2608
  C:15E4H         LINE#         2609
  C:15E6H         LINE#         2612
  C:15E9H         LINE#         2615
  C:15EBH         LINE#         2616
  C:15EDH         LINE#         2617
  C:15EEH         LINE#         2618
  C:15EFH         LINE#         2619
  C:15F1H         LINE#         2622
BL51 BANKED LINKER/LOCATER V4.16a           02/14/2007  11:03:22  PAGE 48


  C:15F3H         LINE#         2623
  C:15F6H         LINE#         2624
  C:15F8H         LINE#         2625
  C:15FAH         LINE#         2626
  C:15FCH         LINE#         2627
  C:15FEH         LINE#         2628
  C:1601H         LINE#         2629
  C:1604H         LINE#         2630
  C:1607H         LINE#         2631
  C:1609H         LINE#         2632
  C:160CH         LINE#         2633
  C:160FH         LINE#         2634
  C:1611H         LINE#         2635
  C:1614H         LINE#         2636
  C:1617H         LINE#         2637
  C:1619H         LINE#         2638
  C:161CH         LINE#         2639
  C:161FH         LINE#         2640
  C:1621H         LINE#         2641
  C:1624H         LINE#         2642
  C:1627H         LINE#         2643
  C:1629H         LINE#         2644
  C:162CH         LINE#         2645
  C:162FH         LINE#         2646
  C:1631H         LINE#         2647
  C:1634H         LINE#         2661
  C:1636H         LINE#         2662
  C:1638H         LINE#         2663
  C:163BH         LINE#         2664
  C:163DH         LINE#         2665
  C:163EH         LINE#         2666
  C:1640H         LINE#         2667
  C:1643H         LINE#         2670
  C:1646H         LINE#         2671
  C:1648H         LINE#         2672
  C:1649H         LINE#         2673
  C:164BH         LINE#         2674
  C:164EH         LINE#         2675
  C:1650H         LINE#         2676
  C:1651H         LINE#         2677
  C:1653H         LINE#         2678
  C:1656H         LINE#         2681
  C:1659H         LINE#         2682
  C:165CH         LINE#         2683
  C:165EH         LINE#         2684
  C:1660H         LINE#         2685
  C:1663H         LINE#         2686
  C:1666H         LINE#         2687
  C:1669H         LINE#         2688
  C:166BH         LINE#         2689
  C:166DH         LINE#         2690
  C:1670H         LINE#         2692
  C:1672H         LINE#         2693
  C:1674H         LINE#         2694
  C:1676H         LINE#         2695
  C:1679H         LINE#         2696
  C:167CH         LINE#         2697
  C:167FH         LINE#         2700
  C:1682H         LINE#         2702
  C:1685H         LINE#         2703
  C:1688H         LINE#         2704
  C:168AH         LINE#         2705
  C:168DH         LINE#         2706
  C:168FH         LINE#         2707
  C:1692H         LINE#         2709
BL51 BANKED LINKER/LOCATER V4.16a           02/14/2007  11:03:22  PAGE 49


  C:1695H         LINE#         2711
  C:1697H         LINE#         2712
  C:1698H         LINE#         2713
  C:169BH         LINE#         2714
  C:169CH         LINE#         2715
  C:169EH         LINE#         2718
  C:16A1H         LINE#         2719
  C:16A3H         LINE#         2720
  C:16A6H         LINE#         2721
  C:16A8H         LINE#         2722
  C:16ABH         LINE#         2723
  C:16AEH         LINE#         2724
  C:16B0H         LINE#         2726
  C:16B3H         LINE#         2727
  C:16B5H         LINE#         2728
  C:16B7H         LINE#         2729
  C:16BAH         LINE#         2730
  C:16BCH         LINE#         2731
  C:16BFH         LINE#         2732
  C:16C2H         LINE#         2734
  C:16C4H         LINE#         2735
  C:16C7H         LINE#         2736
  C:16CAH         LINE#         2737
  C:16CCH         LINE#         2738
  C:16CFH         LINE#         2739
  C:16D2H         LINE#         2741
  C:16D5H         LINE#         2742
  C:16D8H         LINE#         2743
  C:16DBH         LINE#         2744
  C:16DDH         LINE#         2745
  C:16E0H         LINE#         2746
  C:16E3H         LINE#         2747
  C:16E6H         LINE#         2748
  C:16E7H         LINE#         2750
  C:16EAH         LINE#         2752
  C:16EDH         LINE#         2754
  C:16F0H         LINE#         2756
  C:16F3H         LINE#         2757
  C:16F6H         LINE#         2759
  C:16F9H         LINE#         2769
  C:16FBH         LINE#         2770
  C:16FEH         LINE#         2771
  C:1701H         LINE#         2772
  C:1704H         LINE#         2773
  C:1707H         LINE#         2774
  C:1709H         LINE#         2775
  C:170CH         LINE#         2776
  C:170FH         LINE#         2777
  C:1712H         LINE#         2778
  C:1715H         LINE#         2779
  C:1717H         LINE#         2780
  C:171AH         LINE#         2781
  C:171CH         LINE#         2782
  C:171FH         LINE#         2783
  C:1721H         LINE#         2784
  C:1724H         LINE#         2786
  C:1726H         LINE#         2788
  C:1728H         LINE#         2790
  C:172AH         LINE#         2791
  C:172CH         LINE#         2792
  C:172EH         LINE#         2793
  C:1731H         LINE#         2794
  C:1734H         LINE#         2796
  C:1737H         LINE#         2797
  C:173AH         LINE#         2798
BL51 BANKED LINKER/LOCATER V4.16a           02/14/2007  11:03:22  PAGE 50


  C:173DH         LINE#         2799
  C:173FH         LINE#         2800
  C:1741H         LINE#         2801
  C:1744H         LINE#         2802
  C:1747H         LINE#         2803
  C:174AH         LINE#         2807
  C:174CH         LINE#         2809
  C:174FH         LINE#         2810
  C:1752H         LINE#         2811
  C:1755H         LINE#         2812
  C:1757H         LINE#         2813
  C:1759H         LINE#         2815
  C:175CH         LINE#         2816
  C:175FH         LINE#         2817
  C:1762H         LINE#         2818
  C:1765H         LINE#         2819
  C:1767H         LINE#         2820
  C:1769H         LINE#         2822
  C:176BH         LINE#         2823
  C:176DH         LINE#         2824
  C:176FH         LINE#         2825
  C:1771H         LINE#         2826
  C:1774H         LINE#         2830
  C:1777H         LINE#         2831
  C:177AH         LINE#         2832
  C:177DH         LINE#         2833
  C:177FH         LINE#         2834
  C:1781H         LINE#         2836
  C:1783H         LINE#         2837
  C:1784H         LINE#         2839
  C:1787H         LINE#         2840
  C:1789H         LINE#         2841
  C:178BH         LINE#         2842
  C:178DH         LINE#         2843
  C:1790H         LINE#         2844
  C:1793H         LINE#         2845
  C:1796H         LINE#         2846
  C:1799H         LINE#         2848
  C:179CH         LINE#         2849
  C:179FH         LINE#         2853
  C:17A2H         LINE#         2855
  C:17A5H         LINE#         2857
  C:17A8H         LINE#         2862
  C:17AAH         LINE#         2863
  C:17ABH         LINE#         2864
  C:17AEH         LINE#         2865
  C:17AFH         LINE#         2866
  C:17B1H         LINE#         2867
  C:17B4H         LINE#         2869
  C:17BDH         LINE#         2876
  C:17C0H         LINE#         2877
  C:17C3H         LINE#         2878
  C:17C6H         LINE#         2879
  C:17C8H         LINE#         2880
  C:17C9H         LINE#         2881
  C:17CBH         LINE#         2882
  C:17CDH         LINE#         2883
  C:17CEH         LINE#         2884
  C:17D0H         LINE#         2887
  C:17D2H         LINE#         2888
  C:17D5H         LINE#         2889
  C:17D7H         LINE#         2890
  C:17D8H         LINE#         2891
  C:17D9H         LINE#         2892
  C:17DAH         LINE#         2893
BL51 BANKED LINKER/LOCATER V4.16a           02/14/2007  11:03:22  PAGE 51


  C:17DDH         LINE#         2895
  C:17E0H         LINE#         2896
  C:17E3H         LINE#         2897
  C:17E6H         LINE#         2898
  C:17E8H         LINE#         2899
  C:17EAH         LINE#         2901
  C:17EDH         LINE#         2902
  C:17EEH         LINE#         2903
  C:17F0H         LINE#         2904
  C:17F2H         LINE#         2905
  C:17F4H         LINE#         2906
  C:17F5H         LINE#         2907
  C:17F7H         LINE#         2908
  C:17F9H         LINE#         2909
  C:17FCH         LINE#         2911
  C:17FFH         LINE#         2912
  C:1801H         LINE#         2913
  C:1804H         LINE#         2915
  C:1806H         LINE#         2916
  C:1807H         LINE#         2917
  C:1809H         LINE#         2918
  C:180AH         LINE#         2919
  C:180DH         LINE#         2920
  C:180FH         LINE#         2921
  C:1812H         LINE#         2922
  C:1814H         LINE#         2923
  C:1815H         LINE#         2924
  C:1817H         LINE#         2925
  C:1818H         LINE#         2926
  C:181AH         LINE#         2929
  C:181CH         LINE#         2930
  C:181FH         LINE#         2931
  C:1822H         LINE#         2932
  C:1824H         LINE#         2933
  C:1827H         LINE#         2934
  C:182AH         LINE#         2935
  C:182DH         LINE#         2936
  C:182FH         LINE#         2937
  C:1831H         LINE#         2938
  C:1833H         LINE#         2939
  C:1835H         LINE#         2940
  C:1836H         LINE#         2941
  C:1838H         LINE#         2942
  C:183BH         LINE#         2944
  C:183EH         LINE#         2946
  C:1840H         LINE#         2947
  C:1842H         LINE#         2948
  C:1844H         LINE#         2949
  C:1846H         LINE#         2950
  C:1848H         LINE#         2951
  C:184AH         LINE#         2952
  C:184CH         LINE#         2953
  C:184EH         LINE#         2954
  C:1850H         LINE#         2955
  C:1852H         LINE#         2956
  C:1854H         LINE#         2957
  C:1857H         LINE#         2958
  C:185AH         LINE#         2962
  C:185DH         LINE#         2963
  C:1860H         LINE#         2964
  C:1863H         LINE#         2965
  C:1865H         LINE#         2966
  C:1868H         LINE#         2967
  C:186BH         LINE#         2968
  C:186DH         LINE#         2969
BL51 BANKED LINKER/LOCATER V4.16a           02/14/2007  11:03:22  PAGE 52


  C:1870H         LINE#         2970
  C:1873H         LINE#         2971
  C:1875H         LINE#         2972
  C:1878H         LINE#         2973
  C:187BH         LINE#         2974
  C:187EH         LINE#         2976
  C:1881H         LINE#         2979
  C:1884H         LINE#         2980
  C:1886H         LINE#         2981
  C:1889H         LINE#         2982
  C:188CH         LINE#         2983
  C:188FH         LINE#         2985
  C:1892H         LINE#         2986
  C:1894H         LINE#         2987
  C:1897H         LINE#         2988
  C:189AH         LINE#         2989
  C:189DH         LINE#         2991
  C:189FH         LINE#         2992
  C:18A2H         LINE#         2993
  C:18A5H         LINE#         2994
  C:18A8H         LINE#         2996
  C:18ABH         LINE#         2997
  C:18ADH         LINE#         2998
  C:18B0H         LINE#         2999
  C:18B3H         LINE#         3000
  C:18B6H         LINE#         3001
  C:18B9H         LINE#         3002
  C:18BBH         LINE#         3003
  C:18BEH         LINE#         3004
  C:18C0H         LINE#         3005
  C:18C3H         LINE#         3006
  C:18C5H         LINE#         3008
  C:18C8H         LINE#         3009
  C:18CBH         LINE#         3010
  C:18CEH         LINE#         3011
  C:18D1H         LINE#         3012
  C:18D3H         LINE#         3013
  C:18D6H         LINE#         3014
  C:18D9H         LINE#         3015
  C:18DCH         LINE#         3016
  C:18DFH         LINE#         3017
  C:18E2H         LINE#         3018
  C:18E4H         LINE#         3020
  C:18E7H         LINE#         3021
  C:18EAH         LINE#         3022
  C:18EDH         LINE#         3023
  C:18F0H         LINE#         3025
  C:18F3H         LINE#         3026
  C:18F6H         LINE#         3027
  C:18F9H         LINE#         3028
  C:18FCH         LINE#         3029
  C:18FFH         LINE#         3031
  C:1900H         LINE#         3032
  C:1902H         LINE#         3033
  C:1904H         LINE#         3034
  C:1907H         LINE#         3035
  C:1909H         LINE#         3037
  C:190BH         LINE#         3041
  C:190EH         LINE#         3043
  C:1910H         LINE#         3044
  C:1912H         LINE#         3045
  C:1913H         LINE#         3046
  C:1915H         LINE#         3049
  C:1916H         LINE#         3050
  C:1917H         LINE#         3051
BL51 BANKED LINKER/LOCATER V4.16a           02/14/2007  11:03:22  PAGE 53


  C:1918H         LINE#         3053
  C:191AH         LINE#         3054
  C:191DH         LINE#         3055
  C:191FH         LINE#         3056
  C:1920H         LINE#         3057
  C:1923H         LINE#         3059
  C:1925H         LINE#         3060
  C:1927H         LINE#         3064
  C:192AH         LINE#         3065
  C:192CH         LINE#         3066
  C:192EH         LINE#         3067
  C:1930H         LINE#         3068
  C:1932H         LINE#         3069
  C:1934H         LINE#         3070
  C:1936H         LINE#         3071
  C:1939H         LINE#         3074
  C:193BH         LINE#         3075
  C:193DH         LINE#         3076
  C:1940H         LINE#         3077
  C:1943H         LINE#         3079
  C:1946H         LINE#         3080
  C:1949H         LINE#         3083
  C:194CH         LINE#         3084
  C:194FH         LINE#         3085
  C:1952H         LINE#         3088
  C:1955H         LINE#         3089
  C:1957H         LINE#         3090
  C:1959H         LINE#         3091
  C:195AH         LINE#         3092
  C:195CH         LINE#         3095
  C:195DH         LINE#         3096
  C:195EH         LINE#         3097
  C:195FH         LINE#         3099
  C:1961H         LINE#         3100
  C:1964H         LINE#         3101
  C:1966H         LINE#         3102
  C:1967H         LINE#         3103
  C:196AH         LINE#         3104
  C:196DH         LINE#         3108
  C:1970H         LINE#         3110
  C:1973H         LINE#         3111
  C:1975H         LINE#         3112
  C:1977H         LINE#         3113
  C:1978H         LINE#         3114
  C:197AH         LINE#         3117
  C:197BH         LINE#         3118
  C:197CH         LINE#         3119
  C:197DH         LINE#         3121
  C:197FH         LINE#         3122
  C:1982H         LINE#         3123
  C:1984H         LINE#         3124
  C:1985H         LINE#         3125
  C:1988H         LINE#         3126
  C:198BH         LINE#         3127
  C:198EH         LINE#         3129
  C:1991H         LINE#         3130
  C:1993H         LINE#         3131
  C:1995H         LINE#         3132
  C:1996H         LINE#         3133
  C:1998H         LINE#         3136
  C:1999H         LINE#         3137
  C:199AH         LINE#         3138
  C:199BH         LINE#         3140
  C:199DH         LINE#         3141
  C:19A0H         LINE#         3142
BL51 BANKED LINKER/LOCATER V4.16a           02/14/2007  11:03:22  PAGE 54


  C:19A2H         LINE#         3143
  C:19A3H         LINE#         3144
  C:19A6H         LINE#         3145
  C:19A9H         LINE#         3149
  C:19ACH         LINE#         3151
  C:19AFH         LINE#         3152
  C:19B1H         LINE#         3153
  C:19B3H         LINE#         3154
  C:19B4H         LINE#         3155
  C:19B6H         LINE#         3158
  C:19B7H         LINE#         3159
  C:19B8H         LINE#         3160
  C:19B9H         LINE#         3162
  C:19BBH         LINE#         3163
  C:19BEH         LINE#         3164
  C:19C0H         LINE#         3165
  C:19C1H         LINE#         3166
  C:19C4H         LINE#         3167
  C:19C7H         LINE#         3171
  C:19CAH         LINE#         3172
  C:19CCH         LINE#         3173
  C:19CEH         LINE#         3174
  C:19D0H         LINE#         3175
  C:19D2H         LINE#         3176
  C:19D5H         LINE#         3178
  C:19D7H         LINE#         3179
  C:19DAH         LINE#         3180
  C:19DDH         LINE#         3181
  C:19DFH         LINE#         3183
  C:19E1H         LINE#         3184
  C:19E3H         LINE#         3188
  C:19E6H         LINE#         3190
  C:19E9H         LINE#         3191
  C:19EBH         LINE#         3192
  C:19EEH         LINE#         3193
  C:19F1H         LINE#         3194
  C:19F3H         LINE#         3195
  C:19F6H         LINE#         3198
  C:19F8H         LINE#         3199
  C:19FBH         LINE#         3201
  C:19FEH         LINE#         3202
  C:1A01H         LINE#         3203
  C:1A03H         LINE#         3204
  C:1A06H         LINE#         3205
  C:1A08H         LINE#         3206
  C:1A0BH         LINE#         3207
  C:1A0EH         LINE#         3208
  C:1A10H         LINE#         3215
  C:1A12H         LINE#         3216
  C:1A14H         LINE#         3217
  C:1A15H         LINE#         3218
  C:1A16H         LINE#         3219
  C:1A17H         LINE#         3220
  C:1A19H         LINE#         3221
  C:1A1BH         LINE#         3223
  C:1A1DH         LINE#         3224
  C:1A1FH         LINE#         3225
  C:1A20H         LINE#         3226
  C:1A21H         LINE#         3227
  C:1A23H         LINE#         3228
  C:1A25H         LINE#         3229
  C:1A26H         LINE#         3231
  C:1A29H         LINE#         3232
  C:1A2BH         LINE#         3233
  C:1A2CH         LINE#         3234
BL51 BANKED LINKER/LOCATER V4.16a           02/14/2007  11:03:22  PAGE 55


  C:1A2FH         LINE#         3237
  C:1A32H         LINE#         3238
  C:1A34H         LINE#         3239
  C:1A37H         LINE#         3240
  C:1A3AH         LINE#         3241
  C:1A3CH         LINE#         3242
  C:1A3EH         LINE#         3243
  C:1A40H         LINE#         3244
  C:1A42H         LINE#         3245
  C:1A44H         LINE#         3248
  C:1A47H         LINE#         3249
  C:1A4AH         LINE#         3250
  C:1A4CH         LINE#         3251
  C:1A4FH         LINE#         3252
  C:1A52H         LINE#         3253
  C:1A55H         LINE#         3254
  C:1A58H         LINE#         3255
  C:1A5BH         LINE#         3257
  C:1A5DH         LINE#         3258
  C:1A5FH         LINE#         3270
  C:1A61H         LINE#         3271
  C:1A63H         LINE#         3272
  C:1A64H         LINE#         3273
  C:1A65H         LINE#         3274
  C:1A66H         LINE#         3275
  C:1A68H         LINE#         3277
  C:1A6AH         LINE#         3278
  C:1A6CH         LINE#         3279
  C:1A6DH         LINE#         3280
  C:1A6EH         LINE#         3281
  C:1A70H         LINE#         3282
  C:1A72H         LINE#         3283
  C:1A73H         LINE#         3285
  C:1A76H         LINE#         3286
  C:1A78H         LINE#         3287
  C:1A79H         LINE#         3288
  C:1A7CH         LINE#         3290
  C:1A7FH         LINE#         3291
  C:1A82H         LINE#         3292
  C:1A85H         LINE#         3293
  C:1A88H         LINE#         3294
  C:1A8BH         LINE#         3295
  C:1A8EH         LINE#         3297
  C:1A90H         LINE#         3299
  C:1A91H         LINE#         3300
  C:1A93H         LINE#         3301
  C:1A95H         LINE#         3302
  C:1A98H         LINE#         3303
  C:1A9AH         LINE#         3305
  C:1A9CH         LINE#         3306
  C:1A9FH         LINE#         3307
  C:1AA2H         LINE#         3308
  C:1AA4H         LINE#         3309
  C:1AA6H         LINE#         3310
  C:1AA7H         LINE#         3311
  C:1AA8H         LINE#         3312
  C:1AA9H         LINE#         3313
  C:1AAAH         LINE#         3314
  C:1AABH         LINE#         3315
  C:1AACH         LINE#         3316
  C:1AADH         LINE#         3317
  C:1AAEH         LINE#         3318
  C:1AAFH         LINE#         3319
  C:1AB0H         LINE#         3320
  C:1AB1H         LINE#         3322
BL51 BANKED LINKER/LOCATER V4.16a           02/14/2007  11:03:22  PAGE 56


  C:1AB3H         LINE#         3323
  C:1AB5H         LINE#         3324
  C:1AB8H         LINE#         3326
  C:1ABAH         LINE#         3327
  C:1ABCH         LINE#         3328
  C:1ABEH         LINE#         3329
  C:1ABFH         LINE#         3330
  C:1AC1H         LINE#         3331
  C:1AC2H         LINE#         3332
  C:1AC3H         LINE#         3333
  C:1AC4H         LINE#         3334
  C:1AC6H         LINE#         3335
  C:1AC8H         LINE#         3336
  C:1ACAH         LINE#         3337
  C:1ACDH         LINE#         3338
  C:1AD0H         LINE#         3339
  C:1AD2H         LINE#         3340
  C:1AD5H         LINE#         3341
  C:1AD8H         LINE#         3342
  C:1ADBH         LINE#         3344
  C:1ADEH         LINE#         3345
  C:1AE1H         LINE#         3346
  C:1AE4H         LINE#         3347
  C:1AE7H         LINE#         3349
  C:1AEAH         LINE#         3350
  C:1AEBH         LINE#         3351
  C:1AEDH         LINE#         3352
  C:1AEEH         LINE#         3353
  C:1AF0H         LINE#         3354
  C:1AF3H         LINE#         3355
  C:1AF6H         LINE#         3357
  C:1AF9H         LINE#         3360
  C:1AFCH         LINE#         3361
  C:1AFEH         LINE#         3363
  C:1B01H         LINE#         3365
  C:1B04H         LINE#         3366
  C:1B07H         LINE#         3367
  C:1B0AH         LINE#         3374
  C:1B0CH         LINE#         3375
  C:1B0EH         LINE#         3376
  C:1B10H         LINE#         3377
  C:1B11H         LINE#         3378
  C:1B12H         LINE#         3379
  C:1B13H         LINE#         3380
  C:1B15H         LINE#         3382
  C:1B17H         LINE#         3383
  C:1B19H         LINE#         3384
  C:1B1AH         LINE#         3385
  C:1B1BH         LINE#         3386
  C:1B1DH         LINE#         3387
  C:1B1FH         LINE#         3388
  C:1B20H         LINE#         3389
  C:1B23H         LINE#         3390
  C:1B26H         LINE#         3391
  C:1B29H         LINE#         3396
  C:1B2CH         LINE#         3397
  C:1B2FH         LINE#         3398
  C:1B31H         LINE#         3400
  C:1B33H         LINE#         3401
  C:1B35H         LINE#         3402
  C:1B38H         LINE#         3403
  C:1B3BH         LINE#         3404
  C:1B3DH         LINE#         3405
  C:1B3FH         LINE#         3406
  C:1B42H         LINE#         3407
BL51 BANKED LINKER/LOCATER V4.16a           02/14/2007  11:03:22  PAGE 57


  C:1B44H         LINE#         3408
  C:1B46H         LINE#         3409
  C:1B47H         LINE#         3410
  C:1B48H         LINE#         3411
  C:1B49H         LINE#         3412
  C:1B4AH         LINE#         3413
  C:1B4BH         LINE#         3414
  C:1B4CH         LINE#         3416
  C:1B4EH         LINE#         3417
  C:1B50H         LINE#         3418
  C:1B51H         LINE#         3419
  C:1B53H         LINE#         3420
  C:1B56H         LINE#         3421
  C:1B59H         LINE#         3422
  C:1B5BH         LINE#         3423
  C:1B5DH         LINE#         3424
  C:1B5FH         LINE#         3425
  C:1B61H         LINE#         3426
  C:1B63H         LINE#         3427
  C:1B66H         LINE#         3428
  C:1B69H         LINE#         3429
  C:1B6CH         LINE#         3431
  C:1B6FH         LINE#         3432
  C:1B72H         LINE#         3433
  C:1B75H         LINE#         3434
  C:1B78H         LINE#         3435
  C:1B7AH         LINE#         3439
  C:1B7DH         LINE#         3440
  C:1B80H         LINE#         3441
  C:1B83H         LINE#         3442
  C:1B86H         LINE#         3443
  C:1B89H         LINE#         3445
  C:1B8BH         LINE#         3446
  C:1B8DH         LINE#         3447
  C:1B8FH         LINE#         3448
  C:1B92H         LINE#         3449
  C:1B95H         LINE#         3450
  C:1B97H         LINE#         3451
  C:1B99H         LINE#         3452
  C:1B9CH         LINE#         3453
  C:1B9FH         LINE#         3454
  C:1BA2H         LINE#         3455
  C:1BA5H         LINE#         3457
  C:1BA8H         LINE#         3459
  C:1BABH         LINE#         3460
  C:1BAEH         LINE#         3461
  C:1BB1H         LINE#         3462
  C:1BB4H         LINE#         3463
  C:1BB7H         LINE#         3464
  C:1BB9H         LINE#         3465
  C:1BBBH         LINE#         3466
  C:1BBDH         LINE#         3469
  C:1BBFH         LINE#         3470
  C:1BC1H         LINE#         3471
  C:1BC3H         LINE#         3472
  C:1BC5H         LINE#         3473
  C:1BC8H         LINE#         3474
  C:1BCBH         LINE#         3475
  C:1BCEH         LINE#         3476
  C:1BD1H         LINE#         3478
  C:1BD4H         LINE#         3480
  C:1BD7H         LINE#         3481
  C:1BDAH         LINE#         3482
  C:1BDDH         LINE#         3483
  C:1BE0H         LINE#         3484
BL51 BANKED LINKER/LOCATER V4.16a           02/14/2007  11:03:22  PAGE 58


  C:1BE3H         LINE#         3485
  C:1BE5H         LINE#         3486
  C:1BE7H         LINE#         3487
  C:1BE8H         LINE#         3488
  C:1BE9H         LINE#         3489
  C:1BEBH         LINE#         3491
  C:1BEEH         LINE#         3492
  C:1BF1H         LINE#         3493
  C:1BF3H         LINE#         3494
  C:1BF6H         LINE#         3495
  C:1BF8H         LINE#         3496
  C:1BFBH         LINE#         3497
  C:1BFEH         LINE#         3498
  C:1C01H         LINE#         3499
  C:1C03H         LINE#         3500
  C:1C05H         LINE#         3502
  C:1C07H         LINE#         3503
  C:1C09H         LINE#         3504
  C:1C0CH         LINE#         3508
  C:1C0FH         LINE#         3511
  C:1C12H         LINE#         3512
  C:1C14H         LINE#         3514
  C:1C15H         LINE#         3515
  C:1C17H         LINE#         3516
  C:1C19H         LINE#         3517
  C:1C1CH         LINE#         3518
  C:1C1EH         LINE#         3519
  C:1C20H         LINE#         3520
  C:1C23H         LINE#         3521
  C:1C26H         LINE#         3522
  C:1C29H         LINE#         3523
  C:1C2BH         LINE#         3524
  C:1C2DH         LINE#         3525
  C:1C30H         LINE#         3526
  C:1C33H         LINE#         3527
  C:1C36H         LINE#         3528
  C:1C39H         LINE#         3529
  C:1C3CH         LINE#         3531
  C:1C3FH         LINE#         3532
  C:1C42H         LINE#         3533
  C:1C45H         LINE#         3534
  C:1C48H         LINE#         3535
  C:1C4BH         LINE#         3536
  C:1C4EH         LINE#         3537
  C:1C51H         LINE#         3538
  C:1C53H         LINE#         3539
  C:1C55H         LINE#         3540
  C:1C57H         LINE#         3541
  C:1C59H         LINE#         3542
  C:1C5BH         LINE#         3543
  C:1C5EH         LINE#         3544
  C:1C61H         LINE#         3545
  C:1C63H         LINE#         3546
  C:1C65H         LINE#         3547
  C:1C68H         LINE#         3548
  C:1C6BH         LINE#         3549
  C:1C6CH         LINE#         3550
  C:1C6EH         LINE#         3551
  C:1C71H         LINE#         3552
  C:1C74H         LINE#         3553
  C:1C77H         LINE#         3554
  C:1C7AH         LINE#         3555
  C:1C7DH         LINE#         3556
  C:1C80H         LINE#         3557
  C:1C83H         LINE#         3558
BL51 BANKED LINKER/LOCATER V4.16a           02/14/2007  11:03:22  PAGE 59


  C:1C86H         LINE#         3559
  C:1C88H         LINE#         3560
  C:1C8AH         LINE#         3561
  C:1C8CH         LINE#         3562
  C:1C8EH         LINE#         3563
  C:1C91H         LINE#         3564
  C:1C93H         LINE#         3565
  C:1C95H         LINE#         3566
  C:1C97H         LINE#         3567
  C:1C99H         LINE#         3568
  C:1C9BH         LINE#         3569
  C:1C9DH         LINE#         3570
  C:1C9EH         LINE#         3571
  C:1CA0H         LINE#         3572
  C:1CA1H         LINE#         3573
  C:1CA3H         LINE#         3574
  C:1CA4H         LINE#         3575
  C:1CA6H         LINE#         3576
  C:1CA7H         LINE#         3577
  C:1CA8H         LINE#         3580
  C:1CABH         LINE#         3581
  C:1CAEH         LINE#         3582
  C:1CB1H         LINE#         3583
  C:1CB4H         LINE#         3585
  C:1CB7H         LINE#         3589
  C:1CB9H         LINE#         3590
  C:1CBCH         LINE#         3591
  C:1CBEH         LINE#         3592
  C:1CC0H         LINE#         3593
  C:1CC3H         LINE#         3595
  C:1CC5H         LINE#         3596
  C:1CC7H         LINE#         3597
  C:1CC9H         LINE#         3598
  C:1CCAH         LINE#         3599
  C:1CCCH         LINE#         3600
  C:1CCDH         LINE#         3601
  C:1CCEH         LINE#         3602
  C:1CCFH         LINE#         3603
  C:1CD1H         LINE#         3604
  C:1CD3H         LINE#         3605
  C:1CD5H         LINE#         3606
  C:1CD7H         LINE#         3607
  C:1CD9H         LINE#         3608
  C:1CDCH         LINE#         3609
  C:1CDEH         LINE#         3610
  C:1CE0H         LINE#         3611
  C:1CE3H         LINE#         3612
  C:1CE5H         LINE#         3613
  C:1CE7H         LINE#         3614
  C:1CEAH         LINE#         3615
  C:1CECH         LINE#         3616
  C:1CEEH         LINE#         3617
  C:1CF1H         LINE#         3618
  C:1CF3H         LINE#         3619
  C:1CF5H         LINE#         3620
  C:1CF7H         LINE#         3622
  C:1CF9H         LINE#         3623
  C:1CFAH         LINE#         3624
  C:1CFDH         LINE#         3625
  C:1CFFH         LINE#         3626
  C:1D00H         LINE#         3627
  C:1D02H         LINE#         3628
  C:1D03H         LINE#         3629
  C:1D05H         LINE#         3630
  C:1D08H         LINE#         3632
BL51 BANKED LINKER/LOCATER V4.16a           02/14/2007  11:03:22  PAGE 60


  C:1D0AH         LINE#         3633
  C:1D0BH         LINE#         3634
  C:1D0DH         LINE#         3636
  C:1D0EH         LINE#         3637
  C:1D10H         LINE#         3638
  C:1D12H         LINE#         3639
  C:1D13H         LINE#         3640
  C:1D14H         LINE#         3641
  C:1D16H         LINE#         3646
  C:1D19H         LINE#         3647
  C:1D1CH         LINE#         3648
  C:1D1FH         LINE#         3649
  C:1D22H         LINE#         3652
  C:1D24H         LINE#         3653
  C:1D26H         LINE#         3654
  C:1D27H         LINE#         3655
  C:1D29H         LINE#         3656
  C:1D2CH         LINE#         3657
  C:1D2FH         LINE#         3658
  C:1D32H         LINE#         3659
  C:1D35H         LINE#         3660
  C:1D37H         LINE#         3661
  C:1D39H         LINE#         3662
  C:1D3BH         LINE#         3663
  C:1D3DH         LINE#         3664
  C:1D3FH         LINE#         3666
  C:1D41H         LINE#         3667
  C:1D43H         LINE#         3668
  C:1D44H         LINE#         3669
  C:1D46H         LINE#         3671
  C:1D48H         LINE#         3672
  C:1D49H         LINE#         3673
  C:1D4BH         LINE#         3674
  C:1D4DH         LINE#         3675
  C:1D4FH         LINE#         3677
  C:1D51H         LINE#         3678
  C:1D53H         LINE#         3679
  C:1D56H         LINE#         3680
  C:1D58H         LINE#         3681
  C:1D5AH         LINE#         3682
  C:1D5CH         LINE#         3683
  C:1D5DH         LINE#         3684
  C:1D5EH         LINE#         3685
  C:1D60H         LINE#         3687
  C:1D63H         LINE#         3688
  C:1D66H         LINE#         3689
  C:1D69H         LINE#         3690
  C:1D6BH         LINE#         3691
  C:1D6DH         LINE#         3692
  C:1D6FH         LINE#         3693
  C:1D70H         LINE#         3694
  C:1D72H         LINE#         3695
  C:1D73H         LINE#         3696
  C:1D74H         LINE#         3697
  C:1D75H         LINE#         3698
  C:1D77H         LINE#         3699
  C:1D7AH         LINE#         3700
  C:1D7DH         LINE#         3701
  C:1D80H         LINE#         3702
  C:1D83H         LINE#         3703
  C:1D85H         LINE#         3704
  C:1D87H         LINE#         3705
  C:1D88H         LINE#         3706
  C:1D8AH         LINE#         3707
  C:1D8BH         LINE#         3708
BL51 BANKED LINKER/LOCATER V4.16a           02/14/2007  11:03:22  PAGE 61


  C:1D8CH         LINE#         3709
  C:1D8EH         LINE#         3710
  C:1D8FH         LINE#         3711
  C:1D90H         LINE#         3712
  C:1D91H         LINE#         3713
  C:1D92H         LINE#         3714
  C:1D94H         LINE#         3715
  C:1D95H         LINE#         3716
  C:1D96H         LINE#         3717
  C:1D98H         LINE#         3718
  C:1D99H         LINE#         3719
  C:1D9CH         LINE#         3721
  C:1D9FH         LINE#         3722
  C:1DA1H         LINE#         3723
  C:1DA4H         LINE#         3724
  C:1DA7H         LINE#         3725
  C:1DAAH         LINE#         3726
  C:1DADH         LINE#         3727
  C:1DB0H         LINE#         3729
  C:1DB3H         LINE#         3730
  C:1DB5H         LINE#         3731
  C:1DB8H         LINE#         3732
  C:1DBBH         LINE#         3733
  C:1DBEH         LINE#         3734
  C:1DC1H         LINE#         3735
  C:1DC4H         LINE#         3737
  C:1DC7H         LINE#         3738
  C:1DC9H         LINE#         3739
  C:1DCCH         LINE#         3740
  C:1DCFH         LINE#         3741
  C:1DD2H         LINE#         3742
  C:1DD5H         LINE#         3743
  C:1DD8H         LINE#         3745
  C:1DDBH         LINE#         3746
  C:1DDDH         LINE#         3747
  C:1DE0H         LINE#         3748
  C:1DE3H         LINE#         3751
  C:1DE6H         LINE#         3752
  C:1DE8H         LINE#         3753
  C:1DEBH         LINE#         3754
  C:1DEEH         LINE#         3755
  C:1DF1H         LINE#         3756
  C:1DF4H         LINE#         3758
  C:1DF5H         LINE#         3759
  C:1DF8H         LINE#         3760
  C:1DFBH         LINE#         3762
  C:1DFEH         LINE#         3764
  C:1E01H         LINE#         3765
  C:1E04H         LINE#         3767
  C:1E07H         LINE#         3768
  C:1E09H         LINE#         3770
  C:1E0BH         LINE#         3771
  C:1E0DH         LINE#         3772
  C:1E10H         LINE#         3773
  C:1E12H         LINE#         3774
  C:1E15H         LINE#         3775
  C:1E18H         LINE#         3776
  C:1E1BH         LINE#         3777
  C:1E1EH         LINE#         3778
  C:1E20H         LINE#         3780
  C:1E23H         LINE#         3781
  C:1E26H         LINE#         3782
  C:1E29H         LINE#         3783
  C:1E2BH         LINE#         3784
  C:1E2EH         LINE#         3785
BL51 BANKED LINKER/LOCATER V4.16a           02/14/2007  11:03:22  PAGE 62


  C:1E31H         LINE#         3788
  C:1E34H         LINE#         3789
  C:1E36H         LINE#         3790
  C:1E38H         LINE#         3791
  C:1E3AH         LINE#         3792
  C:1E3BH         LINE#         3793
  C:1E3DH         LINE#         3794
  C:1E3FH         LINE#         3795
  C:1E42H         LINE#         3797
  C:1E44H         LINE#         3798
  C:1E46H         LINE#         3799
  C:1E49H         LINE#         3800
  C:1E4CH         LINE#         3801
  C:1E4EH         LINE#         3802
  C:1E51H         LINE#         3803
  C:1E53H         LINE#         3804
  C:1E55H         LINE#         3805
  C:1E58H         LINE#         3806
  C:1E5BH         LINE#         3808
  C:1E5EH         LINE#         3811
  C:1E60H         LINE#         3812
  C:1E62H         LINE#         3813
  C:1E63H         LINE#         3814
  C:1E64H         LINE#         3815
  C:1E66H         LINE#         3816
  C:1E69H         LINE#         3817
  C:1E6CH         LINE#         3818
  C:1E6FH         LINE#         3819
  C:1E71H         LINE#         3820
  C:1E74H         LINE#         3821
  C:1E77H         LINE#         3822
  C:1E7AH         LINE#         3824
  C:1E7BH         LINE#         3825
  C:1E7EH         LINE#         3826
  C:1E81H         LINE#         3827
  C:1E84H         LINE#         3829
  C:1E87H         LINE#         3830
  C:1E8AH         LINE#         3831
  C:1E8DH         LINE#         3833
  C:1E90H         LINE#         3834
  C:1E92H         LINE#         3835
  C:1E94H         LINE#         3836
  C:1E96H         LINE#         3837
  C:1E99H         LINE#         3838
  C:1E9CH         LINE#         3840
  C:1E9EH         LINE#         3843
  C:1EA0H         LINE#         3844
  C:1EA3H         LINE#         3845
  C:1EA6H         LINE#         3846
  C:1EA9H         LINE#         3847
  C:1EACH         LINE#         3848
  C:1EAFH         LINE#         3849
  C:1EB2H         LINE#         3854
  C:1EB4H         LINE#         3855
  C:1EB6H         LINE#         3856
  C:1EB8H         LINE#         3857
  C:1EBBH         LINE#         3862
  C:1EBDH         LINE#         3863
  C:1EBFH         LINE#         3864
  C:1EC2H         LINE#         3865
  C:1EC4H         LINE#         3866
  C:1EC5H         LINE#         3868
  C:1EC8H         LINE#         3869
  C:1ECAH         LINE#         3870
  C:1ECDH         LINE#         3872
BL51 BANKED LINKER/LOCATER V4.16a           02/14/2007  11:03:22  PAGE 63


  C:1ECFH         LINE#         3873
  C:1ED1H         LINE#         3874
  C:1ED4H         LINE#         3875
  C:1ED7H         LINE#         3877
  C:1EDAH         LINE#         3878
  C:1EDDH         LINE#         3879
  C:1EDFH         LINE#         3880
  C:1EE2H         LINE#         3881
  C:1EE4H         LINE#         3882
  C:1EE6H         LINE#         3883
  C:1EE9H         LINE#         3885
  C:1EECH         LINE#         3886
  C:1EEFH         LINE#         3888
  C:1EF2H         LINE#         3889
  C:1EF5H         LINE#         3890
  C:1EF8H         LINE#         3891
  C:1EFBH         LINE#         3892
  C:1EFEH         LINE#         3896
  C:1F00H         LINE#         3897
  C:1F02H         LINE#         3898
  C:1F05H         LINE#         3906
  C:1F07H         LINE#         3907
  C:1F09H         LINE#         3908
  C:1F0BH         LINE#         3909
  C:1F0CH         LINE#         3910
  C:1F0DH         LINE#         3911
  C:1F0FH         LINE#         3912
  C:1F10H         LINE#         3913
  C:1F11H         LINE#         3914
  C:1F12H         LINE#         3915
  C:1F14H         LINE#         3916
  C:1F16H         LINE#         3917
  C:1F18H         LINE#         3918
  C:1F1BH         LINE#         3919
  C:1F1DH         LINE#         3920
  C:1F1FH         LINE#         3921
  C:1F22H         LINE#         3922
  C:1F24H         LINE#         3923
  C:1F27H         LINE#         3924
  C:1F29H         LINE#         3925
  C:1F2CH         LINE#         3927
  C:1F2EH         LINE#         3928
  C:1F30H         LINE#         3929
  C:1F33H         LINE#         3930
  C:1F36H         LINE#         3933
  C:1F39H         LINE#         3934
  C:1F3BH         LINE#         3935
  C:1F3DH         LINE#         3936
  C:1F3FH         LINE#         3937
  C:1F41H         LINE#         3938
  C:1F44H         LINE#         3939
  C:1F47H         LINE#         3940
  C:1F4AH         LINE#         3942
  C:1F4CH         LINE#         3943
  C:1F4EH         LINE#         3944
  C:1F4FH         LINE#         3945
  C:1F52H         LINE#         3946
  C:1F54H         LINE#         3947
  C:1F55H         LINE#         3948
  C:1F57H         LINE#         3949
  C:1F59H         LINE#         3950
  C:1F5CH         LINE#         3952
  C:1F5EH         LINE#         3953
  C:1F5FH         LINE#         3954
  C:1F61H         LINE#         3957
BL51 BANKED LINKER/LOCATER V4.16a           02/14/2007  11:03:22  PAGE 64


  C:1F63H         LINE#         3958
  C:1F65H         LINE#         3959
  C:1F68H         LINE#         3960
  C:1F6BH         LINE#         3962
  C:1F6EH         LINE#         3964
  C:1F71H         LINE#         3965
  C:1F74H         LINE#         3966
  C:1F77H         LINE#         3967
  C:1F7AH         LINE#         3968
  C:1F7CH         LINE#         3969
  C:1F7EH         LINE#         3970
  C:1F80H         LINE#         3971
  C:1F82H         LINE#         3972
  C:1F85H         LINE#         3974
  C:1F88H         LINE#         3975
  C:1F8BH         LINE#         3976
  C:1F8EH         LINE#         3977
  C:1F90H         LINE#         3978
  C:1F93H         LINE#         3979
  C:1F96H         LINE#         3980
  C:1F99H         LINE#         3981
  C:1F9BH         LINE#         3982
  C:1F9EH         LINE#         3991
  C:1FA0H         LINE#         3992
  C:1FA2H         LINE#         3993
  C:1FA3H         LINE#         3994
  C:1FA4H         LINE#         3995
  C:1FA5H         LINE#         3996
  C:1FA7H         LINE#         3998
  C:1FA9H         LINE#         3999
  C:1FAAH         LINE#         4000
  C:1FACH         LINE#         4001
  C:1FAEH         LINE#         4002
  C:1FB1H         LINE#         4003
  C:1FB2H         LINE#         4004
  C:1FB5H         LINE#         4010
  C:1FB7H         LINE#         4011
  C:1FB9H         LINE#         4012
  C:1FBCH         LINE#         4020
  C:1FBEH         LINE#         4021
  C:1FC0H         LINE#         4022
  C:1FC2H         LINE#         4023
  C:1FC3H         LINE#         4024
  C:1FC4H         LINE#         4025
  C:1FC6H         LINE#         4026
  C:1FC7H         LINE#         4027
  C:1FC8H         LINE#         4028
  C:1FC9H         LINE#         4029
  C:1FCBH         LINE#         4031
  C:1FCDH         LINE#         4032
  C:1FCFH         LINE#         4033
  C:1FD2H         LINE#         4034
  C:1FD5H         LINE#         4035
  C:1FD8H         LINE#         4036
  C:1FDBH         LINE#         4037
  C:1FDEH         LINE#         4038
  C:1FE1H         LINE#         4039
  C:1FE3H         LINE#         4040
  C:1FE6H         LINE#         4041
  C:1FE8H         LINE#         4042
  C:1FEAH         LINE#         4044
  C:1FECH         LINE#         4045
  C:1FEEH         LINE#         4046
  C:1FF0H         LINE#         4047
  C:1FF2H         LINE#         4048
BL51 BANKED LINKER/LOCATER V4.16a           02/14/2007  11:03:22  PAGE 65


  C:1FF4H         LINE#         4049
  C:1FF5H         LINE#         4050
  C:1FF7H         LINE#         4051
  C:1FFAH         LINE#         4052
  C:1FFDH         LINE#         4055
  C:2000H         LINE#         4057
  C:2003H         LINE#         4059
  C:2006H         LINE#         4060
  C:2009H         LINE#         4061
  C:200CH         LINE#         4062
  C:200FH         LINE#         4063
  C:2012H         LINE#         4066
  C:2015H         LINE#         4069
  C:2018H         LINE#         4070
  C:201AH         LINE#         4071
  C:201DH         LINE#         4073
  C:2020H         LINE#         4075
  C:2023H         LINE#         4076
  C:2025H         LINE#         4077
  C:2028H         LINE#         4078
  C:202AH         LINE#         4079
  C:202CH         LINE#         4080
  C:202FH         LINE#         4081
  C:2032H         LINE#         4083
  C:2034H         LINE#         4084
  C:2035H         LINE#         4085
  C:2038H         LINE#         4087
  C:203BH         LINE#         4088
  C:203DH         LINE#         4097
  C:203FH         LINE#         4098
  C:2041H         LINE#         4099
  C:2042H         LINE#         4100
  C:2043H         LINE#         4101
  C:2044H         LINE#         4102
  C:2046H         LINE#         4104
  C:2048H         LINE#         4105
  C:2049H         LINE#         4106
  C:204BH         LINE#         4107
  C:204DH         LINE#         4108
  C:2050H         LINE#         4109
  C:2053H         LINE#         4110
  C:2054H         LINE#         4112
  C:2057H         LINE#         4113
  C:2059H         LINE#         4114
  C:205CH         LINE#         4115
  C:205EH         LINE#         4116
  C:205FH         LINE#         4117
  C:2062H         LINE#         4118
  C:2064H         LINE#         4121
  C:2066H         LINE#         4122
  C:2068H         LINE#         4123
  C:206BH         LINE#         4124
  C:206EH         LINE#         4126
  C:2070H         LINE#         4127
  C:2072H         LINE#         4128
  C:2075H         LINE#         4129
  C:2078H         LINE#         4130
  C:207BH         LINE#         4131
  C:207DH         LINE#         4132
  C:2080H         LINE#         4133
  C:2083H         LINE#         4134
  C:2086H         LINE#         4135
  C:2089H         LINE#         4136
  C:208BH         LINE#         4138
  C:208DH         LINE#         4139
BL51 BANKED LINKER/LOCATER V4.16a           02/14/2007  11:03:22  PAGE 66


  C:208FH         LINE#         4141
  C:2092H         LINE#         4142
  C:2095H         LINE#         4144
  C:2098H         LINE#         4146
  C:209BH         LINE#         4148
  C:209DH         LINE#         4149
  C:209FH         LINE#         4150
  C:20A2H         LINE#         4151
  C:20A5H         LINE#         4152
  C:20A8H         LINE#         4153
  C:20ABH         LINE#         4154
  C:20ADH         LINE#         4155
  C:20AFH         LINE#         4156
  C:20B1H         LINE#         4157
  C:20B3H         LINE#         4158
  C:20B5H         LINE#         4159
  C:20B7H         LINE#         4160
  C:20B9H         LINE#         4161
  C:20BBH         LINE#         4163
  C:20BEH         LINE#         4164
  C:20C0H         LINE#         4168
  C:20C2H         LINE#         4169
  C:20C4H         LINE#         4170
  C:20C7H         LINE#         4171
  C:20CAH         LINE#         4172
  C:20CCH         LINE#         4173
  C:20CEH         LINE#         4174
  C:20D1H         LINE#         4175
  C:20D4H         LINE#         4176
  C:20D7H         LINE#         4177
  C:20DAH         LINE#         4178
  C:20DBH         LINE#         4179
  C:20DDH         LINE#         4180
  C:20DEH         LINE#         4184
  C:20E0H         LINE#         4185
  C:20E2H         LINE#         4186
  C:20E4H         LINE#         4187
  C:20E6H         LINE#         4188
  C:20E9H         LINE#         4192
  C:20EBH         LINE#         4193
  C:20EDH         LINE#         4194
  C:20EFH         LINE#         4195
  C:20F1H         LINE#         4196
  C:20F3H         LINE#         4197
  C:20F5H         LINE#         4198
  C:20F7H         LINE#         4199
  C:20F9H         LINE#         4200
  C:20FBH         LINE#         4201
  C:20FDH         LINE#         4202
  C:20FFH         LINE#         4203
  C:2101H         LINE#         4204
  C:2104H         LINE#         4205
  C:2107H         LINE#         4207
  C:2109H         LINE#         4208
  C:210BH         LINE#         4209
  C:210DH         LINE#         4210
  C:210FH         LINE#         4211
  C:2110H         LINE#         4212
  C:2111H         LINE#         4214
  C:2113H         LINE#         4215
  C:2115H         LINE#         4216
  C:2117H         LINE#         4217
  C:2118H         LINE#         4223
  C:211AH         LINE#         4224
  C:211DH         LINE#         4225
BL51 BANKED LINKER/LOCATER V4.16a           02/14/2007  11:03:22  PAGE 67


  C:2120H         LINE#         4226
  C:2123H         LINE#         4227
  C:2124H         LINE#         4228
  C:2127H         LINE#         4229
  C:212AH         LINE#         4230
  C:212CH         LINE#         4231
  C:212FH         LINE#         4232
  C:2132H         LINE#         4233
  C:2134H         LINE#         4234
  C:2137H         LINE#         4235
  C:213AH         LINE#         4236
  C:213CH         LINE#         4237
  C:213FH         LINE#         4238
  C:2142H         LINE#         4239
  C:2144H         LINE#         4241
  C:2147H         LINE#         4242
  C:214AH         LINE#         4243
  C:214CH         LINE#         4244
  C:214FH         LINE#         4245
  C:2152H         LINE#         4246
  C:2154H         LINE#         4247
  C:2157H         LINE#         4248
  C:215AH         LINE#         4249
  C:215CH         LINE#         4250
  C:215FH         LINE#         4251
  C:2162H         LINE#         4252
  C:2164H         LINE#         4255
  C:2167H         LINE#         4256
  C:2169H         LINE#         4258
  C:216CH         LINE#         4260
  C:216FH         LINE#         4261
  C:2171H         LINE#         4262
  C:2174H         LINE#         4264
  C:2177H         LINE#         4265
  C:2178H         LINE#         4266
  C:217AH         LINE#         4267
  C:217BH         LINE#         4268
  C:217EH         LINE#         4269
  C:2180H         LINE#         4270
  C:2183H         LINE#         4271
  C:2186H         LINE#         4273
  C:2189H         LINE#         4274
  C:218CH         LINE#         4275
  C:218FH         LINE#         4276
  C:2192H         LINE#         4278
  C:2194H         LINE#         4279
  C:2197H         LINE#         4282
  C:2199H         LINE#         4283
  C:219BH         LINE#         4284
  C:219DH         LINE#         4285
  C:21A0H         LINE#         4287
  C:21A3H         LINE#         4288
  C:21A5H         LINE#         4289
  C:21A8H         LINE#         4290
  C:21A9H         LINE#         4291
  C:21AAH         LINE#         4292
  C:21ABH         LINE#         4293
  C:21ACH         LINE#         4294
  C:21ADH         LINE#         4295
  C:21AEH         LINE#         4296
  C:21AFH         LINE#         4297
  C:21B0H         LINE#         4298
  C:21B1H         LINE#         4299
  C:21B2H         LINE#         4300
  C:21B3H         LINE#         4304
BL51 BANKED LINKER/LOCATER V4.16a           02/14/2007  11:03:22  PAGE 68


  C:21B6H         LINE#         4305
  C:21B8H         LINE#         4306
  C:21BBH         LINE#         4308
  C:21BDH         LINE#         4309
  C:21BFH         LINE#         4310
  C:21C2H         LINE#         4311
  C:21C5H         LINE#         4313
  C:21C7H         LINE#         4314
  C:21CAH         LINE#         4316
  C:21CCH         LINE#         4318
  C:21CFH         LINE#         4319
  C:21D0H         LINE#         4320
  C:21D1H         LINE#         4321
  C:21D3H         LINE#         4322
  C:21D4H         LINE#         4323
  C:21D5H         LINE#         4324
  C:21D6H         LINE#         4325
  C:21D8H         LINE#         4326
  C:21DBH         LINE#         4330
  C:21DDH         LINE#         4331
  C:21DFH         LINE#         4332
  C:21E2H         LINE#         4333
  C:21E5H         LINE#         4334
  C:21E8H         LINE#         4335
  C:21EBH         LINE#         4336
  C:21EEH         LINE#         4337
  C:21F1H         LINE#         4339
  C:21F3H         LINE#         4340
  C:21F5H         LINE#         4341
  C:21F8H         LINE#         4342
  C:21FBH         LINE#         4343
  C:21FDH         LINE#         4344
  C:21FFH         LINE#         4345
  C:2201H         LINE#         4346
  C:2203H         LINE#         4347
  C:2205H         LINE#         4348
  C:2207H         LINE#         4349
  C:220AH         LINE#         4350
  C:220DH         LINE#         4351
  C:2210H         LINE#         4352
  C:2212H         LINE#         4353
  C:2214H         LINE#         4354
  C:2216H         LINE#         4355
  C:2218H         LINE#         4356
  C:221BH         LINE#         4358
  C:221EH         LINE#         4359
  C:2221H         LINE#         4360
  C:2224H         LINE#         4361
  C:2226H         LINE#         4362
  C:2228H         LINE#         4363
  C:222AH         LINE#         4364
  C:222CH         LINE#         4366
  C:222EH         LINE#         4367
  C:2231H         LINE#         4368
  C:2234H         LINE#         4369
  C:2237H         LINE#         4370
  C:2239H         LINE#         4371
  C:223BH         LINE#         4372
  C:223DH         LINE#         4373
  C:223FH         LINE#         4374
  C:2242H         LINE#         4376
  C:2245H         LINE#         4377
  C:2248H         LINE#         4378
  C:224BH         LINE#         4379
  C:224EH         LINE#         4380
BL51 BANKED LINKER/LOCATER V4.16a           02/14/2007  11:03:22  PAGE 69


  C:2250H         LINE#         4381
  C:2253H         LINE#         4383
  C:2255H         LINE#         4384
  C:2257H         LINE#         4385
  C:2259H         LINE#         4386
  C:225CH         LINE#         4388
  C:225EH         LINE#         4389
  C:2261H         LINE#         4390
  C:2263H         LINE#         4392
  C:2264H         LINE#         4393
  C:2265H         LINE#         4394
  C:2266H         LINE#         4395
  C:2267H         LINE#         4396
  C:2268H         LINE#         4397
  C:2269H         LINE#         4398
  C:226AH         LINE#         4399
  C:226BH         LINE#         4400
  C:226CH         LINE#         4401
  C:226DH         LINE#         4402
  C:226EH         LINE#         4406
  C:2271H         LINE#         4407
  C:2273H         LINE#         4408
  C:2276H         LINE#         4410
  C:2278H         LINE#         4411
  C:227AH         LINE#         4412
  C:227DH         LINE#         4413
  C:2280H         LINE#         4415
  C:2282H         LINE#         4416
  C:2285H         LINE#         4417
  C:2288H         LINE#         4422
  C:228BH         LINE#         4423
  C:228DH         LINE#         4424
  C:228FH         LINE#         4425
  C:2290H         LINE#         4426
  C:2291H         LINE#         4427
  C:2293H         LINE#         4428
  C:2294H         LINE#         4429
  C:2296H         LINE#         4430
  C:2299H         LINE#         4431
  C:229BH         LINE#         4432
  C:229DH         LINE#         4433
  C:22A0H         LINE#         4434
  C:22A2H         LINE#         4435
  C:22A3H         LINE#         4436
  C:22A5H         LINE#         4437
  C:22A6H         LINE#         4439
  C:22A8H         LINE#         4440
  C:22A9H         LINE#         4441
  C:22ABH         LINE#         4442
  C:22ACH         LINE#         4443
  C:22ADH         LINE#         4444
  C:22AFH         LINE#         4446
  C:22B0H         LINE#         4447
  C:22B2H         LINE#         4448
  C:22B4H         LINE#         4449
  C:22B6H         LINE#         4450
  C:22B8H         LINE#         4451
  C:22BAH         LINE#         4452
  C:22BCH         LINE#         4454
  C:22BEH         LINE#         4455
  C:22C0H         LINE#         4456
  C:22C1H         LINE#         4457
  C:22C2H         LINE#         4458
  C:22C4H         LINE#         4459
  C:22C5H         LINE#         4461
BL51 BANKED LINKER/LOCATER V4.16a           02/14/2007  11:03:22  PAGE 70


  C:22C6H         LINE#         4462
  C:22C8H         LINE#         4463
  C:22C9H         LINE#         4464
  C:22CAH         LINE#         4465
  C:22CCH         LINE#         4466
  C:22CEH         LINE#         4467
  C:22CFH         LINE#         4468
  C:22D0H         LINE#         4469
  C:22D2H         LINE#         4473
  C:22D5H         LINE#         4474
  C:22D8H         LINE#         4475
  C:22DBH         LINE#         4476
  C:22DDH         LINE#         4477
  C:22E0H         LINE#         4478
  C:22E3H         LINE#         4479
  C:22E5H         LINE#         4480
  C:22E8H         LINE#         4481
  C:22EAH         LINE#         4482
  C:22EBH         LINE#         4483
  C:22EDH         LINE#         4485
  C:22F0H         LINE#         4486
  C:22F3H         LINE#         4487
  C:22F6H         LINE#         4488
  C:22F8H         LINE#         4489
  C:22FBH         LINE#         4490
  C:22FEH         LINE#         4491
  C:2300H         LINE#         4492
  C:2303H         LINE#         4493
  C:2304H         LINE#         4494
  C:2305H         LINE#         4495
  C:2306H         LINE#         4496
  C:2307H         LINE#         4497
  C:2309H         LINE#         4498
  C:230AH         LINE#         4499
  C:230CH         LINE#         4500
  C:230DH         LINE#         4501
  C:2310H         LINE#         4502
  C:2313H         LINE#         4503
  C:2315H         LINE#         4504
  C:2318H         LINE#         4505
  C:231BH         LINE#         4506
  C:231EH         LINE#         4507
  C:2321H         LINE#         4508
  C:2324H         LINE#         4509
  C:2327H         LINE#         4510
  C:232AH         LINE#         4511
  C:232CH         LINE#         4512
  C:232FH         LINE#         4515
  C:2331H         LINE#         4516
  C:2333H         LINE#         4517
  C:2336H         LINE#         4519
  C:2338H         LINE#         4520
  C:233AH         LINE#         4521
  C:233CH         LINE#         4522
  C:233DH         LINE#         4523
  C:233FH         LINE#         4524
  C:2340H         LINE#         4525
  C:2341H         LINE#         4526
  C:2342H         LINE#         4527
  C:2344H         LINE#         4528
  C:2346H         LINE#         4529
  C:2348H         LINE#         4530
  C:234BH         LINE#         4531
  C:234DH         LINE#         4532
  C:2350H         LINE#         4533
BL51 BANKED LINKER/LOCATER V4.16a           02/14/2007  11:03:22  PAGE 71


  C:2351H         LINE#         4536
  C:2352H         LINE#         4537
  C:2353H         LINE#         4538
  C:2354H         LINE#         4539
  C:2355H         LINE#         4540
  C:2356H         LINE#         4541
  C:2357H         LINE#         4542
  C:2358H         LINE#         4543
  C:2359H         LINE#         4544
  C:235AH         LINE#         4545
  C:235BH         LINE#         4546
  C:235CH         LINE#         4547
  C:235DH         LINE#         4549
  C:235EH         LINE#         4550
  C:2360H         LINE#         4551
  C:2362H         LINE#         4552
  C:2364H         LINE#         4553
  C:2366H         LINE#         4554
  C:2368H         LINE#         4555
  C:236AH         LINE#         4556
  C:236BH         LINE#         4560
  C:236EH         LINE#         4563
  C:2371H         LINE#         4565
  C:2373H         LINE#         4567
  C:2374H         LINE#         4568
  C:2375H         LINE#         4569
  C:2376H         LINE#         4570
  C:2377H         LINE#         4571
  C:2378H         LINE#         4572
  C:2379H         LINE#         4573
  C:237AH         LINE#         4574
  C:237BH         LINE#         4575
  C:237CH         LINE#         4576
  C:237DH         LINE#         4577
  C:237EH         LINE#         4578
  C:237FH         LINE#         4579
  C:2380H         LINE#         4580
  C:2381H         LINE#         4581
  C:2382H         LINE#         4583
  C:2384H         LINE#         4584
  C:2387H         LINE#         4585
  C:238AH         LINE#         4586
  C:238CH         LINE#         4587
  C:238FH         LINE#         4589
  C:2392H         LINE#         4592
  C:2394H         LINE#         4593
  C:2396H         LINE#         4594
  C:2397H         LINE#         4595
  C:2398H         LINE#         4596
  C:239AH         LINE#         4597
  C:239BH         LINE#         4599
  C:239DH         LINE#         4600
  C:239FH         LINE#         4601
  C:23A2H         LINE#         4602
  C:23A4H         LINE#         4603
  C:23A5H         LINE#         4604
  C:23A7H         LINE#         4605
  C:23A8H         LINE#         4607
  C:23AAH         LINE#         4608
  C:23ABH         LINE#         4609
  C:23ADH         LINE#         4610
  C:23AEH         LINE#         4611
  C:23AFH         LINE#         4612
  C:23B1H         LINE#         4614
  C:23B2H         LINE#         4615
BL51 BANKED LINKER/LOCATER V4.16a           02/14/2007  11:03:22  PAGE 72


  C:23B4H         LINE#         4616
  C:23B6H         LINE#         4617
  C:23B8H         LINE#         4618
  C:23BAH         LINE#         4619
  C:23BCH         LINE#         4620
  C:23BEH         LINE#         4622
  C:23C0H         LINE#         4623
  C:23C2H         LINE#         4624
  C:23C3H         LINE#         4625
  C:23C4H         LINE#         4626
  C:23C6H         LINE#         4627
  C:23C7H         LINE#         4629
  C:23C8H         LINE#         4630
  C:23CAH         LINE#         4631
  C:23CBH         LINE#         4632
  C:23CCH         LINE#         4633
  C:23CEH         LINE#         4634
  C:23D0H         LINE#         4635
  C:23D1H         LINE#         4636
  C:23D2H         LINE#         4637
  C:23D4H         LINE#         4641
  C:23D6H         LINE#         4642
  C:23D9H         LINE#         4644
  C:23DCH         LINE#         4645
  C:23DFH         LINE#         4647
  C:23E2H         LINE#         4649
  C:23E5H         LINE#         4650
  C:23E7H         LINE#         4651
  C:23E9H         LINE#         4652
  C:23ECH         LINE#         4653
  C:23EEH         LINE#         4654
  C:23EFH         LINE#         4655
  C:23F1H         LINE#         4657
  C:23F3H         LINE#         4658
  C:23F6H         LINE#         4660
  C:23F9H         LINE#         4661
  C:23FCH         LINE#         4663
  C:23FFH         LINE#         4665
  C:2402H         LINE#         4666
  C:2404H         LINE#         4667
  C:2406H         LINE#         4668
  C:2409H         LINE#         4671
  C:240BH         LINE#         4672
  C:240EH         LINE#         4676
  C:2411H         LINE#         4677
  C:2414H         LINE#         4678
  C:2417H         LINE#         4679
  C:241AH         LINE#         4681
  C:241DH         LINE#         4682
  C:241FH         LINE#         4683
  C:2422H         LINE#         4686
  C:2424H         LINE#         4687
  C:2426H         LINE#         4688
  C:2429H         LINE#         4690
  C:242BH         LINE#         4691
  C:242DH         LINE#         4692
  C:242FH         LINE#         4693
  C:2430H         LINE#         4694
  C:2432H         LINE#         4695
  C:2433H         LINE#         4696
  C:2434H         LINE#         4697
  C:2435H         LINE#         4698
  C:2437H         LINE#         4699
  C:2439H         LINE#         4700
  C:243BH         LINE#         4701
BL51 BANKED LINKER/LOCATER V4.16a           02/14/2007  11:03:22  PAGE 73


  C:243EH         LINE#         4702
  C:2440H         LINE#         4703
  C:2443H         LINE#         4704
  C:2444H         LINE#         4710
  C:2447H         LINE#         4714
  C:244AH         LINE#         4716
  C:244CH         LINE#         4718
  C:244DH         LINE#         4719
  C:244EH         LINE#         4720
  C:244FH         LINE#         4721
  C:2450H         LINE#         4722
  C:2451H         LINE#         4723
  C:2452H         LINE#         4724
  C:2453H         LINE#         4725
  C:2454H         LINE#         4726
  C:2455H         LINE#         4727
  C:2456H         LINE#         4728
  C:2457H         LINE#         4729
  C:2458H         LINE#         4730
  C:2459H         LINE#         4731
  C:245AH         LINE#         4732
  C:245BH         LINE#         4734
  C:245DH         LINE#         4735
  C:2460H         LINE#         4736
  C:2463H         LINE#         4737
  C:2465H         LINE#         4738
  C:2468H         LINE#         4740
  C:246BH         LINE#         4743
  C:246DH         LINE#         4744
  C:246FH         LINE#         4745
  C:2470H         LINE#         4746
  C:2471H         LINE#         4747
  C:2473H         LINE#         4748
  C:2474H         LINE#         4750
  C:2476H         LINE#         4751
  C:2478H         LINE#         4752
  C:247BH         LINE#         4753
  C:247DH         LINE#         4754
  C:247EH         LINE#         4755
  C:2480H         LINE#         4756
  C:2481H         LINE#         4758
  C:2483H         LINE#         4759
  C:2484H         LINE#         4760
  C:2486H         LINE#         4761
  C:2487H         LINE#         4762
  C:2488H         LINE#         4763
  C:248AH         LINE#         4765
  C:248BH         LINE#         4766
  C:248DH         LINE#         4767
  C:248FH         LINE#         4768
  C:2491H         LINE#         4769
  C:2493H         LINE#         4770
  C:2495H         LINE#         4771
  C:2497H         LINE#         4773
  C:2499H         LINE#         4774
  C:249BH         LINE#         4775
  C:249CH         LINE#         4776
  C:249DH         LINE#         4777
  C:249FH         LINE#         4778
  C:24A0H         LINE#         4780
  C:24A1H         LINE#         4781
  C:24A3H         LINE#         4782
  C:24A4H         LINE#         4783
  C:24A5H         LINE#         4784
  C:24A7H         LINE#         4785
BL51 BANKED LINKER/LOCATER V4.16a           02/14/2007  11:03:22  PAGE 74


  C:24A9H         LINE#         4786
  C:24AAH         LINE#         4787
  C:24ABH         LINE#         4788
  C:24ADH         LINE#         4792
  C:24AFH         LINE#         4793
  C:24B2H         LINE#         4795
  C:24B5H         LINE#         4796
  C:24B8H         LINE#         4798
  C:24BBH         LINE#         4800
  C:24BEH         LINE#         4801
  C:24C0H         LINE#         4802
  C:24C2H         LINE#         4803
  C:24C5H         LINE#         4804
  C:24C7H         LINE#         4805
  C:24C8H         LINE#         4806
  C:24CAH         LINE#         4807
  C:24CCH         LINE#         4808
  C:24CFH         LINE#         4810
  C:24D2H         LINE#         4811
  C:24D5H         LINE#         4813
  C:24D8H         LINE#         4815
  C:24DBH         LINE#         4816
  C:24DDH         LINE#         4817
  C:24DFH         LINE#         4818
  C:24E2H         LINE#         4821
  -------         ENDMOD        MAIN

LINK/LOCATE RUN COMPLETE.  0 WARNING(S),  0 ERROR(S)
