BL51 BANKED LINKER/LOCATER V4.16a             02/26/2007  12:28:42  PAGE 1


BL51 BANKED LINKER/LOCATER V4.16a, INVOKED BY:
D:\PROGRAM FILES\CYGNAL\IDEFILES\C51\BIN\BL51.EXE D:\AMP\AMP33_2.OBJ TO D:\AMP
>> \AMP33_2 RS (256) PL (68) PW (78)


INPUT MODULES INCLUDED:
  D:\AMP\AMP33_2.OBJ (MAIN)


LINK MAP OF MODULE:  D:\AMP\AMP33_2 (MAIN)


            TYPE    BASE      LENGTH    RELOCATION   SEGMENT NAME
            -----------------------------------------------------

            * * * * * * *   D A T A   M E M O R Y   * * * * * * *
            REG     0000H     0008H     ABSOLUTE     "REG BANK 0"

            * * * * * * *   C O D E   M E M O R Y   * * * * * * *
            CODE    0000H     04C9H     ABSOLUTE     
            CODE    04C9H     2C0CH     UNIT         MAIN



SYMBOL TABLE OF MODULE:  D:\AMP\AMP33_2 (MAIN)

  VALUE           TYPE          NAME
  ----------------------------------

  -------         MODULE        MAIN
  C:04C9H         SEGMENT       MAIN
  X:0100H         PUBLIC        MASS0
  B:00C0H.2       SYMBOL        AA
  C:087DH         SYMBOL        AAPAR
  D:004FH         SYMBOL        ABIN
  C:28E7H         SYMBOL        ABRET
  C:03F3H         SYMBOL        ABTOF
  B:00D0H.6       SYMBOL        AC
  D:00E0H         SYMBOL        ACC
  B:00E8H.4       SYMBOL        AD0BUSY
  B:00E8H.7       SYMBOL        AD0EN
  B:00E8H.5       SYMBOL        AD0INT
  B:00E8H.0       SYMBOL        AD0LJST
  B:00E8H.2       SYMBOL        AD0STM0
  B:00E8H.3       SYMBOL        AD0STM1
  B:00E8H.6       SYMBOL        AD0TM
  B:00E8H.1       SYMBOL        AD0WINT
  D:00BCH         SYMBOL        ADC0CF
  D:00E8H         SYMBOL        ADC0CN
  D:00C5H         SYMBOL        ADC0GTH
  D:00C4H         SYMBOL        ADC0GTL
  D:00BFH         SYMBOL        ADC0H
  D:00BEH         SYMBOL        ADC0L
  D:00C7H         SYMBOL        ADC0LTH
  D:00C6H         SYMBOL        ADC0LTL
  D:009CH         SYMBOL        ADC1
  D:00ABH         SYMBOL        ADC1CF
  D:00AAH         SYMBOL        ADC1CN
  C:30ACH         SYMBOL        ADDX
  D:0053H         SYMBOL        ADEC
  C:2D60H         SYMBOL        ADRBLOK
  C:0B74H         SYMBOL        AFTERK
  C:0717H         SYMBOL        AGE2
  C:0D3AH         SYMBOL        AGE9
  C:0725H         SYMBOL        AGEON
  C:081BH         SYMBOL        ALLSUM
BL51 BANKED LINKER/LOCATER V4.16a           02/26/2007  12:28:42  PAGE 2


  C:2FF3H         SYMBOL        ALMUL
  C:0402H         SYMBOL        ALTOF
  C:041EH         SYMBOL        ALTOF1
  D:00BAH         SYMBOL        AMX0CF
  D:00BBH         SYMBOL        AMX0SL
  D:00ACH         SYMBOL        AMX1SL
  C:0ADAH         SYMBOL        ANKOR
  C:16C2H         SYMBOL        AN_T7
  C:114AH         SYMBOL        AUTOKA
  C:0CA5H         SYMBOL        AVPGO
  C:0B36H         SYMBOL        AVTDEC1
  C:03FCH         SYMBOL        AWTOF
  D:00F0H         SYMBOL        B
  C:05C9H         SYMBOL        BEGIN
  C:2C9DH         SYMBOL        BFORM
  B:0021H.5       SYMBOL        BIFL_KT
  C:2E0FH         SYMBOL        BIN30
  C:2E13H         SYMBOL        BIN31
  C:2E23H         SYMBOL        BIN32
  C:2E34H         SYMBOL        BIN41
  C:2E03H         SYMBOL        BINDEC
  B:0023H.2       SYMBOL        BITAKT
  B:0020H.5       SYMBOL        BITAVP
  B:0021H.2       SYMBOL        BITBON
  B:0021H.0       SYMBOL        BITBUF
  B:0022H.5       SYMBOL        BITEIZM
  B:0020H.4       SYMBOL        BITIZM
  B:0022H.2       SYMBOL        BITKLB
  B:0020H.1       SYMBOL        BITMAS
  B:0021H.3       SYMBOL        BITMEM
  B:0022H.1       SYMBOL        BITMENU
  B:0023H.1       SYMBOL        BITMIG
  B:0021H.7       SYMBOL        BITNUL
  B:0022H.7       SYMBOL        BITOLL
  B:0022H.6       SYMBOL        BITPAR
  B:0021H.1       SYMBOL        BITPRD
  B:0020H.3       SYMBOL        BITRS
  B:0022H.0       SYMBOL        BITT2
  B:0022H.3       SYMBOL        BITV19
  B:0020H.6       SYMBOL        BITVI11
  B:0022H.4       SYMBOL        BITVICH
  B:0020H.0       SYMBOL        BITZNAK
  B:0023H.3       SYMBOL        BITZNB
  B:0020H.7       SYMBOL        BITZUS
  C:1B60H         SYMBOL        BLOIN
  C:1B32H         SYMBOL        BLOKVV
  C:1B3CH         SYMBOL        BLOKVVC
  C:1AFDH         SYMBOL        BL_LI
  C:111DH         SYMBOL        BONPART
  C:189BH         SYMBOL        BOUT7
  C:2728H         SYMBOL        BRET
  C:0E82H         SYMBOL        BUFDEC
  D:0040H         SYMBOL        BUFIND
  C:25D2H         SYMBOL        BUFL_DEC
  C:2429H         SYMBOL        BUFMEA
  C:251CH         SYMBOL        BUFMIN
  C:12A3H         SYMBOL        BUFON
  C:0DDFH         SYMBOL        BUFR
  C:0DC1H         SYMBOL        BUFR2
  C:0DBAH         SYMBOL        BUFR3
  C:0DBDH         SYMBOL        BUFR30
  B:00D8H.0       SYMBOL        CCF0
  B:00D8H.1       SYMBOL        CCF1
  B:00D8H.2       SYMBOL        CCF2
  B:00D8H.3       SYMBOL        CCF3
BL51 BANKED LINKER/LOCATER V4.16a           02/26/2007  12:28:42  PAGE 3


  B:00D8H.4       SYMBOL        CCF4
  C:01F7H         SYMBOL        CDONE
  D:0020H         SYMBOL        CELLBIT
  D:0021H         SYMBOL        CELLBIT1
  D:0022H         SYMBOL        CELLBIT2
  D:0023H         SYMBOL        CELLBIT3
  C:01E2H         SYMBOL        CEXP
  B:00D8H.7       SYMBOL        CF
  C:27CBH         SYMBOL        CH0
  C:27EBH         SYMBOL        CH1
  C:27CFH         SYMBOL        CH10
  C:27E3H         SYMBOL        CH100
  C:27DFH         SYMBOL        CH10000
  C:2833H         SYMBOL        CH150H
  C:27E7H         SYMBOL        CH2
  C:29AEH         SYMBOL        CH20
  C:2813H         SYMBOL        CH2THO
  C:282FH         SYMBOL        CH320H
  C:27D7H         SYMBOL        CH4
  C:1D6BH         SYMBOL        CH43
  C:1E11H         SYMBOL        CH43_42
  C:27D3H         SYMBOL        CH5
  C:29AAH         SYMBOL        CH57
  C:27DBH         SYMBOL        CH954
  C:19ABH         SYMBOL        CHAIBL
  C:1CC0H         SYMBOL        CHAIPR
  C:1472H         SYMBOL        CHANMA
  C:1459H         SYMBOL        CHANZ
  D:0081H         SYMBOL        CHAVT
  D:009BH         SYMBOL        CHBEFORE
  D:00D6H         SYMBOL        CHBLOK
  D:00CFH         SYMBOL        CHBUF
  X:0E00H         SYMBOL        CHBUF1
  C:26CBH         SYMBOL        CHCMP
  C:26DEH         SYMBOL        CHDEC
  D:0083H         SYMBOL        CHDEL
  C:1108H         SYMBOL        CHDELMO
  C:29F3H         SYMBOL        CHIF
  C:29FBH         SYMBOL        CHIF5
  C:2A1EH         SYMBOL        CHIFB
  C:2A24H         SYMBOL        CHIFB1
  C:2A2CH         SYMBOL        CHIFL5
  C:2A0DH         SYMBOL        CHIFOUR
  D:00ACH         SYMBOL        CHIND
  D:0033H         SYMBOL        CHIND2
  D:0098H         SYMBOL        CHINKOR
  C:282BH         SYMBOL        CHK
  D:003DH         SYMBOL        CHKL
  D:006EH         SYMBOL        CHMAS
  D:003FH         SYMBOL        CHMASN
  C:2D45H         SYMBOL        CHMINUS
  C:2675H         SYMBOL        CHTADC
  C:280BH         SYMBOL        CHTHO
  C:28B2H         SYMBOL        CHTHOU
  C:27C7H         SYMBOL        CHZAP
  C:27F3H         SYMBOL        CH_1
  C:2823H         SYMBOL        CH_10
  C:281FH         SYMBOL        CH_10TH
  C:27F7H         SYMBOL        CH_2
  C:281BH         SYMBOL        CH_200
  C:2817H         SYMBOL        CH_220
  C:28F0H         SYMBOL        CH_22T
  C:2827H         SYMBOL        CH_250
  C:27FBH         SYMBOL        CH_4
  C:27FFH         SYMBOL        CH_5
BL51 BANKED LINKER/LOCATER V4.16a           02/26/2007  12:28:42  PAGE 4


  C:28ECH         SYMBOL        CH_500
  C:2803H         SYMBOL        CH_7
  C:2807H         SYMBOL        CH_953
  C:28E8H         SYMBOL        CH_B
  C:28F4H         SYMBOL        CH_FL
  C:2837H         SYMBOL        CH_M3
  C:27EFH         SYMBOL        CH_MLN
  C:2C73H         SYMBOL        CIKLWR
  D:008EH         SYMBOL        CKCON
  C:2849H         SYMBOL        CL4
  C:284FH         SYMBOL        CL4N
  C:1DFEH         SYMBOL        CLE20
  C:043EH         SYMBOL        CLE256
  C:2DFDH         SYMBOL        CLEAR
  C:2846H         SYMBOL        CLEAR4
  C:284EH         SYMBOL        CLEARN
  C:2C63H         SYMBOL        CLMASSIX
  C:0CAAH         SYMBOL        CLMASV
  C:2C68H         SYMBOL        CLMAX
  C:2DFEH         SYMBOL        CLR11
  C:2DF7H         SYMBOL        CLRDEC
  C:2DFBH         SYMBOL        CLRNUM
  C:180BH         SYMBOL        CLRVICH
  N:0006H         SYMBOL        CNTR
  C:27AFH         SYMBOL        CO02S
  C:27BCH         SYMBOL        CO05S
  C:27A6H         SYMBOL        CO1S
  C:27A2H         SYMBOL        CO2S
  C:0D56H         SYMBOL        COMPA1
  C:0D8CH         SYMBOL        COMPA2
  C:2CD7H         SYMBOL        COND
  C:049FH         SYMBOL        COPY1
  C:0499H         SYMBOL        COPYPP
  D:00D7H         SYMBOL        COPY_HL
  C:2784H         SYMBOL        COUNT
  B:00C8H.0       SYMBOL        CPRL2
  D:009EH         SYMBOL        CPT0CN
  D:009FH         SYMBOL        CPT1CN
  B:00D8H.6       SYMBOL        CR
  C:278BH         SYMBOL        CT
  B:00C8H.1       SYMBOL        CT2
  B:00D0H.7       SYMBOL        CY
  D:00D4H         SYMBOL        DAC0CN
  D:00D3H         SYMBOL        DAC0H
  D:00D2H         SYMBOL        DAC0L
  D:00D7H         SYMBOL        DAC1CN
  D:00D6H         SYMBOL        DAC1H
  D:00D5H         SYMBOL        DAC1L
  C:2CDCH         SYMBOL        DCOA
  C:2CE3H         SYMBOL        DCOB
  C:2CEEH         SYMBOL        DCOC
  C:2CFBH         SYMBOL        DCOD
  C:1AB2H         SYMBOL        DDOUTF
  C:198FH         SYMBOL        DDOUTFR
  C:2E50H         SYMBOL        DEC30
  C:2E55H         SYMBOL        DEC31
  C:2E65H         SYMBOL        DEC32
  C:2E43H         SYMBOL        DECBIN
  N:000AH         SYMBOL        DECSIZE
  C:2E6EH         SYMBOL        DECT2
  C:30C3H         SYMBOL        DEDPTR
  C:0133H         SYMBOL        DENORM
  C:1C44H         SYMBOL        DGOTO7
  D:00AEH         SYMBOL        DIAP
  C:12C8H         SYMBOL        DIINC
BL51 BANKED LINKER/LOCATER V4.16a           02/26/2007  12:28:42  PAGE 5


  C:2982H         SYMBOL        DIKDN
  C:289AH         SYMBOL        DIKDW
  C:28B0H         SYMBOL        DIKM
  C:28AEH         SYMBOL        DIPAR
  C:02DDH         SYMBOL        DIV1
  C:0320H         SYMBOL        DIV2
  C:030DH         SYMBOL        DIV3
  C:0336H         SYMBOL        DIV9
  C:2F2EH         SYMBOL        DIVIDE
  C:2E9DH         SYMBOL        DONE
  C:2E9BH         SYMBOL        DONE1
  C:2FB7H         SYMBOL        DOSH
  C:2FA5H         SYMBOL        DOSUB
  D:0083H         SYMBOL        DPH
  D:0082H         SYMBOL        DPL
  C:0F63H         SYMBOL        DVIG0
  C:0F58H         SYMBOL        DVIG1
  C:0F4DH         SYMBOL        DVIG2
  C:0F41H         SYMBOL        DVIG3
  C:0F6FH         SYMBOL        DVIG4
  C:0F91H         SYMBOL        DVIG6
  C:0F8FH         SYMBOL        DVM
  B:00A8H.7       SYMBOL        EA
  D:00E6H         SYMBOL        EIE1
  D:00E7H         SYMBOL        EIE2
  D:00F6H         SYMBOL        EIP1
  D:00F7H         SYMBOL        EIP2
  D:00A3H         SYMBOL        EMI0CF
  D:00AFH         SYMBOL        EMI0CN
  D:00A1H         SYMBOL        EMI0TC
  C:2259H         SYMBOL        ENDKALIB
  C:0F95H         SYMBOL        ENDSDV
  C:0A68H         SYMBOL        ENDSUM
  B:00C0H.6       SYMBOL        ENSMB
  C:0D87H         SYMBOL        EQU0
  C:0DA5H         SYMBOL        EQU00
  C:15AEH         SYMBOL        EQU1L
  C:1B18H         SYMBOL        EQU2L
  C:2178H         SYMBOL        ERRA0
  C:0CC0H         SYMBOL        ERRA01
  C:2A89H         SYMBOL        ERROR
  B:00A8H.4       SYMBOL        ES
  B:00A8H.1       SYMBOL        ET0
  B:00A8H.3       SYMBOL        ET1
  B:00A8H.5       SYMBOL        ET2
  B:00A8H.0       SYMBOL        EX0
  B:00A8H.2       SYMBOL        EX1
  B:00C8H.3       SYMBOL        EXEN2
  B:00C8H.6       SYMBOL        EXF2
  N:0000H         SYMBOL        EXP1
  N:0001H         SYMBOL        EXP2
  C:0687H         SYMBOL        EXTCLE
  B:00D0H.5       SYMBOL        F0
  B:00D0H.1       SYMBOL        F1
  C:2893H         SYMBOL        FINDEXT
  C:2884H         SYMBOL        FINDKOEF
  C:1512H         SYMBOL        FINDMEM
  C:29DBH         SYMBOL        FINDR
  C:2FE2H         SYMBOL        FINIS
  D:00B7H         SYMBOL        FLACL
  C:0166H         SYMBOL        FLADD
  C:01D6H         SYMBOL        FLCMP
  C:02B7H         SYMBOL        FLDIV
  C:0203H         SYMBOL        FLMUL
  C:01E1H         SYMBOL        FLOUT
BL51 BANKED LINKER/LOCATER V4.16a           02/26/2007  12:28:42  PAGE 6


  D:00B6H         SYMBOL        FLSCL
  C:01D1H         SYMBOL        FLSUB
  C:01F8H         SYMBOL        FND
  C:2C9AH         SYMBOL        FO1M
  C:2CA3H         SYMBOL        FO2M
  C:2CA4H         SYMBOL        FORM4
  C:13B2H         SYMBOL        FT1IZM
  C:0343H         SYMBOL        FTOL
  C:037CH         SYMBOL        FTOL1
  C:039EH         SYMBOL        FTOL2
  C:03C4H         SYMBOL        FTOL22
  C:03A2H         SYMBOL        FTOL23
  C:03B5H         SYMBOL        FTOL24
  C:03C2H         SYMBOL        FTOL25
  C:03E4H         SYMBOL        FTOL26
  C:038AH         SYMBOL        FTOL3
  C:038EH         SYMBOL        FTOL33
  C:0371H         SYMBOL        FTOL4
  C:0381H         SYMBOL        FTOL9
  C:22C8H         SYMBOL        FULKALIB
  C:060EH         SYMBOL        GENER
  C:1A77H         SYMBOL        GO23NO
  C:15B4H         SYMBOL        GO31L
  C:15B9H         SYMBOL        GO41L
  C:0C60H         SYMBOL        GOA2
  C:0C6AH         SYMBOL        GOA3A2
  C:10A1H         SYMBOL        GOCIKLE
  C:1AAAH         SYMBOL        GOFULL
  C:2196H         SYMBOL        GOGO7
  C:0C88H         SYMBOL        GOKAA2
  C:128BH         SYMBOL        GOKLB
  C:19FEH         SYMBOL        GOOFF1
  C:1A1CH         SYMBOL        GOOFF2
  C:1A3AH         SYMBOL        GOOFF3
  C:1A58H         SYMBOL        GOOFF4
  C:0C7AH         SYMBOL        GOONIN
  C:0E21H         SYMBOL        GOONIN1
  C:0E59H         SYMBOL        GOONIND
  C:19B7H         SYMBOL        GOONOFF
  C:1021H         SYMBOL        GOONT
  C:1FFAH         SYMBOL        GOPAROL
  C:1EE4H         SYMBOL        GOPAROM
  C:07F9H         SYMBOL        GOPART
  C:14E3H         SYMBOL        GOSK19
  C:16C2H         SYMBOL        GOTO7
  C:0AFBH         SYMBOL        GOTOKD
  C:1003H         SYMBOL        GOTOSTROB
  C:1240H         SYMBOL        GOUT6
  C:1CE4H         SYMBOL        GOVVLIST
  C:07ABH         SYMBOL        GOZNAK
  C:1816H         SYMBOL        HNOR11
  C:17BEH         SYMBOL        HNOR12
  C:185FH         SYMBOL        HNOT1
  C:178CH         SYMBOL        HNOT2
  C:17B4H         SYMBOL        HR12
  C:17AEH         SYMBOL        HVI1113
  D:00A8H         SYMBOL        IE
  B:0088H.1       SYMBOL        IE0
  B:0088H.3       SYMBOL        IE1
  C:1788H         SYMBOL        INCT
  C:2643H         SYMBOL        IND
  C:0E16H         SYMBOL        INDOLL
  C:28F8H         SYMBOL        INIACP
  C:1B9BH         SYMBOL        INNOT1_2
  C:1B8CH         SYMBOL        INNOT3
BL51 BANKED LINKER/LOCATER V4.16a           02/26/2007  12:28:42  PAGE 7


  C:1B80H         SYMBOL        INNOT6
  C:25E6H         SYMBOL        INTER2
  D:00CDH         SYMBOL        INTERVA
  C:1044H         SYMBOL        INTMUL
  C:1047H         SYMBOL        INTMUL1
  C:105CH         SYMBOL        INTMUL2
  C:1C2DH         SYMBOL        INTN
  D:00B8H         SYMBOL        IP
  B:0088H.0       SYMBOL        IT0
  B:0088H.2       SYMBOL        IT1
  C:1847H         SYMBOL        IZCHI
  C:1329H         SYMBOL        IZMAN
  C:1338H         SYMBOL        IZMFUN
  C:133CH         SYMBOL        IZMPAT
  C:134BH         SYMBOL        IZMT2
  C:1356H         SYMBOL        IZMT3
  C:2F49H         SYMBOL        JFINIS
  C:280FH         SYMBOL        KD
  C:120FH         SYMBOL        KEYB1
  C:1656H         SYMBOL        KEYB2
  C:1A81H         SYMBOL        KFULL
  C:197EH         SYMBOL        KFULLR
  C:19EBH         SYMBOL        KGO23
  C:1712H         SYMBOL        KLBOFF
  C:1958H         SYMBOL        KLEV1
  C:195DH         SYMBOL        KLEV2
  C:1981H         SYMBOL        KLEV21
  C:1967H         SYMBOL        KLEV22
  C:1992H         SYMBOL        KLEV23
  C:1962H         SYMBOL        KLEV3
  C:08A6H         SYMBOL        KLMAS
  C:1721H         SYMBOL        KNAVP
  B:0023H.0       SYMBOL        KNIZM
  C:1333H         SYMBOL        KNIZMON
  C:1647H         SYMBOL        KNKMP
  C:1731H         SYMBOL        KNLEFT
  C:18BCH         SYMBOL        KNMEM
  C:16E4H         SYMBOL        KNMENU
  C:1752H         SYMBOL        KNNUL
  C:135EH         SYMBOL        KNOPT
  C:1373H         SYMBOL        KNRAZR
  C:12BEH         SYMBOL        KNRIGHT
  C:12DFH         SYMBOL        KNVICH
  D:00A0H         SYMBOL        KOEFKD
  D:0094H         SYMBOL        KOEFKM
  D:0090H         SYMBOL        KOEFKP
  C:0C24H         SYMBOL        KOMUL
  C:0C1EH         SYMBOL        KOMULPZ
  D:00BCH         SYMBOL        KONSTA
  C:143DH         SYMBOL        KON_B
  C:273CH         SYMBOL        KOR0US
  D:0084H         SYMBOL        KOR0_AN
  C:0B4CH         SYMBOL        KORDEC1
  C:0B2CH         SYMBOL        KORDEC10
  C:10DBH         SYMBOL        KORNUL
  C:1A9DH         SYMBOL        KVVOD0
  C:1CDBH         SYMBOL        LABEL43
  C:1DC4H         SYMBOL        LABEL7
  C:0772H         SYMBOL        LABELA
  C:0F3AH         SYMBOL        LABELB
  C:1373H         SYMBOL        LABELC
  C:133CH         SYMBOL        LABELE
  C:139EH         SYMBOL        LABELF
  C:1774H         SYMBOL        LABELH
  C:20F2H         SYMBOL        LABELI
BL51 BANKED LINKER/LOCATER V4.16a           02/26/2007  12:28:42  PAGE 8


  C:17FBH         SYMBOL        LABELI2
  C:18FCH         SYMBOL        LABELK
  C:156FH         SYMBOL        LABELL
  C:147AH         SYMBOL        LABELL1
  C:15D3H         SYMBOL        LABELN
  C:1CB1H         SYMBOL        LABELP
  C:1C76H         SYMBOL        LABELS
  C:1F45H         SYMBOL        LABELS1
  C:2078H         SYMBOL        LABELS13
  C:2105H         SYMBOL        LABELS3
  C:20E0H         SYMBOL        LABELS4
  C:1595H         SYMBOL        LABL2
  C:1B21H         SYMBOL        LABM
  C:308AH         SYMBOL        LADD
  C:309BH         SYMBOL        LADDX
  C:042DH         SYMBOL        LBTOF
  C:2E88H         SYMBOL        LCMP
  C:2E9EH         SYMBOL        LDC_LONG
  C:2EC0H         SYMBOL        LDC_LTEMP
  C:2EE6H         SYMBOL        LDX_LONG
  C:2F0CH         SYMBOL        LDX_LTEMP
  C:1BACH         SYMBOL        LEFCUR
  C:173BH         SYMBOL        LEFKL
  C:190AH         SYMBOL        LEFMEM11
  C:1ACBH         SYMBOL        LEFT21
  C:1F42H         SYMBOL        LEFT_S
  C:2059H         SYMBOL        LEFT_SK
  C:196AH         SYMBOL        LEV220
  C:15F9H         SYMBOL        LEV2GO
  D:00B0H         SYMBOL        LEVEL
  C:1851H         SYMBOL        LI21
  C:1D4AH         SYMBOL        LI42_43
  C:1DCEH         SYMBOL        LIST_43
  C:1322H         SYMBOL        LLDI2
  C:1316H         SYMBOL        LLDI23
  C:131DH         SYMBOL        LLDI3
  C:15BEH         SYMBOL        LLEV2
  C:2FF3H         SYMBOL        LLMUL
  C:3078H         SYMBOL        LLSUB
  C:0432H         SYMBOL        LLTOF
  C:2FF3H         SYMBOL        LMUL
  C:2DD3H         SYMBOL        LOA3_X
  C:2947H         SYMBOL        LOAB12
  D:00B7H         SYMBOL        LOAD
  C:1872H         SYMBOL        LOADB
  C:189EH         SYMBOL        LOADB2
  C:1928H         SYMBOL        LOADCLE
  C:2964H         SYMBOL        LOADKD
  C:2956H         SYMBOL        LOADR2
  C:2757H         SYMBOL        LOADT
  C:26F6H         SYMBOL        LOADUS
  C:243EH         SYMBOL        LOAHL_R2
  C:1AD6H         SYMBOL        LOBLOK
  C:1923H         SYMBOL        LOCLE
  C:2766H         SYMBOL        LOD1
  C:2775H         SYMBOL        LODT
  C:17C1H         SYMBOL        LOIZMK
  C:1E97H         SYMBOL        LOKAME1
  C:2759H         SYMBOL        LOLEVT
  C:1917H         SYMBOL        LOLIST
  C:220DH         SYMBOL        LOME1
  C:2205H         SYMBOL        LOMENU
  C:26B2H         SYMBOL        LOOP
  C:2F4CH         SYMBOL        LOOPS
  C:2730H         SYMBOL        LOSPUS
BL51 BANKED LINKER/LOCATER V4.16a           02/26/2007  12:28:42  PAGE 9


  C:193FH         SYMBOL        LOSTAT
  C:2771H         SYMBOL        LOTEXT
  C:29BAH         SYMBOL        LOTP
  C:29B2H         SYMBOL        LOTPUS
  C:1328H         SYMBOL        LOU
  C:1305H         SYMBOL        LOUIZM
  C:15B1H         SYMBOL        LOUTF
  C:17B7H         SYMBOL        LOVICH
  C:1931H         SYMBOL        LOWR
  C:1936H         SYMBOL        LOWR1
  C:3078H         SYMBOL        LSUB
  N:0008H         SYMBOL        LTEMP
  C:2C75H         SYMBOL        LWR
  C:2C39H         SYMBOL        LWRX
  C:042FH         SYMBOL        LWTOF
  D:006FH         SYMBOL        MABIN
  C:2C90H         SYMBOL        MAFORM
  N:0002H         SYMBOL        MANT1
  N:0008H         SYMBOL        MANT2
  C:1444H         SYMBOL        MARK0_8
  D:00B2H         SYMBOL        MARKER
  C:2A2EH         SYMBOL        MARLE
  C:2A3BH         SYMBOL        MARRI
  C:08C5H         SYMBOL        MAS10
  C:0945H         SYMBOL        MAS20
  C:0A39H         SYMBOL        MAS4
  C:0AADH         SYMBOL        MAS5DIV
  C:0A74H         SYMBOL        MASFULL
  X:0104H         SYMBOL        MASS1
  X:0128H         SYMBOL        MASS10
  X:012CH         SYMBOL        MASS11
  X:0130H         SYMBOL        MASS12
  X:0134H         SYMBOL        MASS13
  X:0138H         SYMBOL        MASS14
  X:013CH         SYMBOL        MASS15
  X:0140H         SYMBOL        MASS16
  X:0144H         SYMBOL        MASS17
  X:0148H         SYMBOL        MASS18
  X:014CH         SYMBOL        MASS19
  X:0108H         SYMBOL        MASS2
  X:010CH         SYMBOL        MASS3
  X:0110H         SYMBOL        MASS4
  X:0114H         SYMBOL        MASS5
  X:0118H         SYMBOL        MASS6
  X:011CH         SYMBOL        MASS7
  X:0120H         SYMBOL        MASS8
  X:0124H         SYMBOL        MASS9
  C:0AA3H         SYMBOL        MASX5
  C:2565H         SYMBOL        MAXG
  C:25CFH         SYMBOL        MAXVIX
  C:1C6DH         SYMBOL        ME11_15DE
  C:1E96H         SYMBOL        ME11_15DEC
  C:1579H         SYMBOL        ME21_22
  C:1F00H         SYMBOL        ME21_23
  C:1F1CH         SYMBOL        ME21_23DEC
  C:172CH         SYMBOL        MEAVP
  C:0674H         SYMBOL        MECLE
  C:067BH         SYMBOL        MEFF
  C:076DH         SYMBOL        MEM10MS
  C:1A98H         SYMBOL        MEM12NO
  C:238AH         SYMBOL        MENG
  C:2211H         SYMBOL        MENU12
  C:2219H         SYMBOL        MENU13
  C:2221H         SYMBOL        MENU14
  C:2229H         SYMBOL        MENU15
BL51 BANKED LINKER/LOCATER V4.16a           02/26/2007  12:28:42  PAGE 10


  C:2231H         SYMBOL        MENU21
  C:2239H         SYMBOL        MENU22
  C:2241H         SYMBOL        MENU23
  C:2249H         SYMBOL        MENU31
  C:2251H         SYMBOL        MENU41
  C:1706H         SYMBOL        MENUOFF
  C:1CA3H         SYMBOL        MENUON
  C:16E1H         SYMBOL        MERR
  C:194AH         SYMBOL        ME_14
  C:1FBDH         SYMBOL        ME_41
  C:1F91H         SYMBOL        ME_52
  C:1FAEH         SYMBOL        ME_52V
  C:2F7FH         SYMBOL        MIDL
  C:2A6BH         SYMBOL        MIGN
  C:2A73H         SYMBOL        MIGNN
  C:244AH         SYMBOL        MIN4_HL
  C:248CH         SYMBOL        MING
  C:24F6H         SYMBOL        MINIVIX
  C:1B01H         SYMBOL        MLABL2
  C:1CE1H         SYMBOL        MLABL2R
  C:0768H         SYMBOL        MMM
  C:0E0BH         SYMBOL        MO220
  C:0D7BH         SYMBOL        MO500I
  C:0D6FH         SYMBOL        MO500R
  B:00F8H.5       SYMBOL        MODF
  C:150CH         SYMBOL        MOUTF
  C:1C70H         SYMBOL        MOUTKMEM
  C:2CFDH         SYMBOL        MOVE28
  C:28B6H         SYMBOL        MOVE82
  C:0E59H         SYMBOL        MOVEA3
  D:003AH         SYMBOL        MOVLEFT
  D:003BH         SYMBOL        MOVRIG
  B:00F8H.1       SYMBOL        MSTEN
  C:021AH         SYMBOL        MUP1
  C:0257H         SYMBOL        MUP11
  C:0297H         SYMBOL        MUP2
  C:026CH         SYMBOL        MUP3
  C:1AD1H         SYMBOL        MVV11
  C:1AE9H         SYMBOL        MVV12
  C:11FCH         SYMBOL        N12DELCH
  C:11A8H         SYMBOL        N4DELCH
  C:11EAH         SYMBOL        N8DELCH
  C:1512H         SYMBOL        NBIMENU
  D:0038H         SYMBOL        NBLOK
  C:0358H         SYMBOL        NE05
  D:0037H         SYMBOL        NELEM
  C:264DH         SYMBOL        NEXIN
  C:259AH         SYMBOL        NEXTMAX
  C:23BFH         SYMBOL        NEXTMEA
  C:24C1H         SYMBOL        NEXTMIN
  C:1C73H         SYMBOL        NMEM_MENU
  C:0B69H         SYMBOL        NMINUS
  C:0ACDH         SYMBOL        NMINUS3
  C:1168H         SYMBOL        NNDELCH
  C:1605H         SYMBOL        NNMEMB
  C:0ED6H         SYMBOL        NNNUL
  C:2F67H         SYMBOL        NO
  C:077FH         SYMBOL        NO0KEY
  C:1C14H         SYMBOL        NO10MSV
  C:13F6H         SYMBOL        NO11V6
  C:1409H         SYMBOL        NO12V6
  C:141CH         SYMBOL        NO13V6
  C:219DH         SYMBOL        NO21P7
  C:14C3H         SYMBOL        NO23RI
  C:1C11H         SYMBOL        NO2MSV
BL51 BANKED LINKER/LOCATER V4.16a           02/26/2007  12:28:42  PAGE 11


  C:0E4EH         SYMBOL        NO2PARN
  C:1BCBH         SYMBOL        NO31N
  C:14F4H         SYMBOL        NO31RI
  C:0E44H         SYMBOL        NO3PARN
  C:110EH         SYMBOL        NO4DEL
  C:112DH         SYMBOL        NO5DEL
  C:113BH         SYMBOL        NO6DEL
  C:0B3BH         SYMBOL        NOAVK
  C:0C60H         SYMBOL        NOAVP
  C:0EF2H         SYMBOL        NOBAVP
  C:0836H         SYMBOL        NOBEF99
  C:0245H         SYMBOL        NOBIT
  C:0EFBH         SYMBOL        NOBITIZM
  C:1582H         SYMBOL        NOBL21
  C:158CH         SYMBOL        NOBL22
  C:0F30H         SYMBOL        NOBUF
  C:10B1H         SYMBOL        NOBUF0
  C:0E40H         SYMBOL        NOCHI0
  C:079EH         SYMBOL        NOCHIND
  C:0A90H         SYMBOL        NOCHN10
  C:0A85H         SYMBOL        NOCHN2
  C:0A9BH         SYMBOL        NOCHN20
  C:0E24H         SYMBOL        NODI2
  C:173DH         SYMBOL        NODI6
  C:0EAAH         SYMBOL        NODI8
  C:202DH         SYMBOL        NODI8K
  C:1DA7H         SYMBOL        NODI8_43
  C:0E29H         SYMBOL        NODI9
  C:1DB2H         SYMBOL        NODI9_43
  C:0EBCH         SYMBOL        NODIS9
  C:2035H         SYMBOL        NODISK9
  C:2D9FH         SYMBOL        NOENDLI
  C:15EAH         SYMBOL        NOEQU1
  C:1BC5H         SYMBOL        NOEQU2
  C:13D8H         SYMBOL        NOFIZM
  C:13B1H         SYMBOL        NOFT1
  C:10ACH         SYMBOL        NOFZ
  C:17D6H         SYMBOL        NOH37
  C:18B1H         SYMBOL        NOHNOT1
  C:18A6H         SYMBOL        NOHNOT2
  C:0F2AH         SYMBOL        NOKLB
  C:0AE3H         SYMBOL        NOKORR
  C:1798H         SYMBOL        NOLAH
  C:1E22H         SYMBOL        NOLI_43
  C:1BA3H         SYMBOL        NOM31
  C:1C1CH         SYMBOL        NOM32
  C:1C4AH         SYMBOL        NOM33
  C:211AH         SYMBOL        NOMARL
  C:25B2H         SYMBOL        NOMAXI
  C:1A88H         SYMBOL        NOME11
  C:152DH         SYMBOL        NOMEM11
  C:1543H         SYMBOL        NOMEM12
  C:1559H         SYMBOL        NOMEM13
  C:1A85H         SYMBOL        NOMEMK
  C:24D9H         SYMBOL        NOMINI
  C:1384H         SYMBOL        NON1C
  C:0B20H         SYMBOL        NONULAVT
  C:10F0H         SYMBOL        NONULDEL
  C:0E44H         SYMBOL        NOP3_0
  C:083AH         SYMBOL        NOPART1
  C:085AH         SYMBOL        NOPART2
  C:087AH         SYMBOL        NOPART3
  C:089AH         SYMBOL        NOPART4
  C:146CH         SYMBOL        NOPLUS
  C:2131H         SYMBOL        NOPOIN7
BL51 BANKED LINKER/LOCATER V4.16a           02/26/2007  12:28:42  PAGE 12


  C:20FDH         SYMBOL        NOPOINT
  C:1480H         SYMBOL        NOR11
  C:00F6H         SYMBOL        NORDN
  C:0107H         SYMBOL        NORDN1
  C:15C7H         SYMBOL        NORIG2
  C:1605H         SYMBOL        NORIM6
  C:14A9H         SYMBOL        NORIME
  C:14A3H         SYMBOL        NORIME1
  C:00F0H         SYMBOL        NORM1
  C:17EEH         SYMBOL        NORR11
  C:17FEH         SYMBOL        NORR12
  C:0119H         SYMBOL        NORUP
  C:011EH         SYMBOL        NORUP1
  C:0132H         SYMBOL        NORUP2
  C:0F33H         SYMBOL        NORVICH
  C:0FF1H         SYMBOL        NOSAV1
  C:0FF8H         SYMBOL        NOSAV2
  C:0FFFH         SYMBOL        NOSAV3
  C:2FA2H         SYMBOL        NOSUB
  C:10C6H         SYMBOL        NOT1IN
  C:16D1H         SYMBOL        NOT1_7
  C:10CEH         SYMBOL        NOT2IN
  C:16DCH         SYMBOL        NOT2_7
  C:10D6H         SYMBOL        NOT3IN
  C:0F05H         SYMBOL        NOTAKT
  C:0BE0H         SYMBOL        NOTE21
  C:0BFBH         SYMBOL        NOTE22
  C:0C13H         SYMBOL        NOTESTIZM
  C:103BH         SYMBOL        NOTT1
  C:1063H         SYMBOL        NOTT2
  C:1071H         SYMBOL        NOTT3
  C:1088H         SYMBOL        NOTT4
  C:1096H         SYMBOL        NOTT5
  C:138BH         SYMBOL        NOT_1
  C:138BH         SYMBOL        NOT_10
  C:148BH         SYMBOL        NOVIR
  C:13C2H         SYMBOL        NOVIR1
  C:243AH         SYMBOL        NOZMEA
  C:252DH         SYMBOL        NOZMIN
  C:1D99H         SYMBOL        NOZZBL
  C:0E97H         SYMBOL        NOZZMI
  C:1D89H         SYMBOL        NOZZMI1
  C:1D90H         SYMBOL        NOZZMI2
  C:1D97H         SYMBOL        NOZZMI3
  C:1D80H         SYMBOL        NOZZMI43
  C:0EDFH         SYMBOL        NSEC1
  C:0EE8H         SYMBOL        NSEC10
  C:0EE6H         SYMBOL        NSEC11
  D:0039H         SYMBOL        NUERR
  C:114DH         SYMBOL        NULAVT
  N:0004H         SYMBOL        NUMSIZE
  C:2ED8H         SYMBOL        OBOARD
  C:2F20H         SYMBOL        OBOARD1
  C:0186H         SYMBOL        OK1
  C:01A0H         SYMBOL        OK2
  C:01C4H         SYMBOL        OK3
  C:2EFEH         SYMBOL        ONBOAR1
  C:2EB2H         SYMBOL        ONBOARD
  C:18D3H         SYMBOL        ONMEM11
  C:1F23H         SYMBOL        ONMEM12
  C:20DDH         SYMBOL        ONMEM13
  C:2A81H         SYMBOL        ONMIG
  C:12FDH         SYMBOL        ONVICH
  D:00B2H         SYMBOL        OSCICN
  D:00B1H         SYMBOL        OSCXCN
BL51 BANKED LINKER/LOCATER V4.16a           02/26/2007  12:28:42  PAGE 13


  C:1DBBH         SYMBOL        OUT43
  C:1605H         SYMBOL        OUT6
  C:21C6H         SYMBOL        OUT7
  C:2A48H         SYMBOL        OUTA
  C:2A62H         SYMBOL        OUTA2
  C:13B8H         SYMBOL        OUTF
  C:147DH         SYMBOL        OUTFL
  C:18E0H         SYMBOL        OUTKMEM
  C:1456H         SYMBOL        OUTMA
  C:25B7H         SYMBOL        OUTMAX
  C:23DAH         SYMBOL        OUTMEA
  C:1EDFH         SYMBOL        OUTMENU
  C:24DEH         SYMBOL        OUTMIN
  C:0DD2H         SYMBOL        OUTR
  C:0DEEH         SYMBOL        OUTR5
  C:1F84H         SYMBOL        OUTSKO
  C:1F81H         SYMBOL        OUTSKO1
  C:13C5H         SYMBOL        OUTVICH
  C:1284H         SYMBOL        OUTVIR
  C:22D5H         SYMBOL        OUT_KALI
  B:00D0H.2       SYMBOL        OV
  B:00D0H.0       SYMBOL        P
  D:0080H         SYMBOL        P0
  D:00A4H         SYMBOL        P0MDOUT
  D:0090H         SYMBOL        P1
  D:00BDH         SYMBOL        P1MDIN
  D:00A5H         SYMBOL        P1MDOUT
  D:00A0H         SYMBOL        P2
  D:00A6H         SYMBOL        P2MDOUT
  D:00B0H         SYMBOL        P3
  D:00ADH         SYMBOL        P3IF
  D:00A7H         SYMBOL        P3MDOUT
  D:0084H         SYMBOL        P4
  D:0085H         SYMBOL        P5
  D:0086H         SYMBOL        P6
  D:0096H         SYMBOL        P7
  D:00B5H         SYMBOL        P74OUT
  C:00DEH         SYMBOL        PACK1
  C:2042H         SYMBOL        PARERR
  D:00AFH         SYMBOL        PARN
  D:00A8H         SYMBOL        PAROL
  D:009AH         SYMBOL        PART
  D:00D8H         SYMBOL        PCA0CN
  D:00FAH         SYMBOL        PCA0CPH0
  D:00FBH         SYMBOL        PCA0CPH1
  D:00FCH         SYMBOL        PCA0CPH2
  D:00FDH         SYMBOL        PCA0CPH3
  D:00FEH         SYMBOL        PCA0CPH4
  D:00EAH         SYMBOL        PCA0CPL0
  D:00EBH         SYMBOL        PCA0CPL1
  D:00ECH         SYMBOL        PCA0CPL2
  D:00EDH         SYMBOL        PCA0CPL3
  D:00EEH         SYMBOL        PCA0CPL4
  D:00DAH         SYMBOL        PCA0CPM0
  D:00DBH         SYMBOL        PCA0CPM1
  D:00DCH         SYMBOL        PCA0CPM2
  D:00DDH         SYMBOL        PCA0CPM3
  D:00DEH         SYMBOL        PCA0CPM4
  D:00F9H         SYMBOL        PCA0H
  D:00E9H         SYMBOL        PCA0L
  D:00D9H         SYMBOL        PCA0MD
  D:0087H         SYMBOL        PCON
  C:2130H         SYMBOL        POIN3
  C:2198H         SYMBOL        POINA
  C:2115H         SYMBOL        POINA1
BL51 BANKED LINKER/LOCATER V4.16a           02/26/2007  12:28:42  PAGE 14


  C:210FH         SYMBOL        POINA2
  C:21BBH         SYMBOL        POZB
  N:000CH         SYMBOL        PROD
  B:00B8H.4       SYMBOL        PS
  D:008FH         SYMBOL        PSCTL
  D:00D0H         SYMBOL        PSW
  B:00B8H.1       SYMBOL        PT0
  B:00B8H.3       SYMBOL        PT1
  B:00B8H.5       SYMBOL        PT2
  B:00B8H.0       SYMBOL        PX0
  B:00B8H.2       SYMBOL        PX1
  C:128EH         SYMBOL        PYSKST
  C:198CH         SYMBOL        QUES
  C:0C5DH         SYMBOL        QU_AVP
  N:000AH         SYMBOL        R10
  N:000BH         SYMBOL        R11
  N:0008H         SYMBOL        R8
  N:0009H         SYMBOL        R9
  C:0AF9H         SYMBOL        RAFTERK
  B:0098H.2       SYMBOL        RB8
  D:00CBH         SYMBOL        RCAP2H
  D:00CAH         SYMBOL        RCAP2L
  D:00E5H         SYMBOL        RCAP4H
  D:00E4H         SYMBOL        RCAP4L
  B:00C8H.5       SYMBOL        RCLK
  C:19E5H         SYMBOL        RDDOUTF
  C:26BBH         SYMBOL        RE1
  C:0BA1H         SYMBOL        RE11_7
  C:0454H         SYMBOL        RE4BYTE
  C:2DE5H         SYMBOL        REA3_X
  D:0077H         SYMBOL        REACP
  C:26B9H         SYMBOL        READ
  C:07F1H         SYMBOL        READYACP
  C:26A1H         SYMBOL        READ_X2
  C:0741H         SYMBOL        REBYTE
  C:046CH         SYMBOL        REBYTE2
  C:1140H         SYMBOL        REBYTER
  D:00D1H         SYMBOL        REF0CN
  B:0098H.4       SYMBOL        REN
  C:171EH         SYMBOL        RENDKALIB
  C:2D09H         SYMBOL        RESAR2
  C:2CC7H         SYMBOL        RESAR8
  C:2DB2H         SYMBOL        RESA_HL
  D:008CH         SYMBOL        REZAM
  D:0088H         SYMBOL        REZAP
  C:0B51H         SYMBOL        REZMUL
  D:0062H         SYMBOL        REZ_A
  D:006AH         SYMBOL        REZ_A0
  D:0066H         SYMBOL        REZ_A1
  D:007BH         SYMBOL        REZ_A2
  D:009CH         SYMBOL        REZ_A3
  D:00A4H         SYMBOL        REZ_AK
  D:005EH         SYMBOL        REZ_AME
  D:00C5H         SYMBOL        REZ_DEL
  D:00C9H         SYMBOL        REZ_R
  C:2DB9H         SYMBOL        RE_HL
  C:2DC1H         SYMBOL        RE_HL1
  C:2DC8H         SYMBOL        RE_HL2
  C:2DCFH         SYMBOL        RE_HL3
  C:1488H         SYMBOL        RFINDMEM
  C:19E8H         SYMBOL        RGO23NO
  C:1BA0H         SYMBOL        RGOTO7
  C:17C8H         SYMBOL        RHNOR11
  C:178FH         SYMBOL        RHNOT1
  B:0098H.0       SYMBOL        RI
BL51 BANKED LINKER/LOCATER V4.16a           02/26/2007  12:28:42  PAGE 15


  C:14ACH         SYMBOL        RI21_23
  C:14A6H         SYMBOL        RI6
  C:158FH         SYMBOL        RIGBLO
  C:15CDH         SYMBOL        RIGBLOK
  C:12B5H         SYMBOL        RIGHT2
  C:12B9H         SYMBOL        RIGHT3
  C:142EH         SYMBOL        RIKN
  C:120CH         SYMBOL        RIZMAN
  C:14C6H         SYMBOL        RI_31
  C:1653H         SYMBOL        RKNLEFT
  C:1644H         SYMBOL        RKNMEM
  C:1650H         SYMBOL        RKNNUL
  C:1209H         SYMBOL        RKNOPT
  C:1206H         SYMBOL        RKNRAZR
  C:1920H         SYMBOL        RKVVOD0
  C:1203H         SYMBOL        RLABELF
  C:164DH         SYMBOL        RLABELH
  C:1795H         SYMBOL        RLABELI
  C:1792H         SYMBOL        RLABELK
  C:1485H         SYMBOL        RLABELL
  C:1602H         SYMBOL        RLABELL1
  C:1509H         SYMBOL        RLABELN
  C:1E7AH         SYMBOL        RLABELP
  C:1F8EH         SYMBOL        RLABELS13
  C:1F8BH         SYMBOL        RLABELS4
  C:1986H         SYMBOL        RLABL2
  C:1989H         SYMBOL        RLABM
  C:1C47H         SYMBOL        RLEFCUR
  C:2A3AH         SYMBOL        RLER
  C:1CDEH         SYMBOL        RLIST_43
  C:0942H         SYMBOL        RMAS4
  C:1CAEH         SYMBOL        RME21_23
  C:0B33H         SYMBOL        RMO220
  C:150FH         SYMBOL        RNNMEMB
  C:0EBAH         SYMBOL        RNO3PARN
  C:0FD7H         SYMBOL        RNOBUF0
  C:0C85H         SYMBOL        RNOCHI0
  C:17ECH         SYMBOL        RNOH37
  C:1B1EH         SYMBOL        RNOM31
  C:18DDH         SYMBOL        RNOMEMK
  C:0EB8H         SYMBOL        RNORVICH
  C:0F8CH         SYMBOL        RNOT1IN
  C:0B49H         SYMBOL        RNOTESTIZM
  C:1E66H         SYMBOL        ROUSTA
  C:1E77H         SYMBOL        ROUSTA1
  C:1200H         SYMBOL        ROUT6
  C:164AH         SYMBOL        ROUT7
  C:17E9H         SYMBOL        ROUTF
  N:0000H         SYMBOL        RR0
  N:0001H         SYMBOL        RR1
  N:0002H         SYMBOL        RR2
  N:0003H         SYMBOL        RR3
  N:0004H         SYMBOL        RR4
  N:0005H         SYMBOL        RR5
  N:0006H         SYMBOL        RR6
  N:0007H         SYMBOL        RR7
  C:2A47H         SYMBOL        RRIR
  C:0C82H         SYMBOL        RRMO220
  B:00D0H.3       SYMBOL        RS0
  B:00D0H.4       SYMBOL        RS1
  C:0E57H         SYMBOL        RSEEIND
  D:00EFH         SYMBOL        RSTSRC
  C:138FH         SYMBOL        RTIZMRI
  C:17CAH         SYMBOL        RVVIZKO
  C:1FBAH         SYMBOL        RVVKALI52
BL51 BANKED LINKER/LOCATER V4.16a           02/26/2007  12:28:42  PAGE 16


  B:00F8H.4       SYMBOL        RXOVRN
  D:00A9H         SYMBOL        SADDR0
  D:00F3H         SYMBOL        SADDR1
  D:00B9H         SYMBOL        SADEN0
  D:00AEH         SYMBOL        SADEN1
  D:0034H         SYMBOL        SADIAP
  D:0032H         SYMBOL        SADIAP2
  D:0031H         SYMBOL        SADIAP3
  D:0030H         SYMBOL        SADIAP4
  D:0036H         SYMBOL        SAUS
  D:003CH         SYMBOL        SAVBA
  C:2C4BH         SYMBOL        SAVEIR2
  C:04A7H         SYMBOL        SAVELTE
  D:00D3H         SYMBOL        SAVEN_BL
  D:00C0H         SYMBOL        SAVEN_BL2
  D:00C2H         SYMBOL        SAVEN_BL3
  D:00D9H         SYMBOL        SAVEN_BL4
  C:2C57H         SYMBOL        SAVER2
  C:2D7EH         SYMBOL        SAVE_HL
  C:2D85H         SYMBOL        SA_HL
  C:2DA0H         SYMBOL        SA_HL1
  C:2DA7H         SYMBOL        SA_HL2
  C:2DAEH         SYMBOL        SA_HL3
  D:0099H         SYMBOL        SBUF0
  D:00F2H         SYMBOL        SBUF1
  D:0098H         SYMBOL        SCON0
  D:00F1H         SYMBOL        SCON1
  C:2663H         SYMBOL        SDV
  C:2677H         SYMBOL        SDV1
  C:07D2H         SYMBOL        SDVIG0
  C:07C7H         SYMBOL        SDVIG1
  C:07BCH         SYMBOL        SDVIG2
  C:07B0H         SYMBOL        SDVIG3
  C:07E1H         SYMBOL        SDVIG4
  C:07EBH         SYMBOL        SDVIG6
  C:07E9H         SYMBOL        SDVM
  C:0EBFH         SYMBOL        SEEGOON
  C:0ECDH         SYMBOL        SEEIND
  C:1DB5H         SYMBOL        SEE_L43
  B:00C0H.3       SYMBOL        SI
  N:0007H         SYMBOL        SIGN
  C:1EC5H         SYMBOL        SKOR19
  B:00F8H.2       SYMBOL        SLVSEL
  B:0098H.7       SYMBOL        SM0
  B:0098H.6       SYMBOL        SM1
  B:0098H.5       SYMBOL        SM2
  D:00C3H         SYMBOL        SMB0ADR
  D:00C0H         SYMBOL        SMB0CN
  D:00CFH         SYMBOL        SMB0CR
  D:00C2H         SYMBOL        SMB0DAT
  D:00C1H         SYMBOL        SMB0STA
  B:00C0H.1       SYMBOL        SMBFTE
  B:00C0H.0       SYMBOL        SMBTOE
  C:1859H         SYMBOL        SOOTV
  D:0081H         SYMBOL        SP
  D:009AH         SYMBOL        SPI0CFG
  D:009DH         SYMBOL        SPI0CKR
  D:00F8H         SYMBOL        SPI0CN
  D:009BH         SYMBOL        SPI0DAT
  B:00F8H.0       SYMBOL        SPIEN
  B:00F8H.7       SYMBOL        SPIF
  C:1F66H         SYMBOL        SPWRI
  C:2799H         SYMBOL        SS1
  B:00C0H.5       SYMBOL        STA
  B:00C0H.4       SYMBOL        STO
BL51 BANKED LINKER/LOCATER V4.16a           02/26/2007  12:28:42  PAGE 17


  D:00B3H         SYMBOL        SUMMA
  C:083DH         SYMBOL        SUMT2
  D:00C8H         SYMBOL        T2CON
  C:1C0BH         SYMBOL        T2MSME
  D:00C9H         SYMBOL        T4CON
  C:2939H         SYMBOL        TABB1_2
  C:29D1H         SYMBOL        TABN
  C:2751H         SYMBOL        TABT11
  C:2755H         SYMBOL        TABT7
  C:2753H         SYMBOL        TABT9
  C:273DH         SYMBOL        TABUS
  C:0F0AH         SYMBOL        TAKTIND
  B:0098H.3       SYMBOL        TB8
  B:00C8H.4       SYMBOL        TCLK
  D:0088H         SYMBOL        TCON
  C:2A9DH         SYMBOL        TE10MS
  C:29C4H         SYMBOL        TE22
  C:29CCH         SYMBOL        TE23
  C:2A93H         SYMBOL        TE2MS
  C:2AD9H         SYMBOL        TEAEQU0
  C:2B15H         SYMBOL        TEAVK
  C:2AE3H         SYMBOL        TEBEQU0
  C:2BC9H         SYMBOL        TEBL
  C:2BD3H         SYMBOL        TEBL0
  C:2BDDH         SYMBOL        TECH
  C:2B8EH         SYMBOL        TECLE
  C:2C2DH         SYMBOL        TEEND
  C:2C23H         SYMBOL        TEERR
  C:2BB5H         SYMBOL        TEFULL
  C:2BBFH         SYMBOL        TEINT
  C:2B70H         SYMBOL        TEIZMK
  C:2B1FH         SYMBOL        TEKALIB
  C:2B66H         SYMBOL        TEKD
  C:2BAAH         SYMBOL        TELIST
  C:2BFBH         SYMBOL        TEMAX
  C:2B98H         SYMBOL        TEMEM
  C:2AEDH         SYMBOL        TEMENU
  C:2C05H         SYMBOL        TEMID
  C:2BF1H         SYMBOL        TEMIN
  C:0C30H         SYMBOL        TEMUL
  C:283BH         SYMBOL        TENMIN
  C:2C0FH         SYMBOL        TEOLI
  C:2B84H         SYMBOL        TEOLL
  C:2C19H         SYMBOL        TEOLR
  C:2B7AH         SYMBOL        TEOUT
  C:2B5CH         SYMBOL        TEPAR
  C:2B52H         SYMBOL        TES19_2
  C:2B48H         SYMBOL        TES57_6
  C:2B0BH         SYMBOL        TESKOR
  C:25FEH         SYMBOL        TEST01
  C:262DH         SYMBOL        TEST02
  C:260EH         SYMBOL        TEST04
  C:25F4H         SYMBOL        TEST1
  C:2626H         SYMBOL        TEST2
  C:1F3BH         SYMBOL        TEST22
  C:1F40H         SYMBOL        TEST23
  C:2618H         SYMBOL        TEST3
  C:2606H         SYMBOL        TEST4
  C:2630H         SYMBOL        TEST5
  C:0F22H         SYMBOL        TEST7I
  C:0F1BH         SYMBOL        TEST9I
  C:2BE7H         SYMBOL        TESTAT
  C:25F2H         SYMBOL        TESTRS
  C:1F2FH         SYMBOL        TESTS
  C:2B2AH         SYMBOL        TETE11
BL51 BANKED LINKER/LOCATER V4.16a           02/26/2007  12:28:42  PAGE 18


  C:2B3EH         SYMBOL        TETE7
  C:2B34H         SYMBOL        TETE9
  C:2AF7H         SYMBOL        TETESI
  C:2B01H         SYMBOL        TETESR
  C:2ACFH         SYMBOL        TEVICH
  C:2BA0H         SYMBOL        TEWR
  C:2A93H         SYMBOL        TEXTT
  B:0088H.5       SYMBOL        TF0
  B:0088H.7       SYMBOL        TF1
  B:00C8H.7       SYMBOL        TF2
  D:008CH         SYMBOL        TH0
  D:008DH         SYMBOL        TH1
  D:00CDH         SYMBOL        TH2
  D:00F5H         SYMBOL        TH4
  B:0098H.1       SYMBOL        TI
  C:2687H         SYMBOL        TIM
  C:2689H         SYMBOL        TIM1
  C:268CH         SYMBOL        TIM2
  C:268EH         SYMBOL        TIM3
  C:12AEH         SYMBOL        TIZMRI
  D:008AH         SYMBOL        TL0
  D:008BH         SYMBOL        TL1
  D:00CCH         SYMBOL        TL2
  D:00F4H         SYMBOL        TL4
  C:1856H         SYMBOL        TLABELI
  D:0089H         SYMBOL        TMOD
  D:00CBH         SYMBOL        TMR2RLH
  D:00CAH         SYMBOL        TMR2RLL
  D:0091H         SYMBOL        TMR3CN
  D:0095H         SYMBOL        TMR3H
  D:0094H         SYMBOL        TMR3L
  D:0093H         SYMBOL        TMR3RLH
  D:0092H         SYMBOL        TMR3RLL
  C:1EA6H         SYMBOL        TOME13
  C:1ED3H         SYMBOL        TOME14
  C:1EEBH         SYMBOL        TOME15
  C:1E9DH         SYMBOL        TOME21
  C:206AH         SYMBOL        TOSK19
  C:17D3H         SYMBOL        TOUTF
  B:0088H.4       SYMBOL        TR0
  B:0088H.6       SYMBOL        TR1
  B:00C8H.2       SYMBOL        TR2
  C:1392H         SYMBOL        TTOUT
  B:00F8H.3       SYMBOL        TXBSY
  C:009EH         SYMBOL        UNPACK1
  C:00BAH         SYMBOL        UNPACK2
  C:0138H         SYMBOL        UP1
  C:014BH         SYMBOL        UP2
  C:0161H         SYMBOL        UP2A
  C:286AH         SYMBOL        UPA
  C:287AH         SYMBOL        UPA1
  C:285AH         SYMBOL        UPA2
  C:2D56H         SYMBOL        UPAA
  C:28C5H         SYMBOL        UPAA4
  C:28D5H         SYMBOL        UPAB
  C:2864H         SYMBOL        UPAK
  C:2D30H         SYMBOL        UPAK1
  C:2854H         SYMBOL        UPAK2
  C:2874H         SYMBOL        UPAK3
  C:2D50H         SYMBOL        UPAK4
  C:28BFH         SYMBOL        UPAKA
  C:28CFH         SYMBOL        UPAKB
  C:1FD9H         SYMBOL        UPAV1
  C:209CH         SYMBOL        UPAV2
  C:2D42H         SYMBOL        UPK1
BL51 BANKED LINKER/LOCATER V4.16a           02/26/2007  12:28:42  PAGE 19


  C:2D43H         SYMBOL        UPK2
  C:2531H         SYMBOL        VICHMAX
  C:2375H         SYMBOL        VICHMEAN
  C:2458H         SYMBOL        VICHMIN
  D:00B1H         SYMBOL        VICHR
  C:0F78H         SYMBOL        VIG0
  C:0F86H         SYMBOL        VIG4
  C:1369H         SYMBOL        VIOUT
  C:17CCH         SYMBOL        VIOUTF
  C:12DCH         SYMBOL        VIT2_10
  C:1C6AH         SYMBOL        VODM11_15
  D:00D5H         SYMBOL        VOLUME
  C:1F26H         SYMBOL        VV21_23
  C:2A08H         SYMBOL        VVCHIBL
  C:29E3H         SYMBOL        VVCHIF
  C:1BCBH         SYMBOL        VVINTE
  C:1823H         SYMBOL        VVIZKO
  C:208FH         SYMBOL        VVKALI52
  C:203FH         SYMBOL        VVMENU
  C:2A03H         SYMBOL        VVNOL23
  C:29FEH         SYMBOL        VVNOL31
  C:29FCH         SYMBOL        VVNOL41
  C:1C03H         SYMBOL        VVOD2_10
  C:1DE1H         SYMBOL        VVOD43
  C:1E7DH         SYMBOL        VVODM11_15
  C:1E3EH         SYMBOL        VVOSTA
  C:1E52H         SYMBOL        VVOSTAD
  C:13EEH         SYMBOL        VVRR6
  C:1FB1H         SYMBOL        VV_52V
  B:00F8H.6       SYMBOL        WCOL
  D:00FFH         SYMBOL        WDTCN
  D:00B8H         SYMBOL        WORK
  C:2D1DH         SYMBOL        WR1
  C:2D1AH         SYMBOL        WRITE
  C:2692H         SYMBOL        WRITED_X1
  C:2691H         SYMBOL        WRITE_X1
  C:0480H         SYMBOL        WRPAGE
  C:0483H         SYMBOL        WW5
  D:00E1H         SYMBOL        XBR0
  D:00E2H         SYMBOL        XBR1
  D:00E3H         SYMBOL        XBR2
  C:2C37H         SYMBOL        XCIKLWR
  N:000CH         SYMBOL        XTEMP
  C:1764H         SYMBOL        YBNUL
  C:2F85H         SYMBOL        YES
  C:078CH         SYMBOL        YES0KEY
  C:0799H         SYMBOL        YES0KEY1
  C:0C8FH         SYMBOL        YESAVP
  C:0FDCH         SYMBOL        YESBUF
  C:0F24H         SYMBOL        YESIND
  C:0FDAH         SYMBOL        YESPRD
  C:272CH         SYMBOL        YESTEST
  C:10AFH         SYMBOL        YESTT5
  C:0CDAH         SYMBOL        YESVICH
  C:22DEH         SYMBOL        YESVI_KM
  C:2256H         SYMBOL        YESVI_KR
  C:066BH         SYMBOL        YST1
  C:0663H         SYMBOL        YST19
  C:27B1H         SYMBOL        Z01S
  C:27BEH         SYMBOL        Z05S
  C:2782H         SYMBOL        Z100
  C:2790H         SYMBOL        Z15
  C:27A4H         SYMBOL        Z1S
  C:2661H         SYMBOL        ZAPADC
  C:2CB9H         SYMBOL        ZCMP
BL51 BANKED LINKER/LOCATER V4.16a           02/26/2007  12:28:42  PAGE 20


  C:2C86H         SYMBOL        ZDIV
  C:00B3H         SYMBOL        ZER1
  C:00D4H         SYMBOL        ZER2
  C:2C7CH         SYMBOL        ZMUL
  B:0020H.2       SYMBOL        ZNMAT
  C:07A3H         SYMBOL        ZNPLUS
  C:2792H         SYMBOL        ZZ
  C:27ADH         SYMBOL        Z_01S
  C:27BAH         SYMBOL        Z_05S
  C:2780H         SYMBOL        Z_100
  C:278EH         SYMBOL        Z_15
  C:2797H         SYMBOL        Z_1MS
  C:27A0H         SYMBOL        Z_1S
  C:2789H         SYMBOL        Z_5
  C:2D15H         SYMBOL        Z_9
  C:0000H         LINE#         15
  C:0003H         LINE#         18
  C:000BH         LINE#         20
  C:0013H         LINE#         22
  C:001BH         LINE#         24
  C:0023H         LINE#         26
  C:002BH         LINE#         28
  C:0033H         LINE#         30
  C:003BH         LINE#         32
  C:0043H         LINE#         34
  C:004BH         LINE#         36
  C:0053H         LINE#         38
  C:005BH         LINE#         41
  C:0063H         LINE#         43
  C:006BH         LINE#         45
  C:0073H         LINE#         47
  C:0093H         LINE#         49
  C:009BH         LINE#         52
  C:05C9H         LINE#         228
  C:05CCH         LINE#         229
  C:05CFH         LINE#         230
  C:05D2H         LINE#         231
  C:05D5H         LINE#         232
  C:05D8H         LINE#         233
  C:05DBH         LINE#         235
  C:05DEH         LINE#         236
  C:05E1H         LINE#         237
  C:05E4H         LINE#         239
  C:05E7H         LINE#         240
  C:05EAH         LINE#         241
  C:05EDH         LINE#         242
  C:05F0H         LINE#         243
  C:05F3H         LINE#         244
  C:05F6H         LINE#         245
  C:05F9H         LINE#         246
  C:05FCH         LINE#         247
  C:05FFH         LINE#         248
  C:0602H         LINE#         249
  C:0605H         LINE#         251
  C:0608H         LINE#         252
  C:060BH         LINE#         253
  C:060EH         LINE#         257
  C:0610H         LINE#         258
  C:0613H         LINE#         260
  C:0616H         LINE#         261
  C:0619H         LINE#         262
  C:061CH         LINE#         264
  C:061EH         LINE#         265
  C:0620H         LINE#         267
  C:0623H         LINE#         270
BL51 BANKED LINKER/LOCATER V4.16a           02/26/2007  12:28:42  PAGE 21


  C:0626H         LINE#         271
  C:0629H         LINE#         272
  C:062CH         LINE#         273
  C:062FH         LINE#         275
  C:0632H         LINE#         276
  C:0635H         LINE#         277
  C:0638H         LINE#         278
  C:063BH         LINE#         279
  C:063EH         LINE#         281
  C:0641H         LINE#         282
  C:0644H         LINE#         283
  C:0647H         LINE#         284
  C:064AH         LINE#         285
  C:064DH         LINE#         286
  C:0650H         LINE#         288
  C:0652H         LINE#         289
  C:0654H         LINE#         290
  C:0657H         LINE#         291
  C:0659H         LINE#         292
  C:065CH         LINE#         293
  C:065EH         LINE#         294
  C:0661H         LINE#         295
  C:0663H         LINE#         296
  C:0666H         LINE#         297
  C:0668H         LINE#         298
  C:066BH         LINE#         300
  C:066EH         LINE#         302
  C:0671H         LINE#         304
  C:0672H         LINE#         305
  C:0674H         LINE#         306
  C:0675H         LINE#         307
  C:0676H         LINE#         308
  C:0679H         LINE#         309
  C:067BH         LINE#         310
  C:067CH         LINE#         311
  C:067DH         LINE#         312
  C:067EH         LINE#         313
  C:0681H         LINE#         314
  C:0684H         LINE#         316
  C:0687H         LINE#         317
  C:0688H         LINE#         318
  C:0689H         LINE#         319
  C:068AH         LINE#         320
  C:068CH         LINE#         321
  C:068FH         LINE#         323
  C:0691H         LINE#         324
  C:0693H         LINE#         325
  C:0694H         LINE#         326
  C:0696H         LINE#         328
  C:0698H         LINE#         329
  C:069AH         LINE#         330
  C:069BH         LINE#         331
  C:069DH         LINE#         333
  C:069FH         LINE#         334
  C:06A1H         LINE#         338
  C:06A3H         LINE#         339
  C:06A5H         LINE#         340
  C:06A7H         LINE#         341
  C:06A9H         LINE#         342
  C:06ABH         LINE#         343
  C:06ADH         LINE#         344
  C:06B0H         LINE#         345
  C:06B2H         LINE#         346
  C:06B4H         LINE#         347
  C:06B6H         LINE#         348
BL51 BANKED LINKER/LOCATER V4.16a           02/26/2007  12:28:42  PAGE 22


  C:06B8H         LINE#         349
  C:06BAH         LINE#         351
  C:06BCH         LINE#         352
  C:06BEH         LINE#         354
  C:06C1H         LINE#         355
  C:06C4H         LINE#         356
  C:06C6H         LINE#         357
  C:06C9H         LINE#         358
  C:06CBH         LINE#         359
  C:06CEH         LINE#         360
  C:06D0H         LINE#         361
  C:06D3H         LINE#         362
  C:06D5H         LINE#         363
  C:06D8H         LINE#         364
  C:06DBH         LINE#         365
  C:06DDH         LINE#         366
  C:06DFH         LINE#         367
  C:06E0H         LINE#         368
  C:06E1H         LINE#         369
  C:06E3H         LINE#         370
  C:06E4H         LINE#         372
  C:06E7H         LINE#         373
  C:06E9H         LINE#         374
  C:06EBH         LINE#         375
  C:06ECH         LINE#         376
  C:06EDH         LINE#         377
  C:06EFH         LINE#         378
  C:06F0H         LINE#         379
  C:06F3H         LINE#         380
  C:06F5H         LINE#         381
  C:06F7H         LINE#         382
  C:06F8H         LINE#         383
  C:06F9H         LINE#         384
  C:06FBH         LINE#         385
  C:06FCH         LINE#         386
  C:06FFH         LINE#         387
  C:0701H         LINE#         388
  C:0703H         LINE#         389
  C:0704H         LINE#         390
  C:0705H         LINE#         391
  C:0707H         LINE#         392
  C:0708H         LINE#         393
  C:070BH         LINE#         394
  C:070EH         LINE#         395
  C:0710H         LINE#         396
  C:0712H         LINE#         397
  C:0713H         LINE#         398
  C:0715H         LINE#         399
  C:0717H         LINE#         401
  C:0719H         LINE#         402
  C:071AH         LINE#         403
  C:071DH         LINE#         404
  C:0720H         LINE#         405
  C:0723H         LINE#         408
  C:0725H         LINE#         409
  C:0727H         LINE#         410
  C:0728H         LINE#         411
  C:072BH         LINE#         412
  C:072EH         LINE#         413
  C:0731H         LINE#         416
  C:0734H         LINE#         417
  C:0737H         LINE#         419
  C:0739H         LINE#         420
  C:073BH         LINE#         421
  C:073EH         LINE#         422
BL51 BANKED LINKER/LOCATER V4.16a           02/26/2007  12:28:42  PAGE 23


  C:0741H         LINE#         424
  C:0743H         LINE#         425
  C:0746H         LINE#         426
  C:0749H         LINE#         436
  C:074BH         LINE#         437
  C:074EH         LINE#         439
  C:0751H         LINE#         440
  C:0753H         LINE#         441
  C:0756H         LINE#         442
  C:0758H         LINE#         443
  C:075BH         LINE#         444
  C:075DH         LINE#         446
  C:075FH         LINE#         447
  C:0760H         LINE#         448
  C:0763H         LINE#         449
  C:0765H         LINE#         450
  C:0767H         LINE#         451
  C:0768H         LINE#         453
  C:0769H         LINE#         454
  C:076BH         LINE#         455
  C:076DH         LINE#         457
  C:0770H         LINE#         458
  C:0772H         LINE#         462
  C:0774H         LINE#         463
  C:0776H         LINE#         464
  C:0778H         LINE#         465
  C:077AH         LINE#         466
  C:077DH         LINE#         467
  C:077FH         LINE#         471
  C:0780H         LINE#         472
  C:0782H         LINE#         473
  C:0784H         LINE#         474
  C:0786H         LINE#         475
  C:0788H         LINE#         476
  C:078AH         LINE#         477
  C:078CH         LINE#         480
  C:078FH         LINE#         482
  C:0791H         LINE#         483
  C:0793H         LINE#         484
  C:0796H         LINE#         485
  C:0799H         LINE#         486
  C:079CH         LINE#         489
  C:079EH         LINE#         491
  C:079FH         LINE#         492
  C:07A1H         LINE#         493
  C:07A3H         LINE#         495
  C:07A5H         LINE#         496
  C:07A7H         LINE#         497
  C:07A8H         LINE#         498
  C:07A9H         LINE#         499
  C:07ABH         LINE#         503
  C:07ADH         LINE#         504
  C:07AEH         LINE#         505
  C:07B0H         LINE#         506
  C:07B1H         LINE#         507
  C:07B2H         LINE#         508
  C:07B4H         LINE#         509
  C:07B5H         LINE#         510
  C:07B6H         LINE#         511
  C:07B7H         LINE#         512
  C:07B9H         LINE#         513
  C:07BAH         LINE#         514
  C:07BCH         LINE#         515
  C:07BDH         LINE#         516
  C:07BEH         LINE#         517
BL51 BANKED LINKER/LOCATER V4.16a           02/26/2007  12:28:42  PAGE 24


  C:07C0H         LINE#         518
  C:07C1H         LINE#         519
  C:07C3H         LINE#         520
  C:07C5H         LINE#         522
  C:07C7H         LINE#         523
  C:07C8H         LINE#         524
  C:07C9H         LINE#         525
  C:07CBH         LINE#         526
  C:07CCH         LINE#         527
  C:07CEH         LINE#         528
  C:07D0H         LINE#         530
  C:07D2H         LINE#         531
  C:07D3H         LINE#         532
  C:07D4H         LINE#         533
  C:07D6H         LINE#         534
  C:07D7H         LINE#         535
  C:07D9H         LINE#         536
  C:07DBH         LINE#         538
  C:07DEH         LINE#         539
  C:07DFH         LINE#         540
  C:07E1H         LINE#         541
  C:07E2H         LINE#         542
  C:07E3H         LINE#         543
  C:07E5H         LINE#         544
  C:07E7H         LINE#         545
  C:07E9H         LINE#         547
  C:07EBH         LINE#         548
  C:07ECH         LINE#         549
  C:07EDH         LINE#         550
  C:07EFH         LINE#         551
  C:07F1H         LINE#         556
  C:07F3H         LINE#         557
  C:07F4H         LINE#         558
  C:07F7H         LINE#         559
  C:07F9H         LINE#         562
  C:07FBH         LINE#         563
  C:07FDH         LINE#         564
  C:0800H         LINE#         566
  C:0802H         LINE#         567
  C:0805H         LINE#         568
  C:0807H         LINE#         569
  C:080AH         LINE#         570
  C:080CH         LINE#         571
  C:080FH         LINE#         572
  C:0811H         LINE#         573
  C:0813H         LINE#         574
  C:0815H         LINE#         575
  C:0818H         LINE#         577
  C:081BH         LINE#         578
  C:081EH         LINE#         579
  C:0821H         LINE#         580
  C:0823H         LINE#         581
  C:0826H         LINE#         582
  C:0828H         LINE#         583
  C:082BH         LINE#         585
  C:082DH         LINE#         586
  C:0830H         LINE#         588
  C:0832H         LINE#         589
  C:0834H         LINE#         590
  C:0836H         LINE#         591
  C:0837H         LINE#         592
  C:083AH         LINE#         598
  C:083DH         LINE#         601
  C:083FH         LINE#         602
  C:0842H         LINE#         603
BL51 BANKED LINKER/LOCATER V4.16a           02/26/2007  12:28:42  PAGE 25


  C:0844H         LINE#         604
  C:0847H         LINE#         605
  C:0849H         LINE#         606
  C:084CH         LINE#         607
  C:084EH         LINE#         608
  C:0850H         LINE#         609
  C:0852H         LINE#         610
  C:0855H         LINE#         612
  C:0858H         LINE#         613
  C:085AH         LINE#         617
  C:085DH         LINE#         619
  C:085FH         LINE#         620
  C:0862H         LINE#         621
  C:0864H         LINE#         622
  C:0867H         LINE#         623
  C:0869H         LINE#         624
  C:086CH         LINE#         625
  C:086EH         LINE#         626
  C:0870H         LINE#         627
  C:0872H         LINE#         628
  C:0875H         LINE#         630
  C:0878H         LINE#         631
  C:087AH         LINE#         633
  C:087DH         LINE#         635
  C:087FH         LINE#         636
  C:0882H         LINE#         637
  C:0884H         LINE#         638
  C:0887H         LINE#         639
  C:0889H         LINE#         640
  C:088CH         LINE#         641
  C:088EH         LINE#         642
  C:0890H         LINE#         643
  C:0892H         LINE#         644
  C:0895H         LINE#         646
  C:0898H         LINE#         647
  C:089AH         LINE#         650
  C:089CH         LINE#         651
  C:089EH         LINE#         652
  C:08A1H         LINE#         653
  C:08A3H         LINE#         654
  C:08A6H         LINE#         658
  C:08A8H         LINE#         659
  C:08ABH         LINE#         660
  C:08AEH         LINE#         661
  C:08B1H         LINE#         663
  C:08B3H         LINE#         664
  C:08B6H         LINE#         665
  C:08B9H         LINE#         666
  C:08BCH         LINE#         668
  C:08BFH         LINE#         669
  C:08C2H         LINE#         670
  C:08C5H         LINE#         672
  C:08C8H         LINE#         673
  C:08CBH         LINE#         674
  C:08CEH         LINE#         675
  C:08D1H         LINE#         676
  C:08D4H         LINE#         677
  C:08D7H         LINE#         678
  C:08DAH         LINE#         679
  C:08DDH         LINE#         681
  C:08E0H         LINE#         682
  C:08E3H         LINE#         684
  C:08E6H         LINE#         685
  C:08E9H         LINE#         687
  C:08ECH         LINE#         688
BL51 BANKED LINKER/LOCATER V4.16a           02/26/2007  12:28:42  PAGE 26


  C:08EFH         LINE#         690
  C:08F2H         LINE#         691
  C:08F5H         LINE#         693
  C:08F8H         LINE#         694
  C:08FBH         LINE#         696
  C:08FEH         LINE#         699
  C:0900H         LINE#         700
  C:0903H         LINE#         702
  C:0906H         LINE#         703
  C:0909H         LINE#         705
  C:090CH         LINE#         706
  C:090FH         LINE#         707
  C:0912H         LINE#         708
  C:0915H         LINE#         709
  C:0918H         LINE#         710
  C:091BH         LINE#         711
  C:091EH         LINE#         712
  C:0921H         LINE#         713
  C:0924H         LINE#         714
  C:0927H         LINE#         715
  C:092AH         LINE#         716
  C:092DH         LINE#         717
  C:0930H         LINE#         718
  C:0933H         LINE#         719
  C:0936H         LINE#         720
  C:0939H         LINE#         721
  C:093CH         LINE#         722
  C:093FH         LINE#         723
  C:0942H         LINE#         725
  C:0945H         LINE#         727
  C:0948H         LINE#         728
  C:094BH         LINE#         729
  C:094EH         LINE#         730
  C:0951H         LINE#         731
  C:0954H         LINE#         732
  C:0957H         LINE#         733
  C:095AH         LINE#         734
  C:095DH         LINE#         736
  C:0960H         LINE#         737
  C:0963H         LINE#         739
  C:0966H         LINE#         740
  C:0969H         LINE#         742
  C:096CH         LINE#         743
  C:096FH         LINE#         745
  C:0972H         LINE#         746
  C:0975H         LINE#         748
  C:0978H         LINE#         749
  C:097BH         LINE#         751
  C:097EH         LINE#         752
  C:0981H         LINE#         753
  C:0984H         LINE#         755
  C:0987H         LINE#         756
  C:098AH         LINE#         757
  C:098DH         LINE#         758
  C:0990H         LINE#         759
  C:0993H         LINE#         760
  C:0996H         LINE#         761
  C:0999H         LINE#         763
  C:099CH         LINE#         764
  C:099FH         LINE#         766
  C:09A2H         LINE#         767
  C:09A5H         LINE#         769
  C:09A8H         LINE#         770
  C:09ABH         LINE#         772
  C:09AEH         LINE#         773
BL51 BANKED LINKER/LOCATER V4.16a           02/26/2007  12:28:42  PAGE 27


  C:09B1H         LINE#         775
  C:09B4H         LINE#         776
  C:09B7H         LINE#         778
  C:09BAH         LINE#         781
  C:09BCH         LINE#         782
  C:09BFH         LINE#         784
  C:09C2H         LINE#         785
  C:09C5H         LINE#         787
  C:09C8H         LINE#         788
  C:09CBH         LINE#         789
  C:09CEH         LINE#         790
  C:09D1H         LINE#         791
  C:09D4H         LINE#         792
  C:09D7H         LINE#         793
  C:09DAH         LINE#         794
  C:09DDH         LINE#         795
  C:09E0H         LINE#         796
  C:09E3H         LINE#         797
  C:09E6H         LINE#         798
  C:09E9H         LINE#         799
  C:09ECH         LINE#         800
  C:09EFH         LINE#         801
  C:09F2H         LINE#         802
  C:09F5H         LINE#         803
  C:09F8H         LINE#         804
  C:09FBH         LINE#         806
  C:09FEH         LINE#         807
  C:0A01H         LINE#         808
  C:0A04H         LINE#         809
  C:0A07H         LINE#         810
  C:0A0AH         LINE#         811
  C:0A0DH         LINE#         812
  C:0A10H         LINE#         813
  C:0A13H         LINE#         814
  C:0A16H         LINE#         815
  C:0A19H         LINE#         816
  C:0A1CH         LINE#         817
  C:0A1FH         LINE#         818
  C:0A22H         LINE#         819
  C:0A25H         LINE#         820
  C:0A28H         LINE#         821
  C:0A2BH         LINE#         822
  C:0A2EH         LINE#         823
  C:0A31H         LINE#         824
  C:0A34H         LINE#         825
  C:0A37H         LINE#         826
  C:0A39H         LINE#         829
  C:0A3CH         LINE#         830
  C:0A3FH         LINE#         831
  C:0A42H         LINE#         832
  C:0A45H         LINE#         833
  C:0A48H         LINE#         834
  C:0A4BH         LINE#         837
  C:0A4DH         LINE#         838
  C:0A50H         LINE#         840
  C:0A53H         LINE#         841
  C:0A56H         LINE#         843
  C:0A59H         LINE#         844
  C:0A5CH         LINE#         845
  C:0A5FH         LINE#         846
  C:0A62H         LINE#         847
  C:0A65H         LINE#         848
  C:0A68H         LINE#         852
  C:0A6AH         LINE#         853
  C:0A6BH         LINE#         854
BL51 BANKED LINKER/LOCATER V4.16a           02/26/2007  12:28:42  PAGE 28


  C:0A6CH         LINE#         855
  C:0A6FH         LINE#         857
  C:0A72H         LINE#         858
  C:0A74H         LINE#         859
  C:0A77H         LINE#         860
  C:0A79H         LINE#         861
  C:0A7AH         LINE#         863
  C:0A7DH         LINE#         864
  C:0A80H         LINE#         865
  C:0A83H         LINE#         866
  C:0A85H         LINE#         868
  C:0A88H         LINE#         869
  C:0A8BH         LINE#         870
  C:0A8EH         LINE#         871
  C:0A90H         LINE#         873
  C:0A93H         LINE#         874
  C:0A96H         LINE#         875
  C:0A99H         LINE#         876
  C:0A9BH         LINE#         878
  C:0A9EH         LINE#         879
  C:0AA1H         LINE#         880
  C:0AA3H         LINE#         882
  C:0AA6H         LINE#         883
  C:0AA7H         LINE#         884
  C:0AA9H         LINE#         885
  C:0AABH         LINE#         886
  C:0AADH         LINE#         889
  C:0AB0H         LINE#         896
  C:0AB2H         LINE#         897
  C:0AB5H         LINE#         901
  C:0AB6H         LINE#         902
  C:0AB8H         LINE#         903
  C:0ABAH         LINE#         904
  C:0ABBH         LINE#         905
  C:0ABDH         LINE#         907
  C:0AC0H         LINE#         908
  C:0AC2H         LINE#         909
  C:0AC5H         LINE#         911
  C:0AC7H         LINE#         912
  C:0AC8H         LINE#         913
  C:0ACBH         LINE#         914
  C:0ACDH         LINE#         915
  C:0AD0H         LINE#         916
  C:0AD3H         LINE#         917
  C:0AD5H         LINE#         918
  C:0AD8H         LINE#         919
  C:0ADAH         LINE#         922
  C:0ADCH         LINE#         923
  C:0ADDH         LINE#         924
  C:0AE0H         LINE#         926
  C:0AE3H         LINE#         930
  C:0AE5H         LINE#         931
  C:0AE6H         LINE#         932
  C:0AE9H         LINE#         933
  C:0AECH         LINE#         934
  C:0AEFH         LINE#         935
  C:0AF1H         LINE#         936
  C:0AF4H         LINE#         937
  C:0AF6H         LINE#         939
  C:0AF9H         LINE#         941
  C:0AFBH         LINE#         943
  C:0AFCH         LINE#         944
  C:0AFEH         LINE#         945
  C:0B00H         LINE#         946
  C:0B01H         LINE#         947
BL51 BANKED LINKER/LOCATER V4.16a           02/26/2007  12:28:42  PAGE 29


  C:0B03H         LINE#         958
  C:0B05H         LINE#         959
  C:0B08H         LINE#         961
  C:0B0BH         LINE#         962
  C:0B0DH         LINE#         963
  C:0B10H         LINE#         964
  C:0B12H         LINE#         965
  C:0B15H         LINE#         966
  C:0B18H         LINE#         967
  C:0B1AH         LINE#         968
  C:0B1DH         LINE#         969
  C:0B20H         LINE#         971
  C:0B22H         LINE#         972
  C:0B23H         LINE#         973
  C:0B25H         LINE#         974
  C:0B27H         LINE#         975
  C:0B29H         LINE#         976
  C:0B2CH         LINE#         977
  C:0B2EH         LINE#         978
  C:0B31H         LINE#         979
  C:0B33H         LINE#         981
  C:0B36H         LINE#         983
  C:0B38H         LINE#         984
  C:0B3BH         LINE#         986
  C:0B3DH         LINE#         987
  C:0B3EH         LINE#         988
  C:0B40H         LINE#         989
  C:0B42H         LINE#         991
  C:0B44H         LINE#         992
  C:0B47H         LINE#         993
  C:0B49H         LINE#         995
  C:0B4CH         LINE#         996
  C:0B4EH         LINE#         997
  C:0B51H         LINE#         1003
  C:0B53H         LINE#         1004
  C:0B56H         LINE#         1005
  C:0B59H         LINE#         1006
  C:0B5BH         LINE#         1007
  C:0B5EH         LINE#         1008
  C:0B61H         LINE#         1009
  C:0B63H         LINE#         1010
  C:0B64H         LINE#         1011
  C:0B67H         LINE#         1014
  C:0B69H         LINE#         1015
  C:0B6CH         LINE#         1016
  C:0B6FH         LINE#         1017
  C:0B71H         LINE#         1018
  C:0B74H         LINE#         1022
  C:0B75H         LINE#         1023
  C:0B77H         LINE#         1024
  C:0B78H         LINE#         1025
  C:0B7BH         LINE#         1026
  C:0B7EH         LINE#         1027
  C:0B81H         LINE#         1028
  C:0B83H         LINE#         1030
  C:0B86H         LINE#         1031
  C:0B88H         LINE#         1032
  C:0B8BH         LINE#         1033
  C:0B8DH         LINE#         1034
  C:0B8FH         LINE#         1035
  C:0B92H         LINE#         1036
  C:0B95H         LINE#         1037
  C:0B97H         LINE#         1038
  C:0B99H         LINE#         1039
  C:0B9BH         LINE#         1040
BL51 BANKED LINKER/LOCATER V4.16a           02/26/2007  12:28:42  PAGE 30


  C:0B9DH         LINE#         1041
  C:0B9FH         LINE#         1042
  C:0BA1H         LINE#         1043
  C:0BA4H         LINE#         1044
  C:0BA7H         LINE#         1045
  C:0BAAH         LINE#         1046
  C:0BACH         LINE#         1047
  C:0BAEH         LINE#         1048
  C:0BB0H         LINE#         1049
  C:0BB2H         LINE#         1050
  C:0BB5H         LINE#         1055
  C:0BB7H         LINE#         1056
  C:0BB9H         LINE#         1057
  C:0BBBH         LINE#         1058
  C:0BBDH         LINE#         1059
  C:0BBFH         LINE#         1060
  C:0BC1H         LINE#         1061
  C:0BC4H         LINE#         1062
  C:0BC7H         LINE#         1063
  C:0BCAH         LINE#         1064
  C:0BCCH         LINE#         1065
  C:0BCEH         LINE#         1066
  C:0BD0H         LINE#         1067
  C:0BD2H         LINE#         1068
  C:0BD5H         LINE#         1069
  C:0BD8H         LINE#         1070
  C:0BDBH         LINE#         1071
  C:0BDEH         LINE#         1073
  C:0BE0H         LINE#         1074
  C:0BE3H         LINE#         1075
  C:0BE5H         LINE#         1076
  C:0BE7H         LINE#         1077
  C:0BEAH         LINE#         1078
  C:0BEDH         LINE#         1079
  C:0BEFH         LINE#         1080
  C:0BF1H         LINE#         1081
  C:0BF3H         LINE#         1082
  C:0BF5H         LINE#         1083
  C:0BF7H         LINE#         1084
  C:0BF9H         LINE#         1085
  C:0BFBH         LINE#         1086
  C:0BFDH         LINE#         1087
  C:0BFFH         LINE#         1088
  C:0C02H         LINE#         1089
  C:0C05H         LINE#         1090
  C:0C07H         LINE#         1091
  C:0C09H         LINE#         1092
  C:0C0BH         LINE#         1093
  C:0C0DH         LINE#         1094
  C:0C0FH         LINE#         1095
  C:0C11H         LINE#         1096
  C:0C13H         LINE#         1099
  C:0C16H         LINE#         1100
  C:0C19H         LINE#         1101
  C:0C1CH         LINE#         1102
  C:0C1EH         LINE#         1103
  C:0C21H         LINE#         1104
  C:0C24H         LINE#         1106
  C:0C27H         LINE#         1107
  C:0C2AH         LINE#         1108
  C:0C2DH         LINE#         1109
  C:0C30H         LINE#         1110
  C:0C33H         LINE#         1111
  C:0C35H         LINE#         1112
  C:0C38H         LINE#         1114
BL51 BANKED LINKER/LOCATER V4.16a           02/26/2007  12:28:42  PAGE 31


  C:0C3BH         LINE#         1116
  C:0C3EH         LINE#         1117
  C:0C40H         LINE#         1118
  C:0C43H         LINE#         1119
  C:0C46H         LINE#         1120
  C:0C47H         LINE#         1121
  C:0C49H         LINE#         1122
  C:0C4AH         LINE#         1123
  C:0C4DH         LINE#         1124
  C:0C50H         LINE#         1125
  C:0C53H         LINE#         1126
  C:0C55H         LINE#         1129
  C:0C58H         LINE#         1130
  C:0C5BH         LINE#         1131
  C:0C5DH         LINE#         1132
  C:0C60H         LINE#         1135
  C:0C62H         LINE#         1136
  C:0C65H         LINE#         1137
  C:0C67H         LINE#         1138
  C:0C6AH         LINE#         1140
  C:0C6CH         LINE#         1141
  C:0C6FH         LINE#         1142
  C:0C72H         LINE#         1143
  C:0C74H         LINE#         1144
  C:0C77H         LINE#         1146
  C:0C7AH         LINE#         1148
  C:0C7CH         LINE#         1149
  C:0C7FH         LINE#         1150
  C:0C82H         LINE#         1152
  C:0C85H         LINE#         1153
  C:0C88H         LINE#         1154
  C:0C8AH         LINE#         1155
  C:0C8DH         LINE#         1156
  C:0C8FH         LINE#         1158
  C:0C90H         LINE#         1159
  C:0C92H         LINE#         1160
  C:0C93H         LINE#         1161
  C:0C96H         LINE#         1162
  C:0C99H         LINE#         1163
  C:0C9CH         LINE#         1164
  C:0C9EH         LINE#         1165
  C:0CA0H         LINE#         1166
  C:0CA3H         LINE#         1167
  C:0CA5H         LINE#         1169
  C:0CA6H         LINE#         1170
  C:0CA9H         LINE#         1171
  C:0CAAH         LINE#         1173
  C:0CADH         LINE#         1175
  C:0CB0H         LINE#         1176
  C:0CB2H         LINE#         1177
  C:0CB5H         LINE#         1178
  C:0CB7H         LINE#         1179
  C:0CBAH         LINE#         1180
  C:0CBCH         LINE#         1181
  C:0CBEH         LINE#         1182
  C:0CC0H         LINE#         1184
  C:0CC2H         LINE#         1185
  C:0CC4H         LINE#         1186
  C:0CC6H         LINE#         1187
  C:0CC8H         LINE#         1188
  C:0CCAH         LINE#         1189
  C:0CCCH         LINE#         1190
  C:0CCFH         LINE#         1191
  C:0CD2H         LINE#         1192
  C:0CD5H         LINE#         1193
BL51 BANKED LINKER/LOCATER V4.16a           02/26/2007  12:28:42  PAGE 32


  C:0CD8H         LINE#         1194
  C:0CDAH         LINE#         1201
  C:0CDCH         LINE#         1202
  C:0CDFH         LINE#         1204
  C:0CE2H         LINE#         1205
  C:0CE3H         LINE#         1206
  C:0CE5H         LINE#         1207
  C:0CE6H         LINE#         1210
  C:0CE9H         LINE#         1211
  C:0CECH         LINE#         1212
  C:0CEFH         LINE#         1213
  C:0CF1H         LINE#         1214
  C:0CF4H         LINE#         1215
  C:0CF7H         LINE#         1216
  C:0CFAH         LINE#         1217
  C:0CFCH         LINE#         1219
  C:0CFFH         LINE#         1220
  C:0D01H         LINE#         1221
  C:0D03H         LINE#         1222
  C:0D05H         LINE#         1223
  C:0D07H         LINE#         1224
  C:0D09H         LINE#         1225
  C:0D0CH         LINE#         1226
  C:0D0FH         LINE#         1227
  C:0D12H         LINE#         1228
  C:0D15H         LINE#         1229
  C:0D17H         LINE#         1230
  C:0D1AH         LINE#         1231
  C:0D1DH         LINE#         1232
  C:0D20H         LINE#         1233
  C:0D22H         LINE#         1234
  C:0D24H         LINE#         1235
  C:0D26H         LINE#         1236
  C:0D28H         LINE#         1237
  C:0D2BH         LINE#         1238
  C:0D2DH         LINE#         1239
  C:0D30H         LINE#         1240
  C:0D33H         LINE#         1242
  C:0D35H         LINE#         1243
  C:0D38H         LINE#         1245
  C:0D3AH         LINE#         1247
  C:0D3CH         LINE#         1248
  C:0D3DH         LINE#         1249
  C:0D40H         LINE#         1251
  C:0D42H         LINE#         1252
  C:0D45H         LINE#         1254
  C:0D48H         LINE#         1255
  C:0D4BH         LINE#         1256
  C:0D4EH         LINE#         1258
  C:0D50H         LINE#         1259
  C:0D52H         LINE#         1260
  C:0D54H         LINE#         1261
  C:0D56H         LINE#         1262
  C:0D59H         LINE#         1263
  C:0D5CH         LINE#         1264
  C:0D5FH         LINE#         1265
  C:0D61H         LINE#         1266
  C:0D63H         LINE#         1267
  C:0D64H         LINE#         1268
  C:0D67H         LINE#         1269
  C:0D6AH         LINE#         1270
  C:0D6DH         LINE#         1271
  C:0D6FH         LINE#         1273
  C:0D72H         LINE#         1274
  C:0D75H         LINE#         1275
BL51 BANKED LINKER/LOCATER V4.16a           02/26/2007  12:28:42  PAGE 33


  C:0D78H         LINE#         1276
  C:0D7BH         LINE#         1277
  C:0D7EH         LINE#         1278
  C:0D81H         LINE#         1279
  C:0D84H         LINE#         1280
  C:0D87H         LINE#         1282
  C:0D89H         LINE#         1283
  C:0D8CH         LINE#         1285
  C:0D8FH         LINE#         1286
  C:0D92H         LINE#         1287
  C:0D95H         LINE#         1288
  C:0D97H         LINE#         1289
  C:0D99H         LINE#         1290
  C:0D9AH         LINE#         1291
  C:0D9DH         LINE#         1292
  C:0DA0H         LINE#         1293
  C:0DA3H         LINE#         1294
  C:0DA5H         LINE#         1298
  C:0DA7H         LINE#         1299
  C:0DA9H         LINE#         1300
  C:0DACH         LINE#         1305
  C:0DAEH         LINE#         1306
  C:0DB1H         LINE#         1307
  C:0DB2H         LINE#         1308
  C:0DB5H         LINE#         1309
  C:0DB6H         LINE#         1310
  C:0DB8H         LINE#         1311
  C:0DBAH         LINE#         1313
  C:0DBBH         LINE#         1314
  C:0DBDH         LINE#         1315
  C:0DBFH         LINE#         1316
  C:0DC1H         LINE#         1317
  C:0DC2H         LINE#         1318
  C:0DC4H         LINE#         1319
  C:0DC5H         LINE#         1320
  C:0DC6H         LINE#         1321
  C:0DC7H         LINE#         1322
  C:0DC9H         LINE#         1324
  C:0DCBH         LINE#         1325
  C:0DCEH         LINE#         1326
  C:0DD0H         LINE#         1327
  C:0DD2H         LINE#         1329
  C:0DD4H         LINE#         1330
  C:0DD5H         LINE#         1331
  C:0DD7H         LINE#         1332
  C:0DD8H         LINE#         1333
  C:0DD9H         LINE#         1334
  C:0DDAH         LINE#         1335
  C:0DDBH         LINE#         1336
  C:0DDDH         LINE#         1337
  C:0DDFH         LINE#         1338
  C:0DE0H         LINE#         1339
  C:0DE2H         LINE#         1340
  C:0DE3H         LINE#         1341
  C:0DE4H         LINE#         1342
  C:0DE5H         LINE#         1343
  C:0DE7H         LINE#         1345
  C:0DE9H         LINE#         1346
  C:0DECH         LINE#         1347
  C:0DEEH         LINE#         1348
  C:0DEFH         LINE#         1349
  C:0DF1H         LINE#         1351
  C:0DF4H         LINE#         1352
  C:0DF6H         LINE#         1353
  C:0DF8H         LINE#         1354
BL51 BANKED LINKER/LOCATER V4.16a           02/26/2007  12:28:42  PAGE 34


  C:0DFAH         LINE#         1355
  C:0DFCH         LINE#         1356
  C:0DFFH         LINE#         1357
  C:0E02H         LINE#         1358
  C:0E05H         LINE#         1359
  C:0E08H         LINE#         1360
  C:0E0BH         LINE#         1365
  C:0E0EH         LINE#         1366
  C:0E11H         LINE#         1367
  C:0E13H         LINE#         1368
  C:0E16H         LINE#         1370
  C:0E19H         LINE#         1371
  C:0E1CH         LINE#         1372
  C:0E1FH         LINE#         1373
  C:0E21H         LINE#         1374
  C:0E24H         LINE#         1376
  C:0E25H         LINE#         1378
  C:0E28H         LINE#         1379
  C:0E29H         LINE#         1381
  C:0E2CH         LINE#         1384
  C:0E2FH         LINE#         1385
  C:0E31H         LINE#         1386
  C:0E34H         LINE#         1387
  C:0E36H         LINE#         1388
  C:0E39H         LINE#         1389
  C:0E3BH         LINE#         1390
  C:0E3DH         LINE#         1391
  C:0E40H         LINE#         1393
  C:0E41H         LINE#         1394
  C:0E44H         LINE#         1407
  C:0E47H         LINE#         1409
  C:0E49H         LINE#         1410
  C:0E4BH         LINE#         1411
  C:0E4EH         LINE#         1414
  C:0E50H         LINE#         1415
  C:0E52H         LINE#         1416
  C:0E53H         LINE#         1417
  C:0E55H         LINE#         1418
  C:0E57H         LINE#         1419
  C:0E59H         LINE#         1429
  C:0E5CH         LINE#         1430
  C:0E5FH         LINE#         1431
  C:0E62H         LINE#         1433
  C:0E65H         LINE#         1434
  C:0E68H         LINE#         1440
  C:0E6AH         LINE#         1441
  C:0E6DH         LINE#         1443
  C:0E70H         LINE#         1444
  C:0E72H         LINE#         1445
  C:0E75H         LINE#         1448
  C:0E77H         LINE#         1449
  C:0E79H         LINE#         1450
  C:0E7CH         LINE#         1452
  C:0E7EH         LINE#         1453
  C:0E80H         LINE#         1454
  C:0E82H         LINE#         1455
  C:0E83H         LINE#         1456
  C:0E85H         LINE#         1457
  C:0E86H         LINE#         1458
  C:0E87H         LINE#         1459
  C:0E88H         LINE#         1460
  C:0E8AH         LINE#         1461
  C:0E8CH         LINE#         1462
  C:0E8EH         LINE#         1463
  C:0E90H         LINE#         1464
BL51 BANKED LINKER/LOCATER V4.16a           02/26/2007  12:28:42  PAGE 35


  C:0E92H         LINE#         1465
  C:0E95H         LINE#         1466
  C:0E97H         LINE#         1467
  C:0E99H         LINE#         1468
  C:0E9BH         LINE#         1469
  C:0E9CH         LINE#         1470
  C:0E9FH         LINE#         1471
  C:0EA2H         LINE#         1472
  C:0EA4H         LINE#         1473
  C:0EA5H         LINE#         1474
  C:0EA7H         LINE#         1475
  C:0EA8H         LINE#         1476
  C:0EAAH         LINE#         1477
  C:0EADH         LINE#         1478
  C:0EB0H         LINE#         1479
  C:0EB2H         LINE#         1480
  C:0EB3H         LINE#         1481
  C:0EB5H         LINE#         1483
  C:0EB6H         LINE#         1484
  C:0EB8H         LINE#         1486
  C:0EBAH         LINE#         1487
  C:0EBCH         LINE#         1489
  C:0EBEH         LINE#         1490
  C:0EBFH         LINE#         1491
  C:0EC0H         LINE#         1492
  C:0EC2H         LINE#         1493
  C:0EC3H         LINE#         1494
  C:0EC5H         LINE#         1495
  C:0EC6H         LINE#         1496
  C:0EC8H         LINE#         1500
  C:0ECAH         LINE#         1501
  C:0ECDH         LINE#         1504
  C:0ECFH         LINE#         1505
  C:0ED0H         LINE#         1506
  C:0ED3H         LINE#         1507
  C:0ED5H         LINE#         1508
  C:0ED6H         LINE#         1509
  C:0ED8H         LINE#         1510
  C:0EDBH         LINE#         1511
  C:0EDDH         LINE#         1512
  C:0EDFH         LINE#         1513
  C:0EE2H         LINE#         1514
  C:0EE4H         LINE#         1515
  C:0EE6H         LINE#         1517
  C:0EE8H         LINE#         1523
  C:0EEAH         LINE#         1524
  C:0EEBH         LINE#         1525
  C:0EEEH         LINE#         1526
  C:0EF0H         LINE#         1527
  C:0EF1H         LINE#         1528
  C:0EF2H         LINE#         1529
  C:0EF4H         LINE#         1530
  C:0EF5H         LINE#         1531
  C:0EF8H         LINE#         1532
  C:0EFAH         LINE#         1533
  C:0EFBH         LINE#         1535
  C:0EFEH         LINE#         1536
  C:0F00H         LINE#         1537
  C:0F03H         LINE#         1538
  C:0F05H         LINE#         1539
  C:0F07H         LINE#         1540
  C:0F0AH         LINE#         1543
  C:0F0DH         LINE#         1544
  C:0F0FH         LINE#         1545
  C:0F11H         LINE#         1546
BL51 BANKED LINKER/LOCATER V4.16a           02/26/2007  12:28:42  PAGE 36


  C:0F13H         LINE#         1547
  C:0F14H         LINE#         1548
  C:0F17H         LINE#         1549
  C:0F19H         LINE#         1552
  C:0F1BH         LINE#         1553
  C:0F1EH         LINE#         1554
  C:0F20H         LINE#         1555
  C:0F22H         LINE#         1556
  C:0F24H         LINE#         1559
  C:0F27H         LINE#         1560
  C:0F2AH         LINE#         1561
  C:0F2DH         LINE#         1562
  C:0F30H         LINE#         1563
  C:0F33H         LINE#         1565
  C:0F35H         LINE#         1566
  C:0F37H         LINE#         1567
  C:0F3AH         LINE#         1570
  C:0F3CH         LINE#         1572
  C:0F3EH         LINE#         1573
  C:0F3FH         LINE#         1574
  C:0F41H         LINE#         1575
  C:0F42H         LINE#         1576
  C:0F43H         LINE#         1577
  C:0F45H         LINE#         1578
  C:0F46H         LINE#         1579
  C:0F47H         LINE#         1580
  C:0F48H         LINE#         1581
  C:0F4AH         LINE#         1582
  C:0F4BH         LINE#         1583
  C:0F4DH         LINE#         1584
  C:0F4EH         LINE#         1585
  C:0F4FH         LINE#         1586
  C:0F51H         LINE#         1587
  C:0F52H         LINE#         1588
  C:0F53H         LINE#         1589
  C:0F54H         LINE#         1590
  C:0F56H         LINE#         1592
  C:0F58H         LINE#         1593
  C:0F59H         LINE#         1594
  C:0F5AH         LINE#         1595
  C:0F5CH         LINE#         1596
  C:0F5DH         LINE#         1597
  C:0F5EH         LINE#         1598
  C:0F5FH         LINE#         1599
  C:0F61H         LINE#         1601
  C:0F63H         LINE#         1602
  C:0F64H         LINE#         1603
  C:0F65H         LINE#         1604
  C:0F67H         LINE#         1605
  C:0F68H         LINE#         1606
  C:0F69H         LINE#         1607
  C:0F6AH         LINE#         1608
  C:0F6CH         LINE#         1611
  C:0F6DH         LINE#         1612
  C:0F6FH         LINE#         1613
  C:0F70H         LINE#         1614
  C:0F71H         LINE#         1615
  C:0F73H         LINE#         1616
  C:0F74H         LINE#         1617
  C:0F75H         LINE#         1618
  C:0F76H         LINE#         1620
  C:0F78H         LINE#         1621
  C:0F79H         LINE#         1622
  C:0F7AH         LINE#         1623
  C:0F7CH         LINE#         1624
BL51 BANKED LINKER/LOCATER V4.16a           02/26/2007  12:28:42  PAGE 37


  C:0F7DH         LINE#         1625
  C:0F7EH         LINE#         1626
  C:0F7FH         LINE#         1627
  C:0F80H         LINE#         1629
  C:0F83H         LINE#         1630
  C:0F84H         LINE#         1631
  C:0F86H         LINE#         1632
  C:0F87H         LINE#         1633
  C:0F88H         LINE#         1634
  C:0F8AH         LINE#         1635
  C:0F8CH         LINE#         1637
  C:0F8FH         LINE#         1640
  C:0F91H         LINE#         1641
  C:0F92H         LINE#         1642
  C:0F93H         LINE#         1643
  C:0F95H         LINE#         1644
  C:0F96H         LINE#         1648
  C:0F99H         LINE#         1649
  C:0F9CH         LINE#         1650
  C:0F9EH         LINE#         1651
  C:0FA1H         LINE#         1652
  C:0FA2H         LINE#         1653
  C:0FA4H         LINE#         1655
  C:0FA5H         LINE#         1656
  C:0FA7H         LINE#         1659
  C:0FA9H         LINE#         1660
  C:0FACH         LINE#         1661
  C:0FAFH         LINE#         1662
  C:0FB2H         LINE#         1663
  C:0FB5H         LINE#         1664
  C:0FB7H         LINE#         1666
  C:0FBAH         LINE#         1667
  C:0FBDH         LINE#         1668
  C:0FC0H         LINE#         1669
  C:0FC3H         LINE#         1670
  C:0FC4H         LINE#         1671
  C:0FC5H         LINE#         1672
  C:0FC6H         LINE#         1673
  C:0FC7H         LINE#         1674
  C:0FC8H         LINE#         1675
  C:0FC9H         LINE#         1676
  C:0FCAH         LINE#         1677
  C:0FCBH         LINE#         1678
  C:0FCCH         LINE#         1679
  C:0FCDH         LINE#         1680
  C:0FCEH         LINE#         1684
  C:0FD1H         LINE#         1685
  C:0FD4H         LINE#         1686
  C:0FD7H         LINE#         1687
  C:0FDAH         LINE#         1689
  C:0FDCH         LINE#         1691
  C:0FDFH         LINE#         1692
  C:0FE2H         LINE#         1694
  C:0FE5H         LINE#         1695
  C:0FE7H         LINE#         1696
  C:0FE8H         LINE#         1697
  C:0FEAH         LINE#         1698
  C:0FEDH         LINE#         1699
  C:0FEFH         LINE#         1700
  C:0FF1H         LINE#         1701
  C:0FF4H         LINE#         1702
  C:0FF6H         LINE#         1703
  C:0FF8H         LINE#         1704
  C:0FFBH         LINE#         1705
  C:0FFDH         LINE#         1706
BL51 BANKED LINKER/LOCATER V4.16a           02/26/2007  12:28:42  PAGE 38


  C:0FFFH         LINE#         1708
  C:1001H         LINE#         1709
  C:1003H         LINE#         1713
  C:1005H         LINE#         1714
  C:1007H         LINE#         1715
  C:1009H         LINE#         1716
  C:100AH         LINE#         1717
  C:100BH         LINE#         1719
  C:100DH         LINE#         1720
  C:100FH         LINE#         1721
  C:1011H         LINE#         1723
  C:1013H         LINE#         1724
  C:1015H         LINE#         1725
  C:1017H         LINE#         1727
  C:101AH         LINE#         1728
  C:101DH         LINE#         1730
  C:101FH         LINE#         1731
  C:1021H         LINE#         1732
  C:1023H         LINE#         1733
  C:1024H         LINE#         1734
  C:1025H         LINE#         1735
  C:1026H         LINE#         1736
  C:1027H         LINE#         1737
  C:1028H         LINE#         1738
  C:1029H         LINE#         1739
  C:102AH         LINE#         1740
  C:102BH         LINE#         1741
  C:102EH         LINE#         1743
  C:1030H         LINE#         1744
  C:1033H         LINE#         1745
  C:1036H         LINE#         1746
  C:1039H         LINE#         1747
  C:103BH         LINE#         1749
  C:103EH         LINE#         1750
  C:1041H         LINE#         1751
  C:1044H         LINE#         1753
  C:1047H         LINE#         1754
  C:104AH         LINE#         1755
  C:104BH         LINE#         1756
  C:104DH         LINE#         1757
  C:104EH         LINE#         1758
  C:104FH         LINE#         1759
  C:1051H         LINE#         1760
  C:1052H         LINE#         1761
  C:1053H         LINE#         1762
  C:1055H         LINE#         1763
  C:1056H         LINE#         1764
  C:1057H         LINE#         1765
  C:1059H         LINE#         1766
  C:105CH         LINE#         1767
  C:105EH         LINE#         1768
  C:1061H         LINE#         1770
  C:1063H         LINE#         1772
  C:1066H         LINE#         1773
  C:1069H         LINE#         1774
  C:106CH         LINE#         1775
  C:106FH         LINE#         1776
  C:1071H         LINE#         1779
  C:1074H         LINE#         1780
  C:1077H         LINE#         1781
  C:107AH         LINE#         1782
  C:107DH         LINE#         1783
  C:1080H         LINE#         1784
  C:1083H         LINE#         1785
  C:1086H         LINE#         1786
BL51 BANKED LINKER/LOCATER V4.16a           02/26/2007  12:28:42  PAGE 39


  C:1088H         LINE#         1788
  C:108BH         LINE#         1789
  C:108EH         LINE#         1790
  C:1091H         LINE#         1791
  C:1094H         LINE#         1792
  C:1096H         LINE#         1793
  C:1099H         LINE#         1794
  C:109CH         LINE#         1795
  C:109FH         LINE#         1796
  C:10A1H         LINE#         1799
  C:10A4H         LINE#         1800
  C:10A7H         LINE#         1801
  C:10AAH         LINE#         1802
  C:10ACH         LINE#         1803
  C:10AFH         LINE#         1806
  C:10B1H         LINE#         1808
  C:10B3H         LINE#         1809
  C:10B6H         LINE#         1810
  C:10B9H         LINE#         1811
  C:10BCH         LINE#         1812
  C:10BFH         LINE#         1813
  C:10C1H         LINE#         1814
  C:10C4H         LINE#         1815
  C:10C6H         LINE#         1818
  C:10C9H         LINE#         1819
  C:10CBH         LINE#         1820
  C:10CEH         LINE#         1822
  C:10D1H         LINE#         1823
  C:10D3H         LINE#         1824
  C:10D6H         LINE#         1825
  C:10D8H         LINE#         1826
  C:10DBH         LINE#         1832
  C:10DDH         LINE#         1833
  C:10E0H         LINE#         1835
  C:10E2H         LINE#         1836
  C:10E4H         LINE#         1837
  C:10E6H         LINE#         1838
  C:10E8H         LINE#         1840
  C:10EBH         LINE#         1841
  C:10EEH         LINE#         1842
  C:10F0H         LINE#         1845
  C:10F3H         LINE#         1847
  C:10F5H         LINE#         1848
  C:10F8H         LINE#         1851
  C:10FBH         LINE#         1852
  C:10FDH         LINE#         1853
  C:1100H         LINE#         1855
  C:1102H         LINE#         1856
  C:1104H         LINE#         1857
  C:1106H         LINE#         1858
  C:1108H         LINE#         1859
  C:110AH         LINE#         1860
  C:110BH         LINE#         1861
  C:110EH         LINE#         1864
  C:1111H         LINE#         1865
  C:1113H         LINE#         1866
  C:1115H         LINE#         1867
  C:1117H         LINE#         1868
  C:1118H         LINE#         1869
  C:111AH         LINE#         1870
  C:111DH         LINE#         1872
  C:1120H         LINE#         1873
  C:1122H         LINE#         1874
  C:1125H         LINE#         1875
  C:1127H         LINE#         1876
BL51 BANKED LINKER/LOCATER V4.16a           02/26/2007  12:28:42  PAGE 40


  C:112AH         LINE#         1877
  C:112DH         LINE#         1879
  C:1130H         LINE#         1880
  C:1133H         LINE#         1881
  C:1135H         LINE#         1882
  C:1138H         LINE#         1883
  C:113BH         LINE#         1885
  C:113EH         LINE#         1886
  C:1140H         LINE#         1888
  C:1142H         LINE#         1889
  C:1144H         LINE#         1890
  C:1145H         LINE#         1891
  C:1147H         LINE#         1892
  C:114AH         LINE#         1896
  C:114DH         LINE#         1898
  C:114FH         LINE#         1899
  C:1152H         LINE#         1900
  C:1154H         LINE#         1901
  C:1156H         LINE#         1902
  C:1158H         LINE#         1903
  C:115AH         LINE#         1905
  C:115CH         LINE#         1906
  C:115EH         LINE#         1907
  C:115FH         LINE#         1908
  C:1160H         LINE#         1909
  C:1162H         LINE#         1910
  C:1164H         LINE#         1911
  C:1165H         LINE#         1912
  C:1168H         LINE#         1914
  C:116BH         LINE#         1919
  C:116DH         LINE#         1920
  C:116EH         LINE#         1921
  C:1170H         LINE#         1922
  C:1171H         LINE#         1923
  C:1173H         LINE#         1924
  C:1174H         LINE#         1925
  C:1176H         LINE#         1926
  C:1177H         LINE#         1928
  C:117AH         LINE#         1929
  C:117CH         LINE#         1930
  C:117FH         LINE#         1931
  C:1181H         LINE#         1932
  C:1184H         LINE#         1933
  C:1187H         LINE#         1934
  C:118AH         LINE#         1935
  C:118DH         LINE#         1936
  C:1190H         LINE#         1937
  C:1193H         LINE#         1938
  C:1194H         LINE#         1939
  C:1196H         LINE#         1940
  C:1197H         LINE#         1941
  C:1199H         LINE#         1942
  C:119CH         LINE#         1945
  C:119EH         LINE#         1946
  C:11A0H         LINE#         1947
  C:11A2H         LINE#         1948
  C:11A4H         LINE#         1949
  C:11A5H         LINE#         1950
  C:11A8H         LINE#         1952
  C:11ABH         LINE#         1957
  C:11ADH         LINE#         1958
  C:11AEH         LINE#         1959
  C:11B0H         LINE#         1960
  C:11B1H         LINE#         1961
  C:11B3H         LINE#         1962
BL51 BANKED LINKER/LOCATER V4.16a           02/26/2007  12:28:42  PAGE 41


  C:11B4H         LINE#         1963
  C:11B6H         LINE#         1964
  C:11B7H         LINE#         1966
  C:11BAH         LINE#         1967
  C:11BCH         LINE#         1968
  C:11BFH         LINE#         1969
  C:11C1H         LINE#         1970
  C:11C4H         LINE#         1971
  C:11C7H         LINE#         1972
  C:11CAH         LINE#         1973
  C:11CDH         LINE#         1974
  C:11D0H         LINE#         1975
  C:11D3H         LINE#         1976
  C:11D4H         LINE#         1977
  C:11D6H         LINE#         1978
  C:11D7H         LINE#         1979
  C:11D9H         LINE#         1980
  C:11DCH         LINE#         1982
  C:11DEH         LINE#         1983
  C:11E0H         LINE#         1984
  C:11E2H         LINE#         1985
  C:11E4H         LINE#         1986
  C:11E6H         LINE#         1987
  C:11E7H         LINE#         1988
  C:11EAH         LINE#         1990
  C:11EDH         LINE#         1991
  C:11EFH         LINE#         1992
  C:11F1H         LINE#         1993
  C:11F3H         LINE#         1994
  C:11F4H         LINE#         1995
  C:11F6H         LINE#         1996
  C:11F9H         LINE#         1997
  C:11FCH         LINE#         1998
  C:11FDH         LINE#         1999
  C:1200H         LINE#         2004
  C:1203H         LINE#         2005
  C:1206H         LINE#         2006
  C:1209H         LINE#         2007
  C:120CH         LINE#         2008
  C:120FH         LINE#         2010
  C:1212H         LINE#         2011
  C:1215H         LINE#         2013
  C:1217H         LINE#         2014
  C:1219H         LINE#         2015
  C:121BH         LINE#         2016
  C:121DH         LINE#         2017
  C:121FH         LINE#         2018
  C:1221H         LINE#         2019
  C:1223H         LINE#         2020
  C:1225H         LINE#         2021
  C:1227H         LINE#         2022
  C:1229H         LINE#         2023
  C:122BH         LINE#         2024
  C:122DH         LINE#         2027
  C:1230H         LINE#         2028
  C:1233H         LINE#         2031
  C:1235H         LINE#         2032
  C:1237H         LINE#         2033
  C:1238H         LINE#         2034
  C:1239H         LINE#         2035
  C:123BH         LINE#         2037
  C:123DH         LINE#         2038
  C:1240H         LINE#         2039
  C:1242H         LINE#         2040
  C:1244H         LINE#         2041
BL51 BANKED LINKER/LOCATER V4.16a           02/26/2007  12:28:42  PAGE 42


  C:1246H         LINE#         2042
  C:1248H         LINE#         2043
  C:124BH         LINE#         2044
  C:124EH         LINE#         2045
  C:1251H         LINE#         2046
  C:1253H         LINE#         2047
  C:1256H         LINE#         2049
  C:1259H         LINE#         2050
  C:125CH         LINE#         2051
  C:125EH         LINE#         2052
  C:1261H         LINE#         2053
  C:1264H         LINE#         2054
  C:1266H         LINE#         2055
  C:1269H         LINE#         2056
  C:126CH         LINE#         2057
  C:126EH         LINE#         2058
  C:1271H         LINE#         2059
  C:1274H         LINE#         2060
  C:1276H         LINE#         2061
  C:1279H         LINE#         2062
  C:127CH         LINE#         2063
  C:127EH         LINE#         2064
  C:1281H         LINE#         2065
  C:1284H         LINE#         2067
  C:1287H         LINE#         2068
  C:1289H         LINE#         2069
  C:128BH         LINE#         2071
  C:128EH         LINE#         2073
  C:1291H         LINE#         2074
  C:1293H         LINE#         2075
  C:1295H         LINE#         2076
  C:1297H         LINE#         2077
  C:1298H         LINE#         2078
  C:129AH         LINE#         2079
  C:129DH         LINE#         2080
  C:12A0H         LINE#         2081
  C:12A3H         LINE#         2082
  C:12A5H         LINE#         2083
  C:12A8H         LINE#         2084
  C:12ABH         LINE#         2085
  C:12AEH         LINE#         2087
  C:12B0H         LINE#         2088
  C:12B3H         LINE#         2090
  C:12B5H         LINE#         2092
  C:12B6H         LINE#         2093
  C:12B9H         LINE#         2095
  C:12BCH         LINE#         2096
  C:12BEH         LINE#         2102
  C:12C0H         LINE#         2104
  C:12C1H         LINE#         2105
  C:12C4H         LINE#         2106
  C:12C6H         LINE#         2107
  C:12C8H         LINE#         2108
  C:12CBH         LINE#         2109
  C:12CDH         LINE#         2110
  C:12D0H         LINE#         2111
  C:12D2H         LINE#         2112
  C:12D5H         LINE#         2113
  C:12D7H         LINE#         2114
  C:12DAH         LINE#         2115
  C:12DCH         LINE#         2117
  C:12DFH         LINE#         2119
  C:12E1H         LINE#         2120
  C:12E2H         LINE#         2121
  C:12E4H         LINE#         2122
BL51 BANKED LINKER/LOCATER V4.16a           02/26/2007  12:28:42  PAGE 43


  C:12E5H         LINE#         2123
  C:12E7H         LINE#         2124
  C:12EAH         LINE#         2125
  C:12ECH         LINE#         2126
  C:12EEH         LINE#         2128
  C:12F0H         LINE#         2129
  C:12F2H         LINE#         2131
  C:12F5H         LINE#         2132
  C:12F8H         LINE#         2133
  C:12FBH         LINE#         2134
  C:12FDH         LINE#         2136
  C:12FFH         LINE#         2137
  C:1301H         LINE#         2138
  C:1303H         LINE#         2139
  C:1305H         LINE#         2141
  C:1308H         LINE#         2142
  C:130AH         LINE#         2143
  C:130BH         LINE#         2144
  C:130DH         LINE#         2145
  C:130EH         LINE#         2146
  C:1310H         LINE#         2148
  C:1312H         LINE#         2149
  C:1314H         LINE#         2150
  C:1316H         LINE#         2151
  C:1317H         LINE#         2152
  C:1319H         LINE#         2153
  C:131BH         LINE#         2154
  C:131DH         LINE#         2155
  C:131EH         LINE#         2156
  C:1320H         LINE#         2157
  C:1322H         LINE#         2158
  C:1324H         LINE#         2159
  C:1326H         LINE#         2160
  C:1328H         LINE#         2161
  C:1329H         LINE#         2163
  C:132CH         LINE#         2164
  C:132EH         LINE#         2166
  C:1331H         LINE#         2167
  C:1333H         LINE#         2168
  C:1335H         LINE#         2169
  C:1338H         LINE#         2171
  C:133AH         LINE#         2172
  C:133CH         LINE#         2188
  C:133EH         LINE#         2189
  C:1340H         LINE#         2190
  C:1343H         LINE#         2191
  C:1345H         LINE#         2192
  C:1346H         LINE#         2193
  C:1348H         LINE#         2194
  C:134BH         LINE#         2195
  C:134EH         LINE#         2196
  C:1350H         LINE#         2197
  C:1351H         LINE#         2198
  C:1353H         LINE#         2199
  C:1356H         LINE#         2201
  C:1358H         LINE#         2202
  C:1359H         LINE#         2203
  C:135BH         LINE#         2204
  C:135EH         LINE#         2210
  C:1360H         LINE#         2211
  C:1362H         LINE#         2212
  C:1364H         LINE#         2213
  C:1366H         LINE#         2214
  C:1369H         LINE#         2216
  C:136BH         LINE#         2217
BL51 BANKED LINKER/LOCATER V4.16a           02/26/2007  12:28:42  PAGE 44


  C:136DH         LINE#         2218
  C:136EH         LINE#         2219
  C:1370H         LINE#         2220
  C:1373H         LINE#         2223
  C:1374H         LINE#         2224
  C:1376H         LINE#         2225
  C:1378H         LINE#         2226
  C:137AH         LINE#         2227
  C:137BH         LINE#         2228
  C:137DH         LINE#         2229
  C:1380H         LINE#         2230
  C:1382H         LINE#         2231
  C:1384H         LINE#         2233
  C:1387H         LINE#         2234
  C:1389H         LINE#         2235
  C:138BH         LINE#         2238
  C:138DH         LINE#         2239
  C:138FH         LINE#         2241
  C:1392H         LINE#         2243
  C:1395H         LINE#         2244
  C:1398H         LINE#         2245
  C:139AH         LINE#         2246
  C:139CH         LINE#         2247
  C:139EH         LINE#         2249
  C:13A1H         LINE#         2250
  C:13A4H         LINE#         2251
  C:13A6H         LINE#         2252
  C:13A9H         LINE#         2253
  C:13ABH         LINE#         2254
  C:13AEH         LINE#         2256
  C:13B1H         LINE#         2258
  C:13B2H         LINE#         2259
  C:13B5H         LINE#         2261
  C:13B8H         LINE#         2264
  C:13BAH         LINE#         2265
  C:13BCH         LINE#         2266
  C:13BDH         LINE#         2267
  C:13BFH         LINE#         2268
  C:13C2H         LINE#         2270
  C:13C5H         LINE#         2271
  C:13C7H         LINE#         2272
  C:13C9H         LINE#         2273
  C:13CBH         LINE#         2274
  C:13CDH         LINE#         2275
  C:13CFH         LINE#         2276
  C:13D1H         LINE#         2277
  C:13D3H         LINE#         2278
  C:13D5H         LINE#         2279
  C:13D8H         LINE#         2281
  C:13DBH         LINE#         2282
  C:13DEH         LINE#         2283
  C:13E1H         LINE#         2284
  C:13E3H         LINE#         2285
  C:13E6H         LINE#         2286
  C:13E9H         LINE#         2287
  C:13ECH         LINE#         2288
  C:13EEH         LINE#         2289
  C:13F1H         LINE#         2290
  C:13F4H         LINE#         2291
  C:13F6H         LINE#         2293
  C:13F9H         LINE#         2294
  C:13FCH         LINE#         2295
  C:13FFH         LINE#         2296
  C:1401H         LINE#         2297
  C:1404H         LINE#         2298
BL51 BANKED LINKER/LOCATER V4.16a           02/26/2007  12:28:42  PAGE 45


  C:1407H         LINE#         2299
  C:1409H         LINE#         2301
  C:140CH         LINE#         2302
  C:140FH         LINE#         2303
  C:1412H         LINE#         2304
  C:1414H         LINE#         2305
  C:1417H         LINE#         2306
  C:141AH         LINE#         2307
  C:141CH         LINE#         2311
  C:141FH         LINE#         2312
  C:1421H         LINE#         2313
  C:1424H         LINE#         2314
  C:1426H         LINE#         2315
  C:1429H         LINE#         2316
  C:142BH         LINE#         2317
  C:142EH         LINE#         2318
  C:1430H         LINE#         2319
  C:1431H         LINE#         2326
  C:1433H         LINE#         2327
  C:1435H         LINE#         2328
  C:1436H         LINE#         2329
  C:1437H         LINE#         2330
  C:1438H         LINE#         2331
  C:143AH         LINE#         2332
  C:143DH         LINE#         2334
  C:143FH         LINE#         2335
  C:1442H         LINE#         2336
  C:1444H         LINE#         2344
  C:1446H         LINE#         2345
  C:1448H         LINE#         2346
  C:1449H         LINE#         2347
  C:144AH         LINE#         2348
  C:144BH         LINE#         2349
  C:144DH         LINE#         2350
  C:144FH         LINE#         2351
  C:1450H         LINE#         2352
  C:1452H         LINE#         2353
  C:1455H         LINE#         2354
  C:1456H         LINE#         2355
  C:1459H         LINE#         2357
  C:145CH         LINE#         2358
  C:145EH         LINE#         2359
  C:1461H         LINE#         2361
  C:1463H         LINE#         2362
  C:1466H         LINE#         2363
  C:1469H         LINE#         2364
  C:146CH         LINE#         2366
  C:146FH         LINE#         2367
  C:1472H         LINE#         2368
  C:1475H         LINE#         2369
  C:1477H         LINE#         2370
  C:147AH         LINE#         2372
  C:147DH         LINE#         2374
  C:1480H         LINE#         2377
  C:1482H         LINE#         2378
  C:1485H         LINE#         2385
  C:1488H         LINE#         2386
  C:148BH         LINE#         2387
  C:148EH         LINE#         2389
  C:1490H         LINE#         2390
  C:1492H         LINE#         2391
  C:1493H         LINE#         2392
  C:1494H         LINE#         2393
  C:1496H         LINE#         2395
  C:1499H         LINE#         2396
BL51 BANKED LINKER/LOCATER V4.16a           02/26/2007  12:28:42  PAGE 46


  C:149CH         LINE#         2397
  C:149EH         LINE#         2398
  C:14A1H         LINE#         2399
  C:14A3H         LINE#         2400
  C:14A6H         LINE#         2401
  C:14A9H         LINE#         2402
  C:14AAH         LINE#         2403
  C:14ACH         LINE#         2405
  C:14AEH         LINE#         2406
  C:14AFH         LINE#         2407
  C:14B0H         LINE#         2408
  C:14B2H         LINE#         2409
  C:14B5H         LINE#         2410
  C:14B8H         LINE#         2411
  C:14BBH         LINE#         2412
  C:14BDH         LINE#         2413
  C:14C0H         LINE#         2414
  C:14C3H         LINE#         2415
  C:14C4H         LINE#         2416
  C:14C6H         LINE#         2417
  C:14C9H         LINE#         2420
  C:14CCH         LINE#         2421
  C:14CFH         LINE#         2423
  C:14D2H         LINE#         2424
  C:14D5H         LINE#         2425
  C:14D8H         LINE#         2426
  C:14DBH         LINE#         2427
  C:14DEH         LINE#         2428
  C:14E0H         LINE#         2429
  C:14E3H         LINE#         2430
  C:14E6H         LINE#         2431
  C:14E9H         LINE#         2432
  C:14ECH         LINE#         2433
  C:14EFH         LINE#         2434
  C:14F1H         LINE#         2435
  C:14F4H         LINE#         2441
  C:14F6H         LINE#         2442
  C:14F7H         LINE#         2443
  C:14F8H         LINE#         2444
  C:14FAH         LINE#         2445
  C:14FDH         LINE#         2446
  C:1500H         LINE#         2447
  C:1503H         LINE#         2448
  C:1506H         LINE#         2449
  C:1509H         LINE#         2450
  C:150CH         LINE#         2451
  C:150FH         LINE#         2453
  C:1512H         LINE#         2456
  C:1515H         LINE#         2457
  C:1517H         LINE#         2458
  C:151AH         LINE#         2460
  C:151DH         LINE#         2461
  C:151FH         LINE#         2462
  C:1522H         LINE#         2463
  C:1524H         LINE#         2464
  C:1527H         LINE#         2465
  C:152AH         LINE#         2466
  C:152DH         LINE#         2468
  C:1530H         LINE#         2469
  C:1533H         LINE#         2470
  C:1535H         LINE#         2471
  C:1538H         LINE#         2472
  C:153AH         LINE#         2473
  C:153DH         LINE#         2474
  C:1540H         LINE#         2475
BL51 BANKED LINKER/LOCATER V4.16a           02/26/2007  12:28:42  PAGE 47


  C:1543H         LINE#         2476
  C:1546H         LINE#         2477
  C:1549H         LINE#         2478
  C:154BH         LINE#         2479
  C:154EH         LINE#         2480
  C:1550H         LINE#         2481
  C:1553H         LINE#         2482
  C:1556H         LINE#         2483
  C:1559H         LINE#         2485
  C:155CH         LINE#         2486
  C:155FH         LINE#         2487
  C:1561H         LINE#         2488
  C:1564H         LINE#         2489
  C:1566H         LINE#         2490
  C:1569H         LINE#         2491
  C:156CH         LINE#         2492
  C:156FH         LINE#         2495
  C:1571H         LINE#         2496
  C:1574H         LINE#         2497
  C:1576H         LINE#         2498
  C:1579H         LINE#         2499
  C:157CH         LINE#         2501
  C:157FH         LINE#         2502
  C:1582H         LINE#         2504
  C:1585H         LINE#         2505
  C:1588H         LINE#         2506
  C:158AH         LINE#         2508
  C:158CH         LINE#         2524
  C:158FH         LINE#         2525
  C:1592H         LINE#         2526
  C:1595H         LINE#         2534
  C:1597H         LINE#         2535
  C:1599H         LINE#         2536
  C:159AH         LINE#         2537
  C:159BH         LINE#         2538
  C:159CH         LINE#         2539
  C:159EH         LINE#         2540
  C:15A0H         LINE#         2542
  C:15A2H         LINE#         2543
  C:15A4H         LINE#         2544
  C:15A5H         LINE#         2545
  C:15A6H         LINE#         2546
  C:15A8H         LINE#         2547
  C:15AAH         LINE#         2548
  C:15ABH         LINE#         2549
  C:15AEH         LINE#         2550
  C:15B0H         LINE#         2551
  C:15B1H         LINE#         2552
  C:15B4H         LINE#         2555
  C:15B7H         LINE#         2556
  C:15B9H         LINE#         2557
  C:15BCH         LINE#         2558
  C:15BEH         LINE#         2560
  C:15C1H         LINE#         2561
  C:15C4H         LINE#         2562
  C:15C7H         LINE#         2565
  C:15C8H         LINE#         2566
  C:15CAH         LINE#         2567
  C:15CBH         LINE#         2568
  C:15CDH         LINE#         2569
  C:15D0H         LINE#         2570
  C:15D3H         LINE#         2578
  C:15D5H         LINE#         2579
  C:15D7H         LINE#         2580
  C:15D8H         LINE#         2581
BL51 BANKED LINKER/LOCATER V4.16a           02/26/2007  12:28:42  PAGE 48


  C:15D9H         LINE#         2582
  C:15DAH         LINE#         2583
  C:15DCH         LINE#         2585
  C:15DEH         LINE#         2586
  C:15E0H         LINE#         2587
  C:15E1H         LINE#         2588
  C:15E2H         LINE#         2589
  C:15E4H         LINE#         2590
  C:15E6H         LINE#         2591
  C:15E7H         LINE#         2592
  C:15EAH         LINE#         2597
  C:15ECH         LINE#         2598
  C:15EEH         LINE#         2599
  C:15EFH         LINE#         2600
  C:15F0H         LINE#         2602
  C:15F1H         LINE#         2603
  C:15F3H         LINE#         2605
  C:15F6H         LINE#         2606
  C:15F9H         LINE#         2607
  C:15FCH         LINE#         2608
  C:15FFH         LINE#         2609
  C:1602H         LINE#         2611
  C:1605H         LINE#         2618
  C:1607H         LINE#         2619
  C:1609H         LINE#         2620
  C:160BH         LINE#         2621
  C:160DH         LINE#         2622
  C:160FH         LINE#         2623
  C:1611H         LINE#         2624
  C:1613H         LINE#         2625
  C:1615H         LINE#         2626
  C:1617H         LINE#         2627
  C:1619H         LINE#         2628
  C:161BH         LINE#         2629
  C:161DH         LINE#         2637
  C:1620H         LINE#         2638
  C:1623H         LINE#         2639
  C:1625H         LINE#         2640
  C:1627H         LINE#         2641
  C:1629H         LINE#         2642
  C:162BH         LINE#         2643
  C:162CH         LINE#         2644
  C:162DH         LINE#         2646
  C:162FH         LINE#         2647
  C:1631H         LINE#         2648
  C:1633H         LINE#         2650
  C:1635H         LINE#         2651
  C:1637H         LINE#         2652
  C:1639H         LINE#         2654
  C:163CH         LINE#         2655
  C:163FH         LINE#         2657
  C:1641H         LINE#         2658
  C:1643H         LINE#         2660
  C:1644H         LINE#         2662
  C:1647H         LINE#         2663
  C:164AH         LINE#         2664
  C:164DH         LINE#         2665
  C:1650H         LINE#         2666
  C:1653H         LINE#         2667
  C:1656H         LINE#         2669
  C:1659H         LINE#         2670
  C:165CH         LINE#         2672
  C:165EH         LINE#         2673
  C:1660H         LINE#         2674
  C:1662H         LINE#         2675
BL51 BANKED LINKER/LOCATER V4.16a           02/26/2007  12:28:42  PAGE 49


  C:1664H         LINE#         2676
  C:1666H         LINE#         2677
  C:1668H         LINE#         2678
  C:166AH         LINE#         2679
  C:166CH         LINE#         2680
  C:166EH         LINE#         2681
  C:1670H         LINE#         2682
  C:1672H         LINE#         2683
  C:1674H         LINE#         2686
  C:1677H         LINE#         2689
  C:1679H         LINE#         2690
  C:167BH         LINE#         2691
  C:167CH         LINE#         2692
  C:167DH         LINE#         2693
  C:167FH         LINE#         2696
  C:1681H         LINE#         2697
  C:1684H         LINE#         2698
  C:1686H         LINE#         2699
  C:1688H         LINE#         2700
  C:168AH         LINE#         2701
  C:168CH         LINE#         2702
  C:168FH         LINE#         2703
  C:1692H         LINE#         2704
  C:1695H         LINE#         2705
  C:1697H         LINE#         2706
  C:169AH         LINE#         2707
  C:169DH         LINE#         2708
  C:169FH         LINE#         2709
  C:16A2H         LINE#         2710
  C:16A5H         LINE#         2711
  C:16A7H         LINE#         2712
  C:16AAH         LINE#         2713
  C:16ADH         LINE#         2714
  C:16AFH         LINE#         2715
  C:16B2H         LINE#         2716
  C:16B5H         LINE#         2717
  C:16B7H         LINE#         2718
  C:16BAH         LINE#         2719
  C:16BDH         LINE#         2720
  C:16BFH         LINE#         2721
  C:16C2H         LINE#         2735
  C:16C4H         LINE#         2736
  C:16C6H         LINE#         2737
  C:16C9H         LINE#         2738
  C:16CBH         LINE#         2739
  C:16CCH         LINE#         2740
  C:16CEH         LINE#         2741
  C:16D1H         LINE#         2744
  C:16D4H         LINE#         2745
  C:16D6H         LINE#         2746
  C:16D7H         LINE#         2747
  C:16D9H         LINE#         2748
  C:16DCH         LINE#         2749
  C:16DEH         LINE#         2750
  C:16DFH         LINE#         2751
  C:16E1H         LINE#         2752
  C:16E4H         LINE#         2755
  C:16E7H         LINE#         2756
  C:16EAH         LINE#         2758
  C:16EDH         LINE#         2759
  C:16EFH         LINE#         2760
  C:16F1H         LINE#         2761
  C:16F3H         LINE#         2762
  C:16F6H         LINE#         2763
  C:16F9H         LINE#         2764
BL51 BANKED LINKER/LOCATER V4.16a           02/26/2007  12:28:42  PAGE 50


  C:16FCH         LINE#         2765
  C:16FFH         LINE#         2766
  C:1701H         LINE#         2767
  C:1703H         LINE#         2768
  C:1706H         LINE#         2770
  C:1708H         LINE#         2771
  C:170AH         LINE#         2772
  C:170CH         LINE#         2773
  C:170FH         LINE#         2774
  C:1712H         LINE#         2776
  C:1714H         LINE#         2777
  C:1717H         LINE#         2778
  C:1719H         LINE#         2779
  C:171BH         LINE#         2780
  C:171EH         LINE#         2782
  C:1721H         LINE#         2784
  C:1724H         LINE#         2785
  C:1727H         LINE#         2786
  C:1729H         LINE#         2787
  C:172CH         LINE#         2788
  C:172EH         LINE#         2789
  C:1731H         LINE#         2791
  C:1734H         LINE#         2793
  C:1736H         LINE#         2794
  C:1737H         LINE#         2795
  C:173AH         LINE#         2796
  C:173BH         LINE#         2797
  C:173DH         LINE#         2800
  C:1740H         LINE#         2801
  C:1742H         LINE#         2802
  C:1745H         LINE#         2803
  C:1747H         LINE#         2804
  C:174AH         LINE#         2805
  C:174CH         LINE#         2806
  C:174FH         LINE#         2807
  C:1752H         LINE#         2809
  C:1755H         LINE#         2810
  C:1757H         LINE#         2811
  C:1759H         LINE#         2812
  C:175CH         LINE#         2813
  C:175EH         LINE#         2814
  C:1761H         LINE#         2815
  C:1764H         LINE#         2817
  C:1766H         LINE#         2818
  C:1769H         LINE#         2819
  C:176CH         LINE#         2820
  C:176EH         LINE#         2821
  C:1771H         LINE#         2822
  C:1774H         LINE#         2824
  C:1777H         LINE#         2825
  C:177AH         LINE#         2826
  C:177DH         LINE#         2827
  C:177FH         LINE#         2828
  C:1782H         LINE#         2829
  C:1785H         LINE#         2830
  C:1788H         LINE#         2831
  C:1789H         LINE#         2833
  C:178CH         LINE#         2835
  C:178FH         LINE#         2837
  C:1792H         LINE#         2839
  C:1795H         LINE#         2840
  C:1798H         LINE#         2842
  C:179BH         LINE#         2852
  C:179DH         LINE#         2853
  C:17A0H         LINE#         2854
BL51 BANKED LINKER/LOCATER V4.16a           02/26/2007  12:28:42  PAGE 51


  C:17A3H         LINE#         2855
  C:17A6H         LINE#         2856
  C:17A9H         LINE#         2857
  C:17ABH         LINE#         2858
  C:17AEH         LINE#         2859
  C:17B1H         LINE#         2860
  C:17B4H         LINE#         2861
  C:17B7H         LINE#         2862
  C:17B9H         LINE#         2863
  C:17BCH         LINE#         2864
  C:17BEH         LINE#         2865
  C:17C1H         LINE#         2866
  C:17C3H         LINE#         2867
  C:17C6H         LINE#         2869
  C:17C8H         LINE#         2871
  C:17CAH         LINE#         2873
  C:17CCH         LINE#         2874
  C:17CEH         LINE#         2875
  C:17D0H         LINE#         2876
  C:17D3H         LINE#         2877
  C:17D6H         LINE#         2879
  C:17D9H         LINE#         2880
  C:17DCH         LINE#         2881
  C:17DFH         LINE#         2882
  C:17E1H         LINE#         2883
  C:17E3H         LINE#         2884
  C:17E6H         LINE#         2885
  C:17E9H         LINE#         2886
  C:17ECH         LINE#         2890
  C:17EEH         LINE#         2892
  C:17F1H         LINE#         2893
  C:17F4H         LINE#         2894
  C:17F7H         LINE#         2895
  C:17F9H         LINE#         2896
  C:17FBH         LINE#         2898
  C:17FEH         LINE#         2899
  C:1801H         LINE#         2900
  C:1804H         LINE#         2901
  C:1807H         LINE#         2902
  C:1809H         LINE#         2903
  C:180BH         LINE#         2905
  C:180DH         LINE#         2906
  C:180FH         LINE#         2907
  C:1811H         LINE#         2908
  C:1813H         LINE#         2909
  C:1816H         LINE#         2913
  C:1819H         LINE#         2914
  C:181CH         LINE#         2915
  C:181FH         LINE#         2916
  C:1821H         LINE#         2917
  C:1823H         LINE#         2919
  C:1825H         LINE#         2920
  C:1826H         LINE#         2922
  C:1829H         LINE#         2923
  C:182BH         LINE#         2924
  C:182DH         LINE#         2925
  C:182FH         LINE#         2926
  C:1832H         LINE#         2927
  C:1835H         LINE#         2928
  C:1838H         LINE#         2929
  C:183BH         LINE#         2931
  C:183EH         LINE#         2932
  C:1841H         LINE#         2936
  C:1844H         LINE#         2938
  C:1847H         LINE#         2940
BL51 BANKED LINKER/LOCATER V4.16a           02/26/2007  12:28:42  PAGE 52


  C:184AH         LINE#         2945
  C:184CH         LINE#         2946
  C:184DH         LINE#         2947
  C:1850H         LINE#         2948
  C:1851H         LINE#         2949
  C:1853H         LINE#         2950
  C:1856H         LINE#         2952
  C:185FH         LINE#         2959
  C:1862H         LINE#         2960
  C:1865H         LINE#         2961
  C:1868H         LINE#         2962
  C:186AH         LINE#         2963
  C:186BH         LINE#         2964
  C:186DH         LINE#         2965
  C:186FH         LINE#         2966
  C:1870H         LINE#         2967
  C:1872H         LINE#         2970
  C:1874H         LINE#         2971
  C:1877H         LINE#         2972
  C:1879H         LINE#         2973
  C:187AH         LINE#         2974
  C:187BH         LINE#         2975
  C:187CH         LINE#         2976
  C:187FH         LINE#         2978
  C:1882H         LINE#         2979
  C:1885H         LINE#         2980
  C:1888H         LINE#         2981
  C:188AH         LINE#         2982
  C:188CH         LINE#         2984
  C:188FH         LINE#         2985
  C:1890H         LINE#         2986
  C:1892H         LINE#         2987
  C:1894H         LINE#         2988
  C:1896H         LINE#         2989
  C:1897H         LINE#         2990
  C:1899H         LINE#         2991
  C:189BH         LINE#         2992
  C:189EH         LINE#         2994
  C:18A1H         LINE#         2995
  C:18A3H         LINE#         2996
  C:18A6H         LINE#         2998
  C:18A8H         LINE#         2999
  C:18A9H         LINE#         3000
  C:18ABH         LINE#         3001
  C:18ACH         LINE#         3002
  C:18AFH         LINE#         3003
  C:18B1H         LINE#         3004
  C:18B4H         LINE#         3005
  C:18B6H         LINE#         3006
  C:18B7H         LINE#         3007
  C:18B9H         LINE#         3008
  C:18BAH         LINE#         3009
  C:18BCH         LINE#         3012
  C:18BEH         LINE#         3013
  C:18C1H         LINE#         3014
  C:18C4H         LINE#         3015
  C:18C6H         LINE#         3016
  C:18C9H         LINE#         3017
  C:18CCH         LINE#         3018
  C:18CFH         LINE#         3019
  C:18D1H         LINE#         3020
  C:18D3H         LINE#         3021
  C:18D5H         LINE#         3022
  C:18D7H         LINE#         3023
  C:18D8H         LINE#         3024
BL51 BANKED LINKER/LOCATER V4.16a           02/26/2007  12:28:42  PAGE 53


  C:18DAH         LINE#         3025
  C:18DDH         LINE#         3027
  C:18E0H         LINE#         3029
  C:18E2H         LINE#         3030
  C:18E4H         LINE#         3031
  C:18E6H         LINE#         3032
  C:18E8H         LINE#         3033
  C:18EAH         LINE#         3034
  C:18ECH         LINE#         3035
  C:18EEH         LINE#         3036
  C:18F0H         LINE#         3037
  C:18F2H         LINE#         3038
  C:18F4H         LINE#         3039
  C:18F6H         LINE#         3040
  C:18F9H         LINE#         3041
  C:18FCH         LINE#         3045
  C:18FFH         LINE#         3046
  C:1902H         LINE#         3047
  C:1905H         LINE#         3048
  C:1907H         LINE#         3049
  C:190AH         LINE#         3050
  C:190DH         LINE#         3051
  C:190FH         LINE#         3052
  C:1912H         LINE#         3053
  C:1915H         LINE#         3054
  C:1917H         LINE#         3055
  C:191AH         LINE#         3056
  C:191DH         LINE#         3057
  C:1920H         LINE#         3059
  C:1923H         LINE#         3062
  C:1926H         LINE#         3063
  C:1928H         LINE#         3064
  C:192BH         LINE#         3065
  C:192EH         LINE#         3066
  C:1931H         LINE#         3068
  C:1934H         LINE#         3069
  C:1936H         LINE#         3070
  C:1939H         LINE#         3071
  C:193CH         LINE#         3072
  C:193FH         LINE#         3074
  C:1941H         LINE#         3075
  C:1944H         LINE#         3076
  C:1947H         LINE#         3077
  C:194AH         LINE#         3079
  C:194DH         LINE#         3080
  C:194FH         LINE#         3081
  C:1952H         LINE#         3082
  C:1955H         LINE#         3083
  C:1958H         LINE#         3084
  C:195BH         LINE#         3085
  C:195DH         LINE#         3086
  C:1960H         LINE#         3087
  C:1962H         LINE#         3088
  C:1965H         LINE#         3089
  C:1967H         LINE#         3091
  C:196AH         LINE#         3092
  C:196DH         LINE#         3093
  C:1970H         LINE#         3094
  C:1973H         LINE#         3095
  C:1975H         LINE#         3096
  C:1978H         LINE#         3097
  C:197BH         LINE#         3098
  C:197EH         LINE#         3099
  C:1981H         LINE#         3100
  C:1984H         LINE#         3101
BL51 BANKED LINKER/LOCATER V4.16a           02/26/2007  12:28:42  PAGE 54


  C:1986H         LINE#         3103
  C:1989H         LINE#         3104
  C:198CH         LINE#         3105
  C:198FH         LINE#         3106
  C:1992H         LINE#         3108
  C:1995H         LINE#         3109
  C:1998H         LINE#         3110
  C:199BH         LINE#         3111
  C:199EH         LINE#         3112
  C:19A1H         LINE#         3114
  C:19A2H         LINE#         3115
  C:19A4H         LINE#         3116
  C:19A6H         LINE#         3117
  C:19A9H         LINE#         3118
  C:19ABH         LINE#         3120
  C:19ADH         LINE#         3124
  C:19B0H         LINE#         3126
  C:19B2H         LINE#         3127
  C:19B4H         LINE#         3128
  C:19B5H         LINE#         3129
  C:19B7H         LINE#         3132
  C:19B8H         LINE#         3133
  C:19B9H         LINE#         3134
  C:19BAH         LINE#         3136
  C:19BCH         LINE#         3137
  C:19BFH         LINE#         3138
  C:19C1H         LINE#         3139
  C:19C2H         LINE#         3140
  C:19C5H         LINE#         3142
  C:19C7H         LINE#         3143
  C:19C9H         LINE#         3147
  C:19CCH         LINE#         3148
  C:19CEH         LINE#         3149
  C:19D0H         LINE#         3150
  C:19D2H         LINE#         3151
  C:19D4H         LINE#         3152
  C:19D6H         LINE#         3153
  C:19D8H         LINE#         3154
  C:19DBH         LINE#         3157
  C:19DDH         LINE#         3158
  C:19DFH         LINE#         3159
  C:19E2H         LINE#         3160
  C:19E5H         LINE#         3162
  C:19E8H         LINE#         3163
  C:19EBH         LINE#         3166
  C:19EEH         LINE#         3167
  C:19F1H         LINE#         3168
  C:19F4H         LINE#         3171
  C:19F7H         LINE#         3172
  C:19F9H         LINE#         3173
  C:19FBH         LINE#         3174
  C:19FCH         LINE#         3175
  C:19FEH         LINE#         3178
  C:19FFH         LINE#         3179
  C:1A00H         LINE#         3180
  C:1A01H         LINE#         3182
  C:1A03H         LINE#         3183
  C:1A06H         LINE#         3184
  C:1A08H         LINE#         3185
  C:1A09H         LINE#         3186
  C:1A0CH         LINE#         3187
  C:1A0FH         LINE#         3191
  C:1A12H         LINE#         3193
  C:1A15H         LINE#         3194
  C:1A17H         LINE#         3195
BL51 BANKED LINKER/LOCATER V4.16a           02/26/2007  12:28:42  PAGE 55


  C:1A19H         LINE#         3196
  C:1A1AH         LINE#         3197
  C:1A1CH         LINE#         3200
  C:1A1DH         LINE#         3201
  C:1A1EH         LINE#         3202
  C:1A1FH         LINE#         3204
  C:1A21H         LINE#         3205
  C:1A24H         LINE#         3206
  C:1A26H         LINE#         3207
  C:1A27H         LINE#         3208
  C:1A2AH         LINE#         3209
  C:1A2DH         LINE#         3210
  C:1A30H         LINE#         3212
  C:1A33H         LINE#         3213
  C:1A35H         LINE#         3214
  C:1A37H         LINE#         3215
  C:1A38H         LINE#         3216
  C:1A3AH         LINE#         3219
  C:1A3BH         LINE#         3220
  C:1A3CH         LINE#         3221
  C:1A3DH         LINE#         3223
  C:1A3FH         LINE#         3224
  C:1A42H         LINE#         3225
  C:1A44H         LINE#         3226
  C:1A45H         LINE#         3227
  C:1A48H         LINE#         3228
  C:1A4BH         LINE#         3232
  C:1A4EH         LINE#         3234
  C:1A51H         LINE#         3235
  C:1A53H         LINE#         3236
  C:1A55H         LINE#         3237
  C:1A56H         LINE#         3238
  C:1A58H         LINE#         3241
  C:1A59H         LINE#         3242
  C:1A5AH         LINE#         3243
  C:1A5BH         LINE#         3245
  C:1A5DH         LINE#         3246
  C:1A60H         LINE#         3247
  C:1A62H         LINE#         3248
  C:1A63H         LINE#         3249
  C:1A66H         LINE#         3250
  C:1A69H         LINE#         3254
  C:1A6CH         LINE#         3255
  C:1A6EH         LINE#         3256
  C:1A70H         LINE#         3257
  C:1A72H         LINE#         3258
  C:1A74H         LINE#         3259
  C:1A77H         LINE#         3261
  C:1A79H         LINE#         3262
  C:1A7CH         LINE#         3263
  C:1A7FH         LINE#         3264
  C:1A81H         LINE#         3266
  C:1A83H         LINE#         3267
  C:1A85H         LINE#         3271
  C:1A88H         LINE#         3273
  C:1A8BH         LINE#         3274
  C:1A8DH         LINE#         3275
  C:1A90H         LINE#         3276
  C:1A93H         LINE#         3277
  C:1A95H         LINE#         3278
  C:1A98H         LINE#         3281
  C:1A9AH         LINE#         3282
  C:1A9DH         LINE#         3284
  C:1AA0H         LINE#         3285
  C:1AA3H         LINE#         3286
BL51 BANKED LINKER/LOCATER V4.16a           02/26/2007  12:28:42  PAGE 56


  C:1AA5H         LINE#         3287
  C:1AA8H         LINE#         3288
  C:1AAAH         LINE#         3289
  C:1AADH         LINE#         3290
  C:1AB0H         LINE#         3291
  C:1AB2H         LINE#         3298
  C:1AB4H         LINE#         3299
  C:1AB6H         LINE#         3300
  C:1AB7H         LINE#         3301
  C:1AB8H         LINE#         3302
  C:1AB9H         LINE#         3303
  C:1ABBH         LINE#         3304
  C:1ABDH         LINE#         3306
  C:1ABFH         LINE#         3307
  C:1AC1H         LINE#         3308
  C:1AC2H         LINE#         3309
  C:1AC3H         LINE#         3310
  C:1AC5H         LINE#         3311
  C:1AC7H         LINE#         3312
  C:1AC8H         LINE#         3314
  C:1ACBH         LINE#         3315
  C:1ACDH         LINE#         3316
  C:1ACEH         LINE#         3317
  C:1AD1H         LINE#         3320
  C:1AD4H         LINE#         3321
  C:1AD6H         LINE#         3322
  C:1AD9H         LINE#         3323
  C:1ADCH         LINE#         3324
  C:1ADEH         LINE#         3325
  C:1AE0H         LINE#         3326
  C:1AE2H         LINE#         3327
  C:1AE4H         LINE#         3328
  C:1AE6H         LINE#         3331
  C:1AE9H         LINE#         3332
  C:1AECH         LINE#         3333
  C:1AEEH         LINE#         3334
  C:1AF1H         LINE#         3335
  C:1AF4H         LINE#         3336
  C:1AF7H         LINE#         3337
  C:1AFAH         LINE#         3338
  C:1AFDH         LINE#         3340
  C:1AFFH         LINE#         3341
  C:1B01H         LINE#         3353
  C:1B03H         LINE#         3354
  C:1B05H         LINE#         3355
  C:1B06H         LINE#         3356
  C:1B07H         LINE#         3357
  C:1B08H         LINE#         3358
  C:1B0AH         LINE#         3360
  C:1B0CH         LINE#         3361
  C:1B0EH         LINE#         3362
  C:1B0FH         LINE#         3363
  C:1B10H         LINE#         3364
  C:1B12H         LINE#         3365
  C:1B14H         LINE#         3366
  C:1B15H         LINE#         3368
  C:1B18H         LINE#         3369
  C:1B1AH         LINE#         3370
  C:1B1BH         LINE#         3371
  C:1B1EH         LINE#         3373
  C:1B21H         LINE#         3374
  C:1B24H         LINE#         3375
  C:1B27H         LINE#         3376
  C:1B2AH         LINE#         3377
  C:1B2DH         LINE#         3378
BL51 BANKED LINKER/LOCATER V4.16a           02/26/2007  12:28:42  PAGE 57


  C:1B30H         LINE#         3380
  C:1B32H         LINE#         3382
  C:1B33H         LINE#         3383
  C:1B35H         LINE#         3384
  C:1B37H         LINE#         3385
  C:1B3AH         LINE#         3386
  C:1B3CH         LINE#         3388
  C:1B3EH         LINE#         3389
  C:1B41H         LINE#         3390
  C:1B44H         LINE#         3391
  C:1B46H         LINE#         3392
  C:1B48H         LINE#         3393
  C:1B49H         LINE#         3394
  C:1B4AH         LINE#         3395
  C:1B4BH         LINE#         3396
  C:1B4CH         LINE#         3397
  C:1B4DH         LINE#         3398
  C:1B4EH         LINE#         3399
  C:1B4FH         LINE#         3400
  C:1B50H         LINE#         3401
  C:1B51H         LINE#         3402
  C:1B52H         LINE#         3403
  C:1B53H         LINE#         3405
  C:1B55H         LINE#         3406
  C:1B57H         LINE#         3407
  C:1B5AH         LINE#         3409
  C:1B5CH         LINE#         3410
  C:1B5EH         LINE#         3411
  C:1B60H         LINE#         3412
  C:1B61H         LINE#         3413
  C:1B63H         LINE#         3414
  C:1B64H         LINE#         3415
  C:1B65H         LINE#         3416
  C:1B66H         LINE#         3417
  C:1B68H         LINE#         3418
  C:1B6AH         LINE#         3419
  C:1B6CH         LINE#         3420
  C:1B6FH         LINE#         3421
  C:1B72H         LINE#         3422
  C:1B74H         LINE#         3423
  C:1B77H         LINE#         3424
  C:1B7AH         LINE#         3425
  C:1B7DH         LINE#         3427
  C:1B80H         LINE#         3428
  C:1B83H         LINE#         3429
  C:1B86H         LINE#         3430
  C:1B89H         LINE#         3432
  C:1B8CH         LINE#         3433
  C:1B8DH         LINE#         3434
  C:1B8FH         LINE#         3435
  C:1B90H         LINE#         3436
  C:1B92H         LINE#         3437
  C:1B95H         LINE#         3438
  C:1B98H         LINE#         3440
  C:1B9BH         LINE#         3443
  C:1B9EH         LINE#         3444
  C:1BA0H         LINE#         3446
  C:1BA3H         LINE#         3448
  C:1BA6H         LINE#         3449
  C:1BA9H         LINE#         3450
  C:1BACH         LINE#         3457
  C:1BAEH         LINE#         3458
  C:1BB0H         LINE#         3459
  C:1BB2H         LINE#         3460
  C:1BB3H         LINE#         3461
BL51 BANKED LINKER/LOCATER V4.16a           02/26/2007  12:28:42  PAGE 58


  C:1BB4H         LINE#         3462
  C:1BB5H         LINE#         3463
  C:1BB7H         LINE#         3465
  C:1BB9H         LINE#         3466
  C:1BBBH         LINE#         3467
  C:1BBCH         LINE#         3468
  C:1BBDH         LINE#         3469
  C:1BBFH         LINE#         3470
  C:1BC1H         LINE#         3471
  C:1BC2H         LINE#         3472
  C:1BC5H         LINE#         3473
  C:1BC8H         LINE#         3474
  C:1BCBH         LINE#         3479
  C:1BCEH         LINE#         3480
  C:1BD1H         LINE#         3481
  C:1BD3H         LINE#         3483
  C:1BD5H         LINE#         3484
  C:1BD7H         LINE#         3485
  C:1BDAH         LINE#         3486
  C:1BDDH         LINE#         3487
  C:1BDFH         LINE#         3488
  C:1BE1H         LINE#         3489
  C:1BE4H         LINE#         3490
  C:1BE6H         LINE#         3491
  C:1BE8H         LINE#         3492
  C:1BE9H         LINE#         3493
  C:1BEAH         LINE#         3494
  C:1BEBH         LINE#         3495
  C:1BECH         LINE#         3496
  C:1BEDH         LINE#         3497
  C:1BEEH         LINE#         3499
  C:1BF0H         LINE#         3500
  C:1BF2H         LINE#         3501
  C:1BF3H         LINE#         3502
  C:1BF5H         LINE#         3503
  C:1BF8H         LINE#         3504
  C:1BFBH         LINE#         3505
  C:1BFDH         LINE#         3506
  C:1BFFH         LINE#         3507
  C:1C01H         LINE#         3508
  C:1C03H         LINE#         3509
  C:1C05H         LINE#         3510
  C:1C08H         LINE#         3511
  C:1C0BH         LINE#         3512
  C:1C0EH         LINE#         3514
  C:1C11H         LINE#         3515
  C:1C14H         LINE#         3516
  C:1C17H         LINE#         3517
  C:1C1AH         LINE#         3518
  C:1C1CH         LINE#         3522
  C:1C1FH         LINE#         3523
  C:1C22H         LINE#         3524
  C:1C25H         LINE#         3525
  C:1C28H         LINE#         3526
  C:1C2BH         LINE#         3528
  C:1C2DH         LINE#         3529
  C:1C2FH         LINE#         3530
  C:1C31H         LINE#         3531
  C:1C34H         LINE#         3532
  C:1C37H         LINE#         3533
  C:1C39H         LINE#         3534
  C:1C3BH         LINE#         3535
  C:1C3EH         LINE#         3536
  C:1C41H         LINE#         3537
  C:1C44H         LINE#         3538
BL51 BANKED LINKER/LOCATER V4.16a           02/26/2007  12:28:42  PAGE 59


  C:1C47H         LINE#         3540
  C:1C4AH         LINE#         3542
  C:1C4DH         LINE#         3543
  C:1C50H         LINE#         3544
  C:1C53H         LINE#         3545
  C:1C56H         LINE#         3546
  C:1C59H         LINE#         3547
  C:1C5BH         LINE#         3548
  C:1C5DH         LINE#         3549
  C:1C5FH         LINE#         3552
  C:1C61H         LINE#         3553
  C:1C63H         LINE#         3554
  C:1C65H         LINE#         3555
  C:1C67H         LINE#         3556
  C:1C6AH         LINE#         3557
  C:1C6DH         LINE#         3558
  C:1C70H         LINE#         3559
  C:1C73H         LINE#         3561
  C:1C76H         LINE#         3563
  C:1C79H         LINE#         3564
  C:1C7CH         LINE#         3565
  C:1C7FH         LINE#         3566
  C:1C82H         LINE#         3567
  C:1C85H         LINE#         3568
  C:1C87H         LINE#         3569
  C:1C89H         LINE#         3570
  C:1C8AH         LINE#         3571
  C:1C8BH         LINE#         3572
  C:1C8DH         LINE#         3574
  C:1C90H         LINE#         3575
  C:1C93H         LINE#         3576
  C:1C95H         LINE#         3577
  C:1C98H         LINE#         3578
  C:1C9AH         LINE#         3579
  C:1C9DH         LINE#         3580
  C:1CA0H         LINE#         3581
  C:1CA3H         LINE#         3582
  C:1CA5H         LINE#         3583
  C:1CA7H         LINE#         3585
  C:1CA9H         LINE#         3586
  C:1CABH         LINE#         3587
  C:1CAEH         LINE#         3591
  C:1CB1H         LINE#         3594
  C:1CB4H         LINE#         3595
  C:1CB6H         LINE#         3597
  C:1CB7H         LINE#         3598
  C:1CB9H         LINE#         3599
  C:1CBBH         LINE#         3600
  C:1CBEH         LINE#         3601
  C:1CC0H         LINE#         3602
  C:1CC2H         LINE#         3603
  C:1CC5H         LINE#         3604
  C:1CC8H         LINE#         3605
  C:1CCBH         LINE#         3606
  C:1CCDH         LINE#         3607
  C:1CCFH         LINE#         3608
  C:1CD2H         LINE#         3609
  C:1CD5H         LINE#         3610
  C:1CD8H         LINE#         3611
  C:1CDBH         LINE#         3612
  C:1CDEH         LINE#         3614
  C:1CE1H         LINE#         3615
  C:1CE4H         LINE#         3616
  C:1CE7H         LINE#         3617
  C:1CEAH         LINE#         3618
BL51 BANKED LINKER/LOCATER V4.16a           02/26/2007  12:28:42  PAGE 60


  C:1CEDH         LINE#         3619
  C:1CF0H         LINE#         3620
  C:1CF3H         LINE#         3621
  C:1CF5H         LINE#         3622
  C:1CF7H         LINE#         3623
  C:1CF9H         LINE#         3624
  C:1CFBH         LINE#         3625
  C:1CFDH         LINE#         3626
  C:1D00H         LINE#         3627
  C:1D03H         LINE#         3628
  C:1D05H         LINE#         3629
  C:1D07H         LINE#         3630
  C:1D0AH         LINE#         3631
  C:1D0DH         LINE#         3632
  C:1D0EH         LINE#         3633
  C:1D10H         LINE#         3634
  C:1D13H         LINE#         3635
  C:1D16H         LINE#         3636
  C:1D19H         LINE#         3637
  C:1D1CH         LINE#         3638
  C:1D1FH         LINE#         3639
  C:1D22H         LINE#         3640
  C:1D25H         LINE#         3641
  C:1D28H         LINE#         3642
  C:1D2AH         LINE#         3643
  C:1D2CH         LINE#         3644
  C:1D2EH         LINE#         3645
  C:1D30H         LINE#         3646
  C:1D33H         LINE#         3647
  C:1D35H         LINE#         3648
  C:1D37H         LINE#         3649
  C:1D39H         LINE#         3650
  C:1D3BH         LINE#         3651
  C:1D3DH         LINE#         3652
  C:1D3FH         LINE#         3653
  C:1D40H         LINE#         3654
  C:1D42H         LINE#         3655
  C:1D43H         LINE#         3656
  C:1D45H         LINE#         3657
  C:1D46H         LINE#         3658
  C:1D48H         LINE#         3659
  C:1D49H         LINE#         3660
  C:1D4AH         LINE#         3663
  C:1D4DH         LINE#         3664
  C:1D50H         LINE#         3665
  C:1D53H         LINE#         3666
  C:1D56H         LINE#         3668
  C:1D59H         LINE#         3672
  C:1D5BH         LINE#         3673
  C:1D5EH         LINE#         3674
  C:1D60H         LINE#         3675
  C:1D62H         LINE#         3676
  C:1D65H         LINE#         3678
  C:1D67H         LINE#         3679
  C:1D69H         LINE#         3680
  C:1D6BH         LINE#         3681
  C:1D6CH         LINE#         3682
  C:1D6EH         LINE#         3683
  C:1D6FH         LINE#         3684
  C:1D70H         LINE#         3685
  C:1D71H         LINE#         3686
  C:1D73H         LINE#         3687
  C:1D75H         LINE#         3688
  C:1D77H         LINE#         3689
  C:1D79H         LINE#         3690
BL51 BANKED LINKER/LOCATER V4.16a           02/26/2007  12:28:42  PAGE 61


  C:1D7BH         LINE#         3691
  C:1D7EH         LINE#         3692
  C:1D80H         LINE#         3693
  C:1D82H         LINE#         3694
  C:1D85H         LINE#         3695
  C:1D87H         LINE#         3696
  C:1D89H         LINE#         3697
  C:1D8CH         LINE#         3698
  C:1D8EH         LINE#         3699
  C:1D90H         LINE#         3700
  C:1D93H         LINE#         3701
  C:1D95H         LINE#         3702
  C:1D97H         LINE#         3703
  C:1D99H         LINE#         3705
  C:1D9BH         LINE#         3706
  C:1D9CH         LINE#         3707
  C:1D9FH         LINE#         3708
  C:1DA1H         LINE#         3709
  C:1DA2H         LINE#         3710
  C:1DA4H         LINE#         3711
  C:1DA5H         LINE#         3712
  C:1DA7H         LINE#         3713
  C:1DAAH         LINE#         3715
  C:1DACH         LINE#         3716
  C:1DADH         LINE#         3717
  C:1DAFH         LINE#         3719
  C:1DB0H         LINE#         3720
  C:1DB2H         LINE#         3721
  C:1DB4H         LINE#         3722
  C:1DB5H         LINE#         3723
  C:1DB6H         LINE#         3724
  C:1DB8H         LINE#         3729
  C:1DBBH         LINE#         3730
  C:1DBEH         LINE#         3731
  C:1DC1H         LINE#         3732
  C:1DC4H         LINE#         3735
  C:1DC6H         LINE#         3736
  C:1DC8H         LINE#         3737
  C:1DC9H         LINE#         3738
  C:1DCBH         LINE#         3739
  C:1DCEH         LINE#         3740
  C:1DD1H         LINE#         3741
  C:1DD4H         LINE#         3742
  C:1DD7H         LINE#         3743
  C:1DD9H         LINE#         3744
  C:1DDBH         LINE#         3745
  C:1DDDH         LINE#         3746
  C:1DDFH         LINE#         3747
  C:1DE1H         LINE#         3749
  C:1DE3H         LINE#         3750
  C:1DE5H         LINE#         3751
  C:1DE6H         LINE#         3752
  C:1DE8H         LINE#         3754
  C:1DEAH         LINE#         3755
  C:1DEBH         LINE#         3756
  C:1DEDH         LINE#         3757
  C:1DEFH         LINE#         3758
  C:1DF1H         LINE#         3760
  C:1DF3H         LINE#         3761
  C:1DF5H         LINE#         3762
  C:1DF8H         LINE#         3763
  C:1DFAH         LINE#         3764
  C:1DFCH         LINE#         3765
  C:1DFEH         LINE#         3766
  C:1DFFH         LINE#         3767
BL51 BANKED LINKER/LOCATER V4.16a           02/26/2007  12:28:42  PAGE 62


  C:1E00H         LINE#         3768
  C:1E02H         LINE#         3770
  C:1E05H         LINE#         3771
  C:1E08H         LINE#         3772
  C:1E0BH         LINE#         3773
  C:1E0DH         LINE#         3774
  C:1E0FH         LINE#         3775
  C:1E11H         LINE#         3776
  C:1E12H         LINE#         3777
  C:1E14H         LINE#         3778
  C:1E15H         LINE#         3779
  C:1E16H         LINE#         3780
  C:1E17H         LINE#         3781
  C:1E19H         LINE#         3782
  C:1E1CH         LINE#         3783
  C:1E1FH         LINE#         3784
  C:1E22H         LINE#         3785
  C:1E25H         LINE#         3786
  C:1E27H         LINE#         3787
  C:1E29H         LINE#         3788
  C:1E2AH         LINE#         3789
  C:1E2CH         LINE#         3790
  C:1E2DH         LINE#         3791
  C:1E2EH         LINE#         3792
  C:1E30H         LINE#         3793
  C:1E31H         LINE#         3794
  C:1E32H         LINE#         3795
  C:1E33H         LINE#         3796
  C:1E34H         LINE#         3797
  C:1E36H         LINE#         3798
  C:1E37H         LINE#         3799
  C:1E38H         LINE#         3800
  C:1E3AH         LINE#         3801
  C:1E3BH         LINE#         3802
  C:1E3EH         LINE#         3804
  C:1E41H         LINE#         3805
  C:1E43H         LINE#         3806
  C:1E46H         LINE#         3807
  C:1E49H         LINE#         3808
  C:1E4CH         LINE#         3809
  C:1E4FH         LINE#         3810
  C:1E52H         LINE#         3812
  C:1E55H         LINE#         3813
  C:1E57H         LINE#         3814
  C:1E5AH         LINE#         3815
  C:1E5DH         LINE#         3816
  C:1E60H         LINE#         3817
  C:1E63H         LINE#         3818
  C:1E66H         LINE#         3820
  C:1E69H         LINE#         3821
  C:1E6BH         LINE#         3822
  C:1E6EH         LINE#         3823
  C:1E71H         LINE#         3824
  C:1E74H         LINE#         3825
  C:1E77H         LINE#         3826
  C:1E7AH         LINE#         3828
  C:1E7DH         LINE#         3829
  C:1E7FH         LINE#         3830
  C:1E82H         LINE#         3831
  C:1E85H         LINE#         3834
  C:1E88H         LINE#         3835
  C:1E8AH         LINE#         3836
  C:1E8DH         LINE#         3837
  C:1E90H         LINE#         3838
  C:1E93H         LINE#         3839
BL51 BANKED LINKER/LOCATER V4.16a           02/26/2007  12:28:42  PAGE 63


  C:1E96H         LINE#         3841
  C:1E97H         LINE#         3842
  C:1E9AH         LINE#         3843
  C:1E9DH         LINE#         3845
  C:1EA0H         LINE#         3847
  C:1EA3H         LINE#         3848
  C:1EA6H         LINE#         3850
  C:1EA9H         LINE#         3851
  C:1EABH         LINE#         3853
  C:1EADH         LINE#         3854
  C:1EAFH         LINE#         3855
  C:1EB2H         LINE#         3856
  C:1EB4H         LINE#         3857
  C:1EB7H         LINE#         3858
  C:1EBAH         LINE#         3859
  C:1EBDH         LINE#         3860
  C:1EC0H         LINE#         3861
  C:1EC2H         LINE#         3863
  C:1EC5H         LINE#         3864
  C:1EC8H         LINE#         3865
  C:1ECBH         LINE#         3866
  C:1ECDH         LINE#         3867
  C:1ED0H         LINE#         3868
  C:1ED3H         LINE#         3871
  C:1ED6H         LINE#         3872
  C:1ED8H         LINE#         3873
  C:1EDAH         LINE#         3874
  C:1EDCH         LINE#         3875
  C:1EDDH         LINE#         3876
  C:1EDFH         LINE#         3877
  C:1EE1H         LINE#         3878
  C:1EE4H         LINE#         3880
  C:1EE6H         LINE#         3881
  C:1EE8H         LINE#         3882
  C:1EEBH         LINE#         3883
  C:1EEEH         LINE#         3884
  C:1EF0H         LINE#         3885
  C:1EF3H         LINE#         3886
  C:1EF5H         LINE#         3887
  C:1EF7H         LINE#         3888
  C:1EFAH         LINE#         3889
  C:1EFDH         LINE#         3891
  C:1F00H         LINE#         3894
  C:1F02H         LINE#         3895
  C:1F04H         LINE#         3896
  C:1F05H         LINE#         3897
  C:1F06H         LINE#         3898
  C:1F08H         LINE#         3899
  C:1F0BH         LINE#         3900
  C:1F0EH         LINE#         3901
  C:1F11H         LINE#         3902
  C:1F13H         LINE#         3903
  C:1F16H         LINE#         3904
  C:1F19H         LINE#         3905
  C:1F1CH         LINE#         3907
  C:1F1DH         LINE#         3908
  C:1F20H         LINE#         3909
  C:1F23H         LINE#         3910
  C:1F26H         LINE#         3912
  C:1F29H         LINE#         3913
  C:1F2CH         LINE#         3914
  C:1F2FH         LINE#         3916
  C:1F32H         LINE#         3917
  C:1F34H         LINE#         3918
  C:1F36H         LINE#         3919
BL51 BANKED LINKER/LOCATER V4.16a           02/26/2007  12:28:42  PAGE 64


  C:1F38H         LINE#         3920
  C:1F3BH         LINE#         3921
  C:1F3EH         LINE#         3923
  C:1F40H         LINE#         3926
  C:1F42H         LINE#         3927
  C:1F45H         LINE#         3928
  C:1F48H         LINE#         3929
  C:1F4BH         LINE#         3930
  C:1F4EH         LINE#         3931
  C:1F51H         LINE#         3932
  C:1F54H         LINE#         3937
  C:1F56H         LINE#         3938
  C:1F58H         LINE#         3939
  C:1F5AH         LINE#         3940
  C:1F5DH         LINE#         3945
  C:1F5FH         LINE#         3946
  C:1F61H         LINE#         3947
  C:1F64H         LINE#         3948
  C:1F66H         LINE#         3949
  C:1F67H         LINE#         3951
  C:1F6AH         LINE#         3952
  C:1F6CH         LINE#         3953
  C:1F6FH         LINE#         3955
  C:1F71H         LINE#         3956
  C:1F73H         LINE#         3957
  C:1F76H         LINE#         3958
  C:1F79H         LINE#         3960
  C:1F7CH         LINE#         3961
  C:1F7FH         LINE#         3962
  C:1F81H         LINE#         3963
  C:1F84H         LINE#         3964
  C:1F86H         LINE#         3965
  C:1F88H         LINE#         3966
  C:1F8BH         LINE#         3968
  C:1F8EH         LINE#         3969
  C:1F91H         LINE#         3971
  C:1F94H         LINE#         3972
  C:1F97H         LINE#         3973
  C:1F9AH         LINE#         3974
  C:1F9CH         LINE#         3975
  C:1F9EH         LINE#         3976
  C:1F9FH         LINE#         3977
  C:1FA0H         LINE#         3978
  C:1FA1H         LINE#         3979
  C:1FA3H         LINE#         3981
  C:1FA5H         LINE#         3982
  C:1FA6H         LINE#         3983
  C:1FA8H         LINE#         3984
  C:1FAAH         LINE#         3985
  C:1FADH         LINE#         3986
  C:1FAEH         LINE#         3987
  C:1FB1H         LINE#         3989
  C:1FB4H         LINE#         3990
  C:1FB7H         LINE#         3991
  C:1FBAH         LINE#         3992
  C:1FBDH         LINE#         3995
  C:1FC0H         LINE#         3996
  C:1FC3H         LINE#         3997
  C:1FC6H         LINE#         3998
  C:1FC9H         LINE#         3999
  C:1FCCH         LINE#         4003
  C:1FCEH         LINE#         4004
  C:1FD0H         LINE#         4005
  C:1FD3H         LINE#         4013
  C:1FD5H         LINE#         4014
BL51 BANKED LINKER/LOCATER V4.16a           02/26/2007  12:28:42  PAGE 65


  C:1FD7H         LINE#         4015
  C:1FD9H         LINE#         4016
  C:1FDAH         LINE#         4017
  C:1FDBH         LINE#         4018
  C:1FDDH         LINE#         4019
  C:1FDEH         LINE#         4020
  C:1FDFH         LINE#         4021
  C:1FE0H         LINE#         4022
  C:1FE2H         LINE#         4023
  C:1FE4H         LINE#         4024
  C:1FE6H         LINE#         4025
  C:1FE9H         LINE#         4026
  C:1FEBH         LINE#         4027
  C:1FEDH         LINE#         4028
  C:1FF0H         LINE#         4029
  C:1FF2H         LINE#         4030
  C:1FF5H         LINE#         4031
  C:1FF7H         LINE#         4032
  C:1FFAH         LINE#         4034
  C:1FFCH         LINE#         4035
  C:1FFEH         LINE#         4036
  C:2001H         LINE#         4037
  C:2004H         LINE#         4040
  C:2007H         LINE#         4041
  C:2009H         LINE#         4042
  C:200BH         LINE#         4043
  C:200DH         LINE#         4044
  C:200FH         LINE#         4045
  C:2012H         LINE#         4046
  C:2015H         LINE#         4047
  C:2018H         LINE#         4048
  C:201BH         LINE#         4049
  C:201EH         LINE#         4050
  C:2020H         LINE#         4051
  C:2022H         LINE#         4052
  C:2023H         LINE#         4053
  C:2026H         LINE#         4054
  C:2028H         LINE#         4055
  C:2029H         LINE#         4056
  C:202BH         LINE#         4057
  C:202DH         LINE#         4058
  C:2030H         LINE#         4060
  C:2032H         LINE#         4061
  C:2033H         LINE#         4062
  C:2035H         LINE#         4065
  C:2037H         LINE#         4066
  C:2039H         LINE#         4067
  C:203CH         LINE#         4068
  C:203FH         LINE#         4070
  C:2042H         LINE#         4072
  C:2045H         LINE#         4073
  C:2048H         LINE#         4074
  C:204BH         LINE#         4075
  C:204EH         LINE#         4076
  C:2050H         LINE#         4077
  C:2052H         LINE#         4078
  C:2054H         LINE#         4079
  C:2056H         LINE#         4080
  C:2059H         LINE#         4082
  C:205CH         LINE#         4083
  C:205FH         LINE#         4084
  C:2062H         LINE#         4085
  C:2065H         LINE#         4086
  C:2067H         LINE#         4087
  C:206AH         LINE#         4088
BL51 BANKED LINKER/LOCATER V4.16a           02/26/2007  12:28:42  PAGE 66


  C:206DH         LINE#         4089
  C:2070H         LINE#         4090
  C:2073H         LINE#         4091
  C:2075H         LINE#         4092
  C:2078H         LINE#         4101
  C:207AH         LINE#         4102
  C:207CH         LINE#         4103
  C:207DH         LINE#         4104
  C:207EH         LINE#         4105
  C:207FH         LINE#         4106
  C:2081H         LINE#         4108
  C:2083H         LINE#         4109
  C:2084H         LINE#         4110
  C:2086H         LINE#         4111
  C:2088H         LINE#         4112
  C:208BH         LINE#         4113
  C:208CH         LINE#         4114
  C:208FH         LINE#         4120
  C:2091H         LINE#         4121
  C:2093H         LINE#         4122
  C:2096H         LINE#         4130
  C:2098H         LINE#         4131
  C:209AH         LINE#         4132
  C:209CH         LINE#         4133
  C:209DH         LINE#         4134
  C:209EH         LINE#         4135
  C:20A0H         LINE#         4136
  C:20A1H         LINE#         4137
  C:20A2H         LINE#         4138
  C:20A3H         LINE#         4139
  C:20A5H         LINE#         4141
  C:20A7H         LINE#         4142
  C:20A9H         LINE#         4143
  C:20ACH         LINE#         4144
  C:20AFH         LINE#         4145
  C:20B2H         LINE#         4146
  C:20B5H         LINE#         4147
  C:20B8H         LINE#         4148
  C:20BBH         LINE#         4149
  C:20BDH         LINE#         4150
  C:20C0H         LINE#         4151
  C:20C2H         LINE#         4152
  C:20C4H         LINE#         4153
  C:20C7H         LINE#         4154
  C:20C9H         LINE#         4155
  C:20CBH         LINE#         4156
  C:20CDH         LINE#         4157
  C:20CFH         LINE#         4158
  C:20D1H         LINE#         4159
  C:20D2H         LINE#         4160
  C:20D4H         LINE#         4161
  C:20D7H         LINE#         4162
  C:20DAH         LINE#         4165
  C:20DDH         LINE#         4167
  C:20E0H         LINE#         4169
  C:20E3H         LINE#         4170
  C:20E6H         LINE#         4171
  C:20E9H         LINE#         4172
  C:20ECH         LINE#         4173
  C:20EFH         LINE#         4176
  C:20F2H         LINE#         4179
  C:20F5H         LINE#         4180
  C:20F7H         LINE#         4181
  C:20FAH         LINE#         4183
  C:20FDH         LINE#         4185
BL51 BANKED LINKER/LOCATER V4.16a           02/26/2007  12:28:42  PAGE 67


  C:2100H         LINE#         4186
  C:2102H         LINE#         4187
  C:2105H         LINE#         4188
  C:2107H         LINE#         4189
  C:2109H         LINE#         4190
  C:210CH         LINE#         4191
  C:210FH         LINE#         4193
  C:2111H         LINE#         4194
  C:2112H         LINE#         4195
  C:2115H         LINE#         4197
  C:2118H         LINE#         4198
  C:211AH         LINE#         4207
  C:211CH         LINE#         4208
  C:211EH         LINE#         4209
  C:211FH         LINE#         4210
  C:2120H         LINE#         4211
  C:2121H         LINE#         4212
  C:2123H         LINE#         4214
  C:2125H         LINE#         4215
  C:2126H         LINE#         4216
  C:2128H         LINE#         4217
  C:212AH         LINE#         4218
  C:212DH         LINE#         4219
  C:2130H         LINE#         4220
  C:2131H         LINE#         4222
  C:2134H         LINE#         4223
  C:2136H         LINE#         4224
  C:2139H         LINE#         4225
  C:213BH         LINE#         4226
  C:213CH         LINE#         4227
  C:213FH         LINE#         4228
  C:2141H         LINE#         4231
  C:2143H         LINE#         4232
  C:2145H         LINE#         4233
  C:2148H         LINE#         4234
  C:214BH         LINE#         4236
  C:214DH         LINE#         4237
  C:214FH         LINE#         4238
  C:2152H         LINE#         4239
  C:2155H         LINE#         4240
  C:2158H         LINE#         4241
  C:215AH         LINE#         4242
  C:215DH         LINE#         4243
  C:2160H         LINE#         4244
  C:2163H         LINE#         4245
  C:2166H         LINE#         4246
  C:2168H         LINE#         4248
  C:216AH         LINE#         4249
  C:216CH         LINE#         4251
  C:216FH         LINE#         4252
  C:2172H         LINE#         4254
  C:2175H         LINE#         4256
  C:2178H         LINE#         4258
  C:217AH         LINE#         4259
  C:217CH         LINE#         4260
  C:217FH         LINE#         4261
  C:2182H         LINE#         4262
  C:2185H         LINE#         4263
  C:2188H         LINE#         4264
  C:218AH         LINE#         4265
  C:218CH         LINE#         4266
  C:218EH         LINE#         4267
  C:2190H         LINE#         4268
  C:2192H         LINE#         4269
  C:2194H         LINE#         4270
BL51 BANKED LINKER/LOCATER V4.16a           02/26/2007  12:28:42  PAGE 68


  C:2196H         LINE#         4271
  C:2198H         LINE#         4273
  C:219BH         LINE#         4274
  C:219DH         LINE#         4278
  C:219FH         LINE#         4279
  C:21A1H         LINE#         4280
  C:21A4H         LINE#         4281
  C:21A7H         LINE#         4282
  C:21A9H         LINE#         4283
  C:21ABH         LINE#         4284
  C:21AEH         LINE#         4285
  C:21B1H         LINE#         4286
  C:21B4H         LINE#         4287
  C:21B7H         LINE#         4288
  C:21B8H         LINE#         4289
  C:21BAH         LINE#         4290
  C:21BBH         LINE#         4294
  C:21BDH         LINE#         4295
  C:21BFH         LINE#         4296
  C:21C1H         LINE#         4297
  C:21C3H         LINE#         4298
  C:21C6H         LINE#         4302
  C:21C8H         LINE#         4303
  C:21CAH         LINE#         4304
  C:21CCH         LINE#         4305
  C:21CEH         LINE#         4306
  C:21D0H         LINE#         4307
  C:21D2H         LINE#         4308
  C:21D4H         LINE#         4309
  C:21D6H         LINE#         4310
  C:21D8H         LINE#         4311
  C:21DAH         LINE#         4312
  C:21DCH         LINE#         4313
  C:21DEH         LINE#         4314
  C:21E1H         LINE#         4315
  C:21E4H         LINE#         4317
  C:21E6H         LINE#         4318
  C:21E8H         LINE#         4319
  C:21EAH         LINE#         4320
  C:21ECH         LINE#         4321
  C:21EDH         LINE#         4322
  C:21EEH         LINE#         4324
  C:21F0H         LINE#         4325
  C:21F2H         LINE#         4326
  C:21F4H         LINE#         4328
  C:21F6H         LINE#         4329
  C:21F8H         LINE#         4330
  C:21FAH         LINE#         4332
  C:21FDH         LINE#         4333
  C:2200H         LINE#         4335
  C:2202H         LINE#         4336
  C:2204H         LINE#         4337
  C:2205H         LINE#         4343
  C:2207H         LINE#         4344
  C:220AH         LINE#         4345
  C:220DH         LINE#         4346
  C:2210H         LINE#         4347
  C:2211H         LINE#         4348
  C:2214H         LINE#         4349
  C:2217H         LINE#         4350
  C:2219H         LINE#         4351
  C:221CH         LINE#         4352
  C:221FH         LINE#         4353
  C:2221H         LINE#         4354
  C:2224H         LINE#         4355
BL51 BANKED LINKER/LOCATER V4.16a           02/26/2007  12:28:42  PAGE 69


  C:2227H         LINE#         4356
  C:2229H         LINE#         4357
  C:222CH         LINE#         4358
  C:222FH         LINE#         4359
  C:2231H         LINE#         4361
  C:2234H         LINE#         4362
  C:2237H         LINE#         4363
  C:2239H         LINE#         4364
  C:223CH         LINE#         4365
  C:223FH         LINE#         4366
  C:2241H         LINE#         4367
  C:2244H         LINE#         4368
  C:2247H         LINE#         4369
  C:2249H         LINE#         4370
  C:224CH         LINE#         4371
  C:224FH         LINE#         4372
  C:2251H         LINE#         4375
  C:2254H         LINE#         4376
  C:2256H         LINE#         4378
  C:2259H         LINE#         4380
  C:225CH         LINE#         4381
  C:225EH         LINE#         4382
  C:2261H         LINE#         4384
  C:2264H         LINE#         4385
  C:2265H         LINE#         4386
  C:2267H         LINE#         4387
  C:2268H         LINE#         4388
  C:226BH         LINE#         4389
  C:226DH         LINE#         4390
  C:2270H         LINE#         4391
  C:2273H         LINE#         4393
  C:2276H         LINE#         4394
  C:2279H         LINE#         4395
  C:227CH         LINE#         4396
  C:227FH         LINE#         4398
  C:2281H         LINE#         4399
  C:2284H         LINE#         4402
  C:2286H         LINE#         4403
  C:2288H         LINE#         4404
  C:228AH         LINE#         4405
  C:228DH         LINE#         4407
  C:2290H         LINE#         4408
  C:2292H         LINE#         4409
  C:2295H         LINE#         4410
  C:2296H         LINE#         4411
  C:2297H         LINE#         4412
  C:2298H         LINE#         4413
  C:2299H         LINE#         4414
  C:229AH         LINE#         4415
  C:229BH         LINE#         4416
  C:229CH         LINE#         4417
  C:229DH         LINE#         4418
  C:229EH         LINE#         4419
  C:229FH         LINE#         4420
  C:22A0H         LINE#         4424
  C:22A3H         LINE#         4425
  C:22A5H         LINE#         4426
  C:22A8H         LINE#         4428
  C:22AAH         LINE#         4429
  C:22ACH         LINE#         4430
  C:22AFH         LINE#         4431
  C:22B2H         LINE#         4433
  C:22B4H         LINE#         4434
  C:22B7H         LINE#         4436
  C:22B9H         LINE#         4438
BL51 BANKED LINKER/LOCATER V4.16a           02/26/2007  12:28:42  PAGE 70


  C:22BCH         LINE#         4439
  C:22BDH         LINE#         4440
  C:22BEH         LINE#         4441
  C:22C0H         LINE#         4442
  C:22C1H         LINE#         4443
  C:22C2H         LINE#         4444
  C:22C3H         LINE#         4445
  C:22C5H         LINE#         4446
  C:22C8H         LINE#         4450
  C:22CAH         LINE#         4451
  C:22CCH         LINE#         4452
  C:22CFH         LINE#         4453
  C:22D2H         LINE#         4454
  C:22D5H         LINE#         4455
  C:22D8H         LINE#         4456
  C:22DBH         LINE#         4457
  C:22DEH         LINE#         4459
  C:22E0H         LINE#         4460
  C:22E2H         LINE#         4461
  C:22E5H         LINE#         4462
  C:22E8H         LINE#         4463
  C:22EAH         LINE#         4464
  C:22ECH         LINE#         4465
  C:22EEH         LINE#         4466
  C:22F0H         LINE#         4467
  C:22F2H         LINE#         4468
  C:22F4H         LINE#         4469
  C:22F7H         LINE#         4470
  C:22FAH         LINE#         4471
  C:22FDH         LINE#         4472
  C:22FFH         LINE#         4473
  C:2301H         LINE#         4474
  C:2303H         LINE#         4475
  C:2305H         LINE#         4476
  C:2308H         LINE#         4478
  C:230BH         LINE#         4479
  C:230EH         LINE#         4480
  C:2311H         LINE#         4481
  C:2313H         LINE#         4482
  C:2315H         LINE#         4483
  C:2317H         LINE#         4484
  C:2319H         LINE#         4486
  C:231BH         LINE#         4487
  C:231EH         LINE#         4488
  C:2321H         LINE#         4489
  C:2324H         LINE#         4490
  C:2326H         LINE#         4491
  C:2328H         LINE#         4492
  C:232AH         LINE#         4493
  C:232CH         LINE#         4494
  C:232FH         LINE#         4496
  C:2332H         LINE#         4497
  C:2335H         LINE#         4498
  C:2338H         LINE#         4499
  C:233BH         LINE#         4500
  C:233DH         LINE#         4501
  C:2340H         LINE#         4503
  C:2342H         LINE#         4504
  C:2344H         LINE#         4505
  C:2346H         LINE#         4506
  C:2349H         LINE#         4508
  C:234BH         LINE#         4509
  C:234EH         LINE#         4510
  C:2350H         LINE#         4512
  C:2351H         LINE#         4513
BL51 BANKED LINKER/LOCATER V4.16a           02/26/2007  12:28:42  PAGE 71


  C:2352H         LINE#         4514
  C:2353H         LINE#         4515
  C:2354H         LINE#         4516
  C:2355H         LINE#         4517
  C:2356H         LINE#         4518
  C:2357H         LINE#         4519
  C:2358H         LINE#         4520
  C:2359H         LINE#         4521
  C:235AH         LINE#         4522
  C:235BH         LINE#         4526
  C:235EH         LINE#         4527
  C:2360H         LINE#         4528
  C:2363H         LINE#         4530
  C:2365H         LINE#         4531
  C:2367H         LINE#         4532
  C:236AH         LINE#         4533
  C:236DH         LINE#         4535
  C:236FH         LINE#         4536
  C:2372H         LINE#         4537
  C:2375H         LINE#         4542
  C:2378H         LINE#         4543
  C:237AH         LINE#         4544
  C:237CH         LINE#         4545
  C:237DH         LINE#         4546
  C:237EH         LINE#         4547
  C:2380H         LINE#         4548
  C:2381H         LINE#         4549
  C:2383H         LINE#         4550
  C:2386H         LINE#         4551
  C:2388H         LINE#         4552
  C:238AH         LINE#         4553
  C:238DH         LINE#         4554
  C:238FH         LINE#         4555
  C:2390H         LINE#         4556
  C:2392H         LINE#         4557
  C:2393H         LINE#         4559
  C:2395H         LINE#         4560
  C:2396H         LINE#         4561
  C:2398H         LINE#         4562
  C:2399H         LINE#         4563
  C:239AH         LINE#         4564
  C:239CH         LINE#         4566
  C:239DH         LINE#         4567
  C:239FH         LINE#         4568
  C:23A1H         LINE#         4569
  C:23A3H         LINE#         4570
  C:23A5H         LINE#         4571
  C:23A7H         LINE#         4572
  C:23A9H         LINE#         4574
  C:23ABH         LINE#         4575
  C:23ADH         LINE#         4576
  C:23AEH         LINE#         4577
  C:23AFH         LINE#         4578
  C:23B1H         LINE#         4579
  C:23B2H         LINE#         4581
  C:23B3H         LINE#         4582
  C:23B5H         LINE#         4583
  C:23B6H         LINE#         4584
  C:23B7H         LINE#         4585
  C:23B9H         LINE#         4586
  C:23BBH         LINE#         4587
  C:23BCH         LINE#         4588
  C:23BDH         LINE#         4589
  C:23BFH         LINE#         4593
  C:23C2H         LINE#         4594
BL51 BANKED LINKER/LOCATER V4.16a           02/26/2007  12:28:42  PAGE 72


  C:23C5H         LINE#         4595
  C:23C8H         LINE#         4596
  C:23CAH         LINE#         4597
  C:23CDH         LINE#         4598
  C:23D0H         LINE#         4599
  C:23D2H         LINE#         4600
  C:23D5H         LINE#         4601
  C:23D7H         LINE#         4602
  C:23D8H         LINE#         4603
  C:23DAH         LINE#         4605
  C:23DDH         LINE#         4606
  C:23E0H         LINE#         4607
  C:23E3H         LINE#         4608
  C:23E5H         LINE#         4609
  C:23E8H         LINE#         4610
  C:23EBH         LINE#         4611
  C:23EDH         LINE#         4612
  C:23F0H         LINE#         4613
  C:23F1H         LINE#         4614
  C:23F2H         LINE#         4615
  C:23F3H         LINE#         4616
  C:23F4H         LINE#         4617
  C:23F6H         LINE#         4618
  C:23F7H         LINE#         4619
  C:23F9H         LINE#         4620
  C:23FAH         LINE#         4621
  C:23FDH         LINE#         4622
  C:2400H         LINE#         4623
  C:2402H         LINE#         4624
  C:2405H         LINE#         4625
  C:2408H         LINE#         4626
  C:240BH         LINE#         4627
  C:240EH         LINE#         4628
  C:2411H         LINE#         4629
  C:2414H         LINE#         4630
  C:2417H         LINE#         4631
  C:2419H         LINE#         4632
  C:241CH         LINE#         4635
  C:241EH         LINE#         4636
  C:2420H         LINE#         4637
  C:2423H         LINE#         4639
  C:2425H         LINE#         4640
  C:2427H         LINE#         4641
  C:2429H         LINE#         4642
  C:242AH         LINE#         4643
  C:242CH         LINE#         4644
  C:242DH         LINE#         4645
  C:242EH         LINE#         4646
  C:242FH         LINE#         4647
  C:2431H         LINE#         4648
  C:2433H         LINE#         4649
  C:2435H         LINE#         4650
  C:2438H         LINE#         4651
  C:243AH         LINE#         4652
  C:243DH         LINE#         4653
  C:243EH         LINE#         4656
  C:243FH         LINE#         4657
  C:2440H         LINE#         4658
  C:2441H         LINE#         4659
  C:2442H         LINE#         4660
  C:2443H         LINE#         4661
  C:2444H         LINE#         4662
  C:2445H         LINE#         4663
  C:2446H         LINE#         4664
  C:2447H         LINE#         4665
BL51 BANKED LINKER/LOCATER V4.16a           02/26/2007  12:28:42  PAGE 73


  C:2448H         LINE#         4666
  C:2449H         LINE#         4667
  C:244AH         LINE#         4669
  C:244BH         LINE#         4670
  C:244DH         LINE#         4671
  C:244FH         LINE#         4672
  C:2451H         LINE#         4673
  C:2453H         LINE#         4674
  C:2455H         LINE#         4675
  C:2457H         LINE#         4676
  C:2458H         LINE#         4680
  C:245BH         LINE#         4683
  C:245EH         LINE#         4685
  C:2460H         LINE#         4687
  C:2461H         LINE#         4688
  C:2462H         LINE#         4689
  C:2463H         LINE#         4690
  C:2464H         LINE#         4691
  C:2465H         LINE#         4692
  C:2466H         LINE#         4693
  C:2467H         LINE#         4694
  C:2468H         LINE#         4695
  C:2469H         LINE#         4696
  C:246AH         LINE#         4697
  C:246BH         LINE#         4698
  C:246CH         LINE#         4699
  C:246DH         LINE#         4700
  C:246EH         LINE#         4701
  C:246FH         LINE#         4703
  C:2471H         LINE#         4704
  C:2474H         LINE#         4705
  C:2477H         LINE#         4706
  C:2479H         LINE#         4707
  C:247CH         LINE#         4709
  C:247FH         LINE#         4712
  C:2481H         LINE#         4713
  C:2483H         LINE#         4714
  C:2484H         LINE#         4715
  C:2485H         LINE#         4716
  C:2487H         LINE#         4717
  C:2488H         LINE#         4719
  C:248AH         LINE#         4720
  C:248CH         LINE#         4721
  C:248FH         LINE#         4722
  C:2491H         LINE#         4723
  C:2492H         LINE#         4724
  C:2494H         LINE#         4725
  C:2495H         LINE#         4727
  C:2497H         LINE#         4728
  C:2498H         LINE#         4729
  C:249AH         LINE#         4730
  C:249BH         LINE#         4731
  C:249CH         LINE#         4732
  C:249EH         LINE#         4734
  C:249FH         LINE#         4735
  C:24A1H         LINE#         4736
  C:24A3H         LINE#         4737
  C:24A5H         LINE#         4738
  C:24A7H         LINE#         4739
  C:24A9H         LINE#         4740
  C:24ABH         LINE#         4742
  C:24ADH         LINE#         4743
  C:24AFH         LINE#         4744
  C:24B0H         LINE#         4745
  C:24B1H         LINE#         4746
BL51 BANKED LINKER/LOCATER V4.16a           02/26/2007  12:28:42  PAGE 74


  C:24B3H         LINE#         4747
  C:24B4H         LINE#         4749
  C:24B5H         LINE#         4750
  C:24B7H         LINE#         4751
  C:24B8H         LINE#         4752
  C:24B9H         LINE#         4753
  C:24BBH         LINE#         4754
  C:24BDH         LINE#         4755
  C:24BEH         LINE#         4756
  C:24BFH         LINE#         4757
  C:24C1H         LINE#         4761
  C:24C3H         LINE#         4762
  C:24C6H         LINE#         4764
  C:24C9H         LINE#         4765
  C:24CCH         LINE#         4767
  C:24CFH         LINE#         4769
  C:24D2H         LINE#         4770
  C:24D4H         LINE#         4771
  C:24D6H         LINE#         4772
  C:24D9H         LINE#         4773
  C:24DBH         LINE#         4774
  C:24DCH         LINE#         4775
  C:24DEH         LINE#         4777
  C:24E0H         LINE#         4778
  C:24E3H         LINE#         4780
  C:24E6H         LINE#         4781
  C:24E9H         LINE#         4783
  C:24ECH         LINE#         4785
  C:24EFH         LINE#         4786
  C:24F1H         LINE#         4787
  C:24F3H         LINE#         4788
  C:24F6H         LINE#         4791
  C:24F8H         LINE#         4792
  C:24FBH         LINE#         4796
  C:24FEH         LINE#         4797
  C:2501H         LINE#         4798
  C:2504H         LINE#         4799
  C:2507H         LINE#         4801
  C:250AH         LINE#         4802
  C:250CH         LINE#         4803
  C:250FH         LINE#         4806
  C:2511H         LINE#         4807
  C:2513H         LINE#         4808
  C:2516H         LINE#         4810
  C:2518H         LINE#         4811
  C:251AH         LINE#         4812
  C:251CH         LINE#         4813
  C:251DH         LINE#         4814
  C:251FH         LINE#         4815
  C:2520H         LINE#         4816
  C:2521H         LINE#         4817
  C:2522H         LINE#         4818
  C:2524H         LINE#         4819
  C:2526H         LINE#         4820
  C:2528H         LINE#         4821
  C:252BH         LINE#         4822
  C:252DH         LINE#         4823
  C:2530H         LINE#         4824
  C:2531H         LINE#         4830
  C:2534H         LINE#         4834
  C:2537H         LINE#         4836
  C:2539H         LINE#         4838
  C:253AH         LINE#         4839
  C:253BH         LINE#         4840
  C:253CH         LINE#         4841
BL51 BANKED LINKER/LOCATER V4.16a           02/26/2007  12:28:42  PAGE 75


  C:253DH         LINE#         4842
  C:253EH         LINE#         4843
  C:253FH         LINE#         4844
  C:2540H         LINE#         4845
  C:2541H         LINE#         4846
  C:2542H         LINE#         4847
  C:2543H         LINE#         4848
  C:2544H         LINE#         4849
  C:2545H         LINE#         4850
  C:2546H         LINE#         4851
  C:2547H         LINE#         4852
  C:2548H         LINE#         4854
  C:254AH         LINE#         4855
  C:254DH         LINE#         4856
  C:2550H         LINE#         4857
  C:2552H         LINE#         4858
  C:2555H         LINE#         4860
  C:2558H         LINE#         4863
  C:255AH         LINE#         4864
  C:255CH         LINE#         4865
  C:255DH         LINE#         4866
  C:255EH         LINE#         4867
  C:2560H         LINE#         4868
  C:2561H         LINE#         4870
  C:2563H         LINE#         4871
  C:2565H         LINE#         4872
  C:2568H         LINE#         4873
  C:256AH         LINE#         4874
  C:256BH         LINE#         4875
  C:256DH         LINE#         4876
  C:256EH         LINE#         4878
  C:2570H         LINE#         4879
  C:2571H         LINE#         4880
  C:2573H         LINE#         4881
  C:2574H         LINE#         4882
  C:2575H         LINE#         4883
  C:2577H         LINE#         4885
  C:2578H         LINE#         4886
  C:257AH         LINE#         4887
  C:257CH         LINE#         4888
  C:257EH         LINE#         4889
  C:2580H         LINE#         4890
  C:2582H         LINE#         4891
  C:2584H         LINE#         4893
  C:2586H         LINE#         4894
  C:2588H         LINE#         4895
  C:2589H         LINE#         4896
  C:258AH         LINE#         4897
  C:258CH         LINE#         4898
  C:258DH         LINE#         4900
  C:258EH         LINE#         4901
  C:2590H         LINE#         4902
  C:2591H         LINE#         4903
  C:2592H         LINE#         4904
  C:2594H         LINE#         4905
  C:2596H         LINE#         4906
  C:2597H         LINE#         4907
  C:2598H         LINE#         4908
  C:259AH         LINE#         4912
  C:259CH         LINE#         4913
  C:259FH         LINE#         4915
  C:25A2H         LINE#         4916
  C:25A5H         LINE#         4918
  C:25A8H         LINE#         4920
  C:25ABH         LINE#         4921
BL51 BANKED LINKER/LOCATER V4.16a           02/26/2007  12:28:42  PAGE 76


  C:25ADH         LINE#         4922
  C:25AFH         LINE#         4923
  C:25B2H         LINE#         4924
  C:25B4H         LINE#         4925
  C:25B5H         LINE#         4926
  C:25B7H         LINE#         4927
  C:25B9H         LINE#         4928
  C:25BCH         LINE#         4930
  C:25BFH         LINE#         4931
  C:25C2H         LINE#         4933
  C:25C5H         LINE#         4935
  C:25C8H         LINE#         4936
  C:25CAH         LINE#         4937
  C:25CCH         LINE#         4938
  C:25CFH         LINE#         4941
  C:25D2H         LINE#         4944
  C:25D4H         LINE#         4945
  C:25D7H         LINE#         4946
  C:25DAH         LINE#         4947
  C:25DDH         LINE#         4948
  C:25E0H         LINE#         4949
  C:25E2H         LINE#         4950
  C:25E5H         LINE#         4951
  C:25E6H         LINE#         4955
  C:25E8H         LINE#         4956
  C:25EAH         LINE#         4957
  C:25ECH         LINE#         4960
  C:25EFH         LINE#         4961
  C:25F1H         LINE#         4962
  -------         ENDMOD        MAIN

LINK/LOCATE RUN COMPLETE.  0 WARNING(S),  0 ERROR(S)
